ARM GAS  C:\Users\passw\AppData\Local\Temp\ccDo4DvH.s 			page 1


   1              		.cpu cortex-m0
   2              		.fpu softvfp
   3              		.eabi_attribute 20, 1
   4              		.eabi_attribute 21, 1
   5              		.eabi_attribute 23, 3
   6              		.eabi_attribute 24, 1
   7              		.eabi_attribute 25, 1
   8              		.eabi_attribute 26, 1
   9              		.eabi_attribute 30, 6
  10              		.eabi_attribute 34, 0
  11              		.eabi_attribute 18, 4
  12              		.code	16
  13              		.file	"CyFlash.c"
  14              		.text
  15              	.Ltext0:
  16              		.cfi_sections	.debug_frame
  17              		.section	.text.CySysFlashWriteRow,"ax",%progbits
  18              		.align	2
  19              		.global	CySysFlashWriteRow
  20              		.code	16
  21              		.thumb_func
  22              		.type	CySysFlashWriteRow, %function
  23              	CySysFlashWriteRow:
  24              	.LFB1:
  25              		.file 1 ".\\Generated_Source\\PSoC4\\CyFlash.c"
   1:.\Generated_Source\PSoC4/CyFlash.c **** /*******************************************************************************
   2:.\Generated_Source\PSoC4/CyFlash.c **** * File Name: CyFlash.c
   3:.\Generated_Source\PSoC4/CyFlash.c **** * Version 5.30
   4:.\Generated_Source\PSoC4/CyFlash.c **** *
   5:.\Generated_Source\PSoC4/CyFlash.c **** *  Description:
   6:.\Generated_Source\PSoC4/CyFlash.c **** *   Provides an API for the FLASH.
   7:.\Generated_Source\PSoC4/CyFlash.c **** *
   8:.\Generated_Source\PSoC4/CyFlash.c **** *  Note:
   9:.\Generated_Source\PSoC4/CyFlash.c **** *   This code is endian agnostic.
  10:.\Generated_Source\PSoC4/CyFlash.c **** *
  11:.\Generated_Source\PSoC4/CyFlash.c **** *  Note:
  12:.\Generated_Source\PSoC4/CyFlash.c **** *   Documentation of the API's in this file is located in the
  13:.\Generated_Source\PSoC4/CyFlash.c **** *   System Reference Guide provided with PSoC Creator.
  14:.\Generated_Source\PSoC4/CyFlash.c **** *
  15:.\Generated_Source\PSoC4/CyFlash.c **** ********************************************************************************
  16:.\Generated_Source\PSoC4/CyFlash.c **** * Copyright 2010-2015, Cypress Semiconductor Corporation.  All rights reserved.
  17:.\Generated_Source\PSoC4/CyFlash.c **** * You may use this file only in accordance with the license, terms, conditions,
  18:.\Generated_Source\PSoC4/CyFlash.c **** * disclaimers, and limitations in the end user license agreement accompanying
  19:.\Generated_Source\PSoC4/CyFlash.c **** * the software package with which this file was provided.
  20:.\Generated_Source\PSoC4/CyFlash.c **** *******************************************************************************/
  21:.\Generated_Source\PSoC4/CyFlash.c **** 
  22:.\Generated_Source\PSoC4/CyFlash.c **** #include "CyFlash.h"
  23:.\Generated_Source\PSoC4/CyFlash.c **** 
  24:.\Generated_Source\PSoC4/CyFlash.c **** 
  25:.\Generated_Source\PSoC4/CyFlash.c **** /*******************************************************************************
  26:.\Generated_Source\PSoC4/CyFlash.c **** * Cypress identified a defect with the Flash write functionality of the
  27:.\Generated_Source\PSoC4/CyFlash.c **** * PSoC 4000, PSoC 4100, and PSoC 4200 devices. The CySysFlashWriteRow() function
  28:.\Generated_Source\PSoC4/CyFlash.c **** * now checks the data to be written and, if necessary, modifies it to have a
  29:.\Generated_Source\PSoC4/CyFlash.c **** * non-zero checksum. After writing to Flash, the modified data is replaced
  30:.\Generated_Source\PSoC4/CyFlash.c **** * (Flash program) with the correct (original) data.
  31:.\Generated_Source\PSoC4/CyFlash.c **** *******************************************************************************/
  32:.\Generated_Source\PSoC4/CyFlash.c **** #define CY_FLASH_CHECKSUM_WORKAROUND    (CY_PSOC4_4000 || CY_PSOC4_4100 || CY_PSOC4_4200)
ARM GAS  C:\Users\passw\AppData\Local\Temp\ccDo4DvH.s 			page 2


  33:.\Generated_Source\PSoC4/CyFlash.c **** 
  34:.\Generated_Source\PSoC4/CyFlash.c **** #if (CY_IP_FM || ((!CY_PSOC4_4000) && CY_IP_SPCIF_SYNCHRONOUS) || (!CY_IP_FM) && CY_PSOC4_4000)
  35:.\Generated_Source\PSoC4/CyFlash.c ****     static CY_SYS_FLASH_CLOCK_BACKUP_STRUCT cySysFlashBackup;
  36:.\Generated_Source\PSoC4/CyFlash.c **** #endif /* (CY_IP_FM || ((!CY_PSOC4_4000) && CY_IP_SPCIF_SYNCHRONOUS) || (!CY_IP_FM) && CY_PSOC4_400
  37:.\Generated_Source\PSoC4/CyFlash.c **** 
  38:.\Generated_Source\PSoC4/CyFlash.c **** static cystatus CySysFlashClockBackup(void);
  39:.\Generated_Source\PSoC4/CyFlash.c **** static cystatus CySysFlashClockRestore(void);
  40:.\Generated_Source\PSoC4/CyFlash.c **** #if(CY_IP_SPCIF_SYNCHRONOUS)
  41:.\Generated_Source\PSoC4/CyFlash.c ****     static cystatus CySysFlashClockConfig(void);
  42:.\Generated_Source\PSoC4/CyFlash.c **** #endif  /* (CY_IP_SPCIF_SYNCHRONOUS) */
  43:.\Generated_Source\PSoC4/CyFlash.c **** 
  44:.\Generated_Source\PSoC4/CyFlash.c **** 
  45:.\Generated_Source\PSoC4/CyFlash.c **** /*******************************************************************************
  46:.\Generated_Source\PSoC4/CyFlash.c **** * Function Name: CySysFlashWriteRow
  47:.\Generated_Source\PSoC4/CyFlash.c **** ********************************************************************************
  48:.\Generated_Source\PSoC4/CyFlash.c **** *
  49:.\Generated_Source\PSoC4/CyFlash.c **** * Summary:
  50:.\Generated_Source\PSoC4/CyFlash.c **** *  Erases a row of Flash and programs it with the new data.
  51:.\Generated_Source\PSoC4/CyFlash.c **** *
  52:.\Generated_Source\PSoC4/CyFlash.c **** * Parameters:
  53:.\Generated_Source\PSoC4/CyFlash.c **** *  uint16 rowNum:
  54:.\Generated_Source\PSoC4/CyFlash.c **** *   The flash row number. The number of the flash rows is defined by the
  55:.\Generated_Source\PSoC4/CyFlash.c **** *   CY_FLASH_NUMBER_ROWS macro for the selected device. Refer to the device
  56:.\Generated_Source\PSoC4/CyFlash.c **** *   datasheet for the details.
  57:.\Generated_Source\PSoC4/CyFlash.c **** *
  58:.\Generated_Source\PSoC4/CyFlash.c **** *  uint8* rowData:
  59:.\Generated_Source\PSoC4/CyFlash.c **** *   Array of bytes to write. The size of the array must be equal to the flash
  60:.\Generated_Source\PSoC4/CyFlash.c **** *   row size. The flash row size for the selected device is defined by
  61:.\Generated_Source\PSoC4/CyFlash.c **** *   the CY_FLASH_SIZEOF_ROW macro. Refer to the device datasheet for the
  62:.\Generated_Source\PSoC4/CyFlash.c **** *   details.
  63:.\Generated_Source\PSoC4/CyFlash.c **** *
  64:.\Generated_Source\PSoC4/CyFlash.c **** * Return:
  65:.\Generated_Source\PSoC4/CyFlash.c **** *  Status
  66:.\Generated_Source\PSoC4/CyFlash.c **** *     Value                     Description
  67:.\Generated_Source\PSoC4/CyFlash.c **** *    CY_SYS_FLASH_SUCCESS           Successful
  68:.\Generated_Source\PSoC4/CyFlash.c **** *    CY_SYS_FLASH_INVALID_ADDR      Specified flash row address is invalid
  69:.\Generated_Source\PSoC4/CyFlash.c **** *    CY_SYS_FLASH_PROTECTED         Specified flash row is protected
  70:.\Generated_Source\PSoC4/CyFlash.c **** *    Other non-zero                 Failure
  71:.\Generated_Source\PSoC4/CyFlash.c **** *
  72:.\Generated_Source\PSoC4/CyFlash.c **** * Side Effects:
  73:.\Generated_Source\PSoC4/CyFlash.c **** *   The IMO must be enabled before calling this function. The operation of the
  74:.\Generated_Source\PSoC4/CyFlash.c **** *   flash writing hardware is dependent on the IMO.
  75:.\Generated_Source\PSoC4/CyFlash.c **** *
  76:.\Generated_Source\PSoC4/CyFlash.c **** *   For PSoC 4000, PSoC 4100 BLE and PSoC 4200 BLE devices (PSoC 4100 BLE and
  77:.\Generated_Source\PSoC4/CyFlash.c **** *   PSoC 4200 BLE devices with 256K of Flash memory are not affected), this API
  78:.\Generated_Source\PSoC4/CyFlash.c **** *   will automatically modify the clock settings for the device. Writing to
  79:.\Generated_Source\PSoC4/CyFlash.c **** *   flash requires that changes be made to the IMO and HFCLK settings. The
  80:.\Generated_Source\PSoC4/CyFlash.c **** *   configuration is restored before returning. This will impact the operation
  81:.\Generated_Source\PSoC4/CyFlash.c **** *   of most of the hardware in the device.
  82:.\Generated_Source\PSoC4/CyFlash.c **** *
  83:.\Generated_Source\PSoC4/CyFlash.c **** *   For PSoC 4000 devices this API will automatically modify the clock settings
  84:.\Generated_Source\PSoC4/CyFlash.c **** *   for the device. Writing to flash requires that changes be made to the IMO
  85:.\Generated_Source\PSoC4/CyFlash.c **** *   and HFCLK settings. The configuration is restored before returning. HFCLK
  86:.\Generated_Source\PSoC4/CyFlash.c **** *   will have several frequency changes during the operation of this API between
  87:.\Generated_Source\PSoC4/CyFlash.c **** *   a minimum frequency of the current IMO frequency divided by 8 and a maximum
  88:.\Generated_Source\PSoC4/CyFlash.c **** *   frequency of 12 MHz. This will impact the operation of most of the hardware
  89:.\Generated_Source\PSoC4/CyFlash.c **** *   in the device.
ARM GAS  C:\Users\passw\AppData\Local\Temp\ccDo4DvH.s 			page 3


  90:.\Generated_Source\PSoC4/CyFlash.c **** *
  91:.\Generated_Source\PSoC4/CyFlash.c **** *******************************************************************************/
  92:.\Generated_Source\PSoC4/CyFlash.c **** uint32 CySysFlashWriteRow(uint32 rowNum, const uint8 rowData[])
  93:.\Generated_Source\PSoC4/CyFlash.c **** {
  26              		.loc 1 93 0
  27              		.cfi_startproc
  28 0000 90B5     		push	{r4, r7, lr}
  29              		.cfi_def_cfa_offset 12
  30              		.cfi_offset 4, -12
  31              		.cfi_offset 7, -8
  32              		.cfi_offset 14, -4
  33 0002 A9B0     		sub	sp, sp, #164
  34              		.cfi_def_cfa_offset 176
  35 0004 00AF     		add	r7, sp, #0
  36              		.cfi_def_cfa_register 7
  37 0006 7860     		str	r0, [r7, #4]
  38 0008 3960     		str	r1, [r7]
  94:.\Generated_Source\PSoC4/CyFlash.c ****     volatile uint32 retValue = CY_SYS_FLASH_SUCCESS;
  39              		.loc 1 94 0
  40 000a 0023     		mov	r3, #0
  41 000c 9822     		mov	r2, #152
  42 000e BA18     		add	r2, r7, r2
  43 0010 1360     		str	r3, [r2]
  95:.\Generated_Source\PSoC4/CyFlash.c ****     volatile uint32 clkCnfRetValue = CY_SYS_FLASH_SUCCESS;
  44              		.loc 1 95 0
  45 0012 0023     		mov	r3, #0
  46 0014 9422     		mov	r2, #148
  47 0016 BA18     		add	r2, r7, r2
  48 0018 1360     		str	r3, [r2]
  96:.\Generated_Source\PSoC4/CyFlash.c ****     volatile uint32 parameters[(CY_FLASH_SIZEOF_ROW + CY_FLASH_SRAM_ROM_DATA) / sizeof(uint32)];
  97:.\Generated_Source\PSoC4/CyFlash.c ****     uint8  interruptState;
  98:.\Generated_Source\PSoC4/CyFlash.c **** 
  99:.\Generated_Source\PSoC4/CyFlash.c ****     #if (CY_FLASH_CHECKSUM_WORKAROUND)
 100:.\Generated_Source\PSoC4/CyFlash.c ****         uint32 needChecksumWorkaround = 0u;
 101:.\Generated_Source\PSoC4/CyFlash.c ****         uint32 savedIndex = 0u;
 102:.\Generated_Source\PSoC4/CyFlash.c ****         uint32 savedValue = 0u;
 103:.\Generated_Source\PSoC4/CyFlash.c ****         uint32 checksum = 0u;
 104:.\Generated_Source\PSoC4/CyFlash.c ****         uint32 bits = 0u;
 105:.\Generated_Source\PSoC4/CyFlash.c ****         uint32 i;
 106:.\Generated_Source\PSoC4/CyFlash.c ****     #endif  /* (CY_FLASH_CHECKSUM_WORKAROUND) */
 107:.\Generated_Source\PSoC4/CyFlash.c **** 
 108:.\Generated_Source\PSoC4/CyFlash.c ****     if ((rowNum < CY_FLASH_NUMBER_ROWS) && (rowData != 0u))
  49              		.loc 1 108 0
  50 001a 7B68     		ldr	r3, [r7, #4]
  51 001c 484A     		ldr	r2, .L14
  52 001e 9342     		cmp	r3, r2
  53 0020 00D9     		bls	.LCB26
  54 0022 81E0     		b	.L2	@long jump
  55              	.LCB26:
  56              		.loc 1 108 0 is_stmt 0 discriminator 1
  57 0024 3B68     		ldr	r3, [r7]
  58 0026 002B     		cmp	r3, #0
  59 0028 00D1     		bne	.LCB29
  60 002a 7DE0     		b	.L2	@long jump
  61              	.LCB29:
 109:.\Generated_Source\PSoC4/CyFlash.c ****     {
 110:.\Generated_Source\PSoC4/CyFlash.c ****         /* Copy data to be written into internal variable */
ARM GAS  C:\Users\passw\AppData\Local\Temp\ccDo4DvH.s 			page 4


 111:.\Generated_Source\PSoC4/CyFlash.c ****         (void)memcpy((void *)&parameters[2u], rowData, CY_FLASH_SIZEOF_ROW);
  62              		.loc 1 111 0 is_stmt 1
  63 002c 0C23     		mov	r3, #12
  64 002e FB18     		add	r3, r7, r3
  65 0030 0833     		add	r3, r3, #8
  66 0032 1A1C     		mov	r2, r3
  67 0034 3B68     		ldr	r3, [r7]
  68 0036 101C     		mov	r0, r2
  69 0038 191C     		mov	r1, r3
  70 003a 8022     		mov	r2, #128
  71 003c FFF7FEFF 		bl	memcpy
 112:.\Generated_Source\PSoC4/CyFlash.c **** 
 113:.\Generated_Source\PSoC4/CyFlash.c ****         #if (CY_FLASH_CHECKSUM_WORKAROUND)
 114:.\Generated_Source\PSoC4/CyFlash.c **** 
 115:.\Generated_Source\PSoC4/CyFlash.c ****             for (i = 2u; i < ((CY_FLASH_SIZEOF_ROW / sizeof(uint32)) + 2u); i++)
 116:.\Generated_Source\PSoC4/CyFlash.c ****             {
 117:.\Generated_Source\PSoC4/CyFlash.c ****                 uint32 tmp = parameters[i];
 118:.\Generated_Source\PSoC4/CyFlash.c ****                 if (tmp != 0u)
 119:.\Generated_Source\PSoC4/CyFlash.c ****                 {
 120:.\Generated_Source\PSoC4/CyFlash.c ****                     checksum += tmp;
 121:.\Generated_Source\PSoC4/CyFlash.c ****                     bits |= tmp;
 122:.\Generated_Source\PSoC4/CyFlash.c ****                     savedIndex = i;
 123:.\Generated_Source\PSoC4/CyFlash.c ****                 }
 124:.\Generated_Source\PSoC4/CyFlash.c ****             }
 125:.\Generated_Source\PSoC4/CyFlash.c **** 
 126:.\Generated_Source\PSoC4/CyFlash.c ****             needChecksumWorkaround = ((checksum == 0u) && (bits != 0u)) ? 1u : 0u;
 127:.\Generated_Source\PSoC4/CyFlash.c ****             if (needChecksumWorkaround != 0u)
 128:.\Generated_Source\PSoC4/CyFlash.c ****             {
 129:.\Generated_Source\PSoC4/CyFlash.c ****                 savedValue = parameters[savedIndex];
 130:.\Generated_Source\PSoC4/CyFlash.c ****                 parameters[savedIndex] = 0u;
 131:.\Generated_Source\PSoC4/CyFlash.c ****             }
 132:.\Generated_Source\PSoC4/CyFlash.c ****         #endif  /* (CY_FLASH_CHECKSUM_WORKAROUND) */
 133:.\Generated_Source\PSoC4/CyFlash.c **** 
 134:.\Generated_Source\PSoC4/CyFlash.c ****         /* Load Flash Bytes */
 135:.\Generated_Source\PSoC4/CyFlash.c ****         parameters[0u] = (uint32) (CY_FLASH_GET_MACRO_FROM_ROW(rowNum)        << CY_FLASH_PARAM_MAC
 136:.\Generated_Source\PSoC4/CyFlash.c ****                          (uint32) (CY_FLASH_PAGE_LATCH_START_ADDR             << CY_FLASH_PARAM_ADD
 137:.\Generated_Source\PSoC4/CyFlash.c ****                          (uint32) (CY_FLASH_KEY_TWO(CY_FLASH_API_OPCODE_LOAD) << CY_FLASH_PARAM_KEY
  72              		.loc 1 137 0
  73 0040 7B68     		ldr	r3, [r7, #4]
  74 0042 404A     		ldr	r2, .L14+4
  75 0044 9342     		cmp	r3, r2
  76 0046 01D9     		bls	.L3
  77              		.loc 1 137 0 is_stmt 0 discriminator 1
  78 0048 3F4A     		ldr	r2, .L14+8
  79 004a 00E0     		b	.L4
  80              	.L3:
  81              		.loc 1 137 0 discriminator 2
  82 004c 3F4A     		ldr	r2, .L14+12
  83              	.L4:
 135:.\Generated_Source\PSoC4/CyFlash.c ****                          (uint32) (CY_FLASH_PAGE_LATCH_START_ADDR             << CY_FLASH_PARAM_ADD
  84              		.loc 1 135 0 is_stmt 1
  85 004e 0C23     		mov	r3, #12
  86 0050 FB18     		add	r3, r7, r3
  87 0052 1A60     		str	r2, [r3]
 138:.\Generated_Source\PSoC4/CyFlash.c ****                          CY_FLASH_KEY_ONE;
 139:.\Generated_Source\PSoC4/CyFlash.c ****         parameters[1u] = CY_FLASH_SIZEOF_ROW - 1u;
  88              		.loc 1 139 0
ARM GAS  C:\Users\passw\AppData\Local\Temp\ccDo4DvH.s 			page 5


  89 0054 0C23     		mov	r3, #12
  90 0056 FB18     		add	r3, r7, r3
  91 0058 7F22     		mov	r2, #127
  92 005a 5A60     		str	r2, [r3, #4]
 140:.\Generated_Source\PSoC4/CyFlash.c **** 
 141:.\Generated_Source\PSoC4/CyFlash.c ****         CY_FLASH_CPUSS_SYSARG_REG = (uint32) &parameters[0u];
  93              		.loc 1 141 0
  94 005c 3C4B     		ldr	r3, .L14+16
  95 005e 0C22     		mov	r2, #12
  96 0060 BA18     		add	r2, r7, r2
  97 0062 1A60     		str	r2, [r3]
 142:.\Generated_Source\PSoC4/CyFlash.c ****         CY_FLASH_CPUSS_SYSREQ_REG = CY_FLASH_CPUSS_REQ_START | CY_FLASH_API_OPCODE_LOAD;
  98              		.loc 1 142 0
  99 0064 3B4B     		ldr	r3, .L14+20
 100 0066 3C4A     		ldr	r2, .L14+24
 101 0068 1A60     		str	r2, [r3]
 143:.\Generated_Source\PSoC4/CyFlash.c ****         retValue = CY_FLASH_API_RETURN;
 102              		.loc 1 143 0
 103 006a 394B     		ldr	r3, .L14+16
 104 006c 1B68     		ldr	r3, [r3]
 105 006e 1B0F     		lsr	r3, r3, #28
 106 0070 1A07     		lsl	r2, r3, #28
 107 0072 A023     		mov	r3, #160
 108 0074 1B06     		lsl	r3, r3, #24
 109 0076 9A42     		cmp	r2, r3
 110 0078 04D0     		beq	.L5
 111              		.loc 1 143 0 is_stmt 0 discriminator 1
 112 007a 354B     		ldr	r3, .L14+16
 113 007c 1B68     		ldr	r3, [r3]
 114 007e 0F22     		mov	r2, #15
 115 0080 1340     		and	r3, r2
 116 0082 00E0     		b	.L6
 117              	.L5:
 118              		.loc 1 143 0 discriminator 2
 119 0084 0023     		mov	r3, #0
 120              	.L6:
 121              		.loc 1 143 0 discriminator 4
 122 0086 9822     		mov	r2, #152
 123 0088 BA18     		add	r2, r7, r2
 124 008a 1360     		str	r3, [r2]
 144:.\Generated_Source\PSoC4/CyFlash.c **** 
 145:.\Generated_Source\PSoC4/CyFlash.c ****         if(retValue == CY_SYS_FLASH_SUCCESS)
 125              		.loc 1 145 0 is_stmt 1 discriminator 4
 126 008c 9823     		mov	r3, #152
 127 008e FB18     		add	r3, r7, r3
 128 0090 1B68     		ldr	r3, [r3]
 129 0092 002B     		cmp	r3, #0
 130 0094 47D1     		bne	.L7
 146:.\Generated_Source\PSoC4/CyFlash.c ****         {
 147:.\Generated_Source\PSoC4/CyFlash.c ****             /***************************************************************
 148:.\Generated_Source\PSoC4/CyFlash.c ****             * Mask all the exceptions to guarantee that Flash write will
 149:.\Generated_Source\PSoC4/CyFlash.c ****             * occur in the atomic way. It will not affect system call
 150:.\Generated_Source\PSoC4/CyFlash.c ****             * execution (flash row write) since it is executed in the NMI
 151:.\Generated_Source\PSoC4/CyFlash.c ****             * context.
 152:.\Generated_Source\PSoC4/CyFlash.c ****             ***************************************************************/
 153:.\Generated_Source\PSoC4/CyFlash.c ****             interruptState = CyEnterCriticalSection();
 131              		.loc 1 153 0
ARM GAS  C:\Users\passw\AppData\Local\Temp\ccDo4DvH.s 			page 6


 132 0096 9F23     		mov	r3, #159
 133 0098 FC18     		add	r4, r7, r3
 134 009a FFF7FEFF 		bl	CyEnterCriticalSection
 135 009e 031C     		mov	r3, r0
 136 00a0 2370     		strb	r3, [r4]
 154:.\Generated_Source\PSoC4/CyFlash.c **** 
 155:.\Generated_Source\PSoC4/CyFlash.c ****             clkCnfRetValue = CySysFlashClockBackup();
 137              		.loc 1 155 0
 138 00a2 FFF7FEFF 		bl	CySysFlashClockBackup
 139 00a6 031C     		mov	r3, r0
 140 00a8 9422     		mov	r2, #148
 141 00aa BA18     		add	r2, r7, r2
 142 00ac 1360     		str	r3, [r2]
 156:.\Generated_Source\PSoC4/CyFlash.c **** 
 157:.\Generated_Source\PSoC4/CyFlash.c ****         #if(CY_IP_SPCIF_SYNCHRONOUS)
 158:.\Generated_Source\PSoC4/CyFlash.c ****             if(clkCnfRetValue == CY_SYS_FLASH_SUCCESS)
 159:.\Generated_Source\PSoC4/CyFlash.c ****             {
 160:.\Generated_Source\PSoC4/CyFlash.c ****                 retValue = CySysFlashClockConfig();
 161:.\Generated_Source\PSoC4/CyFlash.c ****             }
 162:.\Generated_Source\PSoC4/CyFlash.c ****         #endif  /* (CY_IP_SPCIF_SYNCHRONOUS) */
 163:.\Generated_Source\PSoC4/CyFlash.c **** 
 164:.\Generated_Source\PSoC4/CyFlash.c ****             if(retValue == CY_SYS_FLASH_SUCCESS)
 143              		.loc 1 164 0
 144 00ae 9823     		mov	r3, #152
 145 00b0 FB18     		add	r3, r7, r3
 146 00b2 1B68     		ldr	r3, [r3]
 147 00b4 002B     		cmp	r3, #0
 148 00b6 24D1     		bne	.L8
 165:.\Generated_Source\PSoC4/CyFlash.c ****             {
 166:.\Generated_Source\PSoC4/CyFlash.c ****                 /* Write Row */
 167:.\Generated_Source\PSoC4/CyFlash.c ****                 parameters[0u]  = (uint32) (((uint32) CY_FLASH_KEY_TWO(CY_FLASH_API_OPCODE_WRITE_RO
 149              		.loc 1 167 0
 150 00b8 0C23     		mov	r3, #12
 151 00ba FB18     		add	r3, r7, r3
 152 00bc 274A     		ldr	r2, .L14+28
 153 00be 1A60     		str	r2, [r3]
 168:.\Generated_Source\PSoC4/CyFlash.c ****                 parameters[0u] |= (uint32)(rowNum << 16u);
 154              		.loc 1 168 0
 155 00c0 0C23     		mov	r3, #12
 156 00c2 FB18     		add	r3, r7, r3
 157 00c4 1A68     		ldr	r2, [r3]
 158 00c6 7B68     		ldr	r3, [r7, #4]
 159 00c8 1B04     		lsl	r3, r3, #16
 160 00ca 1A43     		orr	r2, r3
 161 00cc 0C23     		mov	r3, #12
 162 00ce FB18     		add	r3, r7, r3
 163 00d0 1A60     		str	r2, [r3]
 169:.\Generated_Source\PSoC4/CyFlash.c **** 
 170:.\Generated_Source\PSoC4/CyFlash.c ****                 CY_FLASH_CPUSS_SYSARG_REG = (uint32) &parameters[0u];
 164              		.loc 1 170 0
 165 00d2 1F4B     		ldr	r3, .L14+16
 166 00d4 0C22     		mov	r2, #12
 167 00d6 BA18     		add	r2, r7, r2
 168 00d8 1A60     		str	r2, [r3]
 171:.\Generated_Source\PSoC4/CyFlash.c ****                 CY_FLASH_CPUSS_SYSREQ_REG = CY_FLASH_CPUSS_REQ_START | CY_FLASH_API_OPCODE_WRITE_RO
 169              		.loc 1 171 0
 170 00da 1E4B     		ldr	r3, .L14+20
ARM GAS  C:\Users\passw\AppData\Local\Temp\ccDo4DvH.s 			page 7


 171 00dc 204A     		ldr	r2, .L14+32
 172 00de 1A60     		str	r2, [r3]
 172:.\Generated_Source\PSoC4/CyFlash.c ****                 retValue = CY_FLASH_API_RETURN;
 173              		.loc 1 172 0
 174 00e0 1B4B     		ldr	r3, .L14+16
 175 00e2 1B68     		ldr	r3, [r3]
 176 00e4 1B0F     		lsr	r3, r3, #28
 177 00e6 1A07     		lsl	r2, r3, #28
 178 00e8 A023     		mov	r3, #160
 179 00ea 1B06     		lsl	r3, r3, #24
 180 00ec 9A42     		cmp	r2, r3
 181 00ee 04D0     		beq	.L9
 182              		.loc 1 172 0 is_stmt 0 discriminator 1
 183 00f0 174B     		ldr	r3, .L14+16
 184 00f2 1B68     		ldr	r3, [r3]
 185 00f4 0F22     		mov	r2, #15
 186 00f6 1340     		and	r3, r2
 187 00f8 00E0     		b	.L10
 188              	.L9:
 189              		.loc 1 172 0 discriminator 2
 190 00fa 0023     		mov	r3, #0
 191              	.L10:
 192              		.loc 1 172 0 discriminator 4
 193 00fc 9822     		mov	r2, #152
 194 00fe BA18     		add	r2, r7, r2
 195 0100 1360     		str	r3, [r2]
 196              	.L8:
 173:.\Generated_Source\PSoC4/CyFlash.c ****             }
 174:.\Generated_Source\PSoC4/CyFlash.c **** 
 175:.\Generated_Source\PSoC4/CyFlash.c ****             #if (CY_FLASH_CHECKSUM_WORKAROUND)
 176:.\Generated_Source\PSoC4/CyFlash.c **** 
 177:.\Generated_Source\PSoC4/CyFlash.c ****                 if ((retValue == CYRET_SUCCESS) && (needChecksumWorkaround != 0u))
 178:.\Generated_Source\PSoC4/CyFlash.c ****                 {
 179:.\Generated_Source\PSoC4/CyFlash.c ****                     (void)memset((void *)&parameters[2u], 0, CY_FLASH_SIZEOF_ROW);
 180:.\Generated_Source\PSoC4/CyFlash.c ****                     parameters[savedIndex] = savedValue;
 181:.\Generated_Source\PSoC4/CyFlash.c **** 
 182:.\Generated_Source\PSoC4/CyFlash.c ****                     /* Load Flash Bytes */
 183:.\Generated_Source\PSoC4/CyFlash.c ****                     parameters[0u] = (uint32) (CY_FLASH_GET_MACRO_FROM_ROW(rowNum)        << CY_FLA
 184:.\Generated_Source\PSoC4/CyFlash.c ****                                      (uint32) (CY_FLASH_PAGE_LATCH_START_ADDR             << CY_FLA
 185:.\Generated_Source\PSoC4/CyFlash.c ****                                      (uint32) (CY_FLASH_KEY_TWO(CY_FLASH_API_OPCODE_LOAD) << CY_FLA
 186:.\Generated_Source\PSoC4/CyFlash.c ****                                      CY_FLASH_KEY_ONE;
 187:.\Generated_Source\PSoC4/CyFlash.c ****                     parameters[1u] = CY_FLASH_SIZEOF_ROW - 1u;
 188:.\Generated_Source\PSoC4/CyFlash.c **** 
 189:.\Generated_Source\PSoC4/CyFlash.c ****                     CY_FLASH_CPUSS_SYSARG_REG = (uint32) &parameters[0u];
 190:.\Generated_Source\PSoC4/CyFlash.c ****                     CY_FLASH_CPUSS_SYSREQ_REG = CY_FLASH_CPUSS_REQ_START | CY_FLASH_API_OPCODE_LOAD
 191:.\Generated_Source\PSoC4/CyFlash.c ****                     retValue = CY_FLASH_API_RETURN;
 192:.\Generated_Source\PSoC4/CyFlash.c **** 
 193:.\Generated_Source\PSoC4/CyFlash.c **** 
 194:.\Generated_Source\PSoC4/CyFlash.c ****                     if(retValue == CY_SYS_FLASH_SUCCESS)
 195:.\Generated_Source\PSoC4/CyFlash.c ****                     {
 196:.\Generated_Source\PSoC4/CyFlash.c ****                         /* Program Row */
 197:.\Generated_Source\PSoC4/CyFlash.c ****                         parameters[0u]  =
 198:.\Generated_Source\PSoC4/CyFlash.c ****                             (uint32) (((uint32) CY_FLASH_KEY_TWO(CY_FLASH_API_OPCODE_PROGRAM_ROW) <
 199:.\Generated_Source\PSoC4/CyFlash.c ****                                                     CY_FLASH_PARAM_KEY_TWO_OFFSET) | CY_FLASH_KEY_O
 200:.\Generated_Source\PSoC4/CyFlash.c ****                         parameters[0u] |= (uint32)(rowNum << 16u);
 201:.\Generated_Source\PSoC4/CyFlash.c **** 
 202:.\Generated_Source\PSoC4/CyFlash.c ****                         CY_FLASH_CPUSS_SYSARG_REG = (uint32) &parameters[0u];
ARM GAS  C:\Users\passw\AppData\Local\Temp\ccDo4DvH.s 			page 8


 203:.\Generated_Source\PSoC4/CyFlash.c ****                         CY_FLASH_CPUSS_SYSREQ_REG = CY_FLASH_CPUSS_REQ_START | CY_FLASH_API_OPCODE_
 204:.\Generated_Source\PSoC4/CyFlash.c ****                         retValue = CY_FLASH_API_RETURN;
 205:.\Generated_Source\PSoC4/CyFlash.c ****                     }
 206:.\Generated_Source\PSoC4/CyFlash.c ****                 }
 207:.\Generated_Source\PSoC4/CyFlash.c ****             #endif  /* (CY_FLASH_CHECKSUM_WORKAROUND) */
 208:.\Generated_Source\PSoC4/CyFlash.c **** 
 209:.\Generated_Source\PSoC4/CyFlash.c ****             if(clkCnfRetValue == CY_SYS_FLASH_SUCCESS)
 197              		.loc 1 209 0 is_stmt 1
 198 0102 9423     		mov	r3, #148
 199 0104 FB18     		add	r3, r7, r3
 200 0106 1B68     		ldr	r3, [r3]
 201 0108 002B     		cmp	r3, #0
 202 010a 05D1     		bne	.L11
 210:.\Generated_Source\PSoC4/CyFlash.c ****             {
 211:.\Generated_Source\PSoC4/CyFlash.c ****                 clkCnfRetValue = CySysFlashClockRestore();
 203              		.loc 1 211 0
 204 010c FFF7FEFF 		bl	CySysFlashClockRestore
 205 0110 031C     		mov	r3, r0
 206 0112 9422     		mov	r2, #148
 207 0114 BA18     		add	r2, r7, r2
 208 0116 1360     		str	r3, [r2]
 209              	.L11:
 212:.\Generated_Source\PSoC4/CyFlash.c ****             }
 213:.\Generated_Source\PSoC4/CyFlash.c **** 
 214:.\Generated_Source\PSoC4/CyFlash.c ****             CyExitCriticalSection(interruptState);
 210              		.loc 1 214 0
 211 0118 9F23     		mov	r3, #159
 212 011a FB18     		add	r3, r7, r3
 213 011c 1B78     		ldrb	r3, [r3]
 214 011e 181C     		mov	r0, r3
 215 0120 FFF7FEFF 		bl	CyExitCriticalSection
 145:.\Generated_Source\PSoC4/CyFlash.c ****         {
 216              		.loc 1 145 0
 217 0124 04E0     		b	.L12
 218              	.L7:
 219 0126 03E0     		b	.L12
 220              	.L2:
 215:.\Generated_Source\PSoC4/CyFlash.c ****         }
 216:.\Generated_Source\PSoC4/CyFlash.c ****     }
 217:.\Generated_Source\PSoC4/CyFlash.c ****     else
 218:.\Generated_Source\PSoC4/CyFlash.c ****     {
 219:.\Generated_Source\PSoC4/CyFlash.c ****         retValue = CY_SYS_FLASH_INVALID_ADDR;
 221              		.loc 1 219 0
 222 0128 0423     		mov	r3, #4
 223 012a 9822     		mov	r2, #152
 224 012c BA18     		add	r2, r7, r2
 225 012e 1360     		str	r3, [r2]
 226              	.L12:
 220:.\Generated_Source\PSoC4/CyFlash.c ****     }
 221:.\Generated_Source\PSoC4/CyFlash.c **** 
 222:.\Generated_Source\PSoC4/CyFlash.c ****     return (retValue);
 227              		.loc 1 222 0
 228 0130 9823     		mov	r3, #152
 229 0132 FB18     		add	r3, r7, r3
 230 0134 1B68     		ldr	r3, [r3]
 223:.\Generated_Source\PSoC4/CyFlash.c **** }
 231              		.loc 1 223 0
ARM GAS  C:\Users\passw\AppData\Local\Temp\ccDo4DvH.s 			page 9


 232 0136 181C     		mov	r0, r3
 233 0138 BD46     		mov	sp, r7
 234 013a 29B0     		add	sp, sp, #164
 235              		@ sp needed
 236 013c 90BD     		pop	{r4, r7, pc}
 237              	.L15:
 238 013e C046     		.align	2
 239              	.L14:
 240 0140 FF030000 		.word	1023
 241 0144 FF010000 		.word	511
 242 0148 B6D70001 		.word	16832438
 243 014c B6D70000 		.word	55222
 244 0150 08001040 		.word	1074790408
 245 0154 04001040 		.word	1074790404
 246 0158 04000080 		.word	-2147483644
 247 015c B6D80000 		.word	55478
 248 0160 05000080 		.word	-2147483643
 249              		.cfi_endproc
 250              	.LFE1:
 251              		.size	CySysFlashWriteRow, .-CySysFlashWriteRow
 252              		.section	.text.CySysFlashSetWaitCycles,"ax",%progbits
 253              		.align	2
 254              		.global	CySysFlashSetWaitCycles
 255              		.code	16
 256              		.thumb_func
 257              		.type	CySysFlashSetWaitCycles, %function
 258              	CySysFlashSetWaitCycles:
 259              	.LFB2:
 224:.\Generated_Source\PSoC4/CyFlash.c **** 
 225:.\Generated_Source\PSoC4/CyFlash.c **** 
 226:.\Generated_Source\PSoC4/CyFlash.c **** /*******************************************************************************
 227:.\Generated_Source\PSoC4/CyFlash.c **** * Function Name: CySysFlashSetWaitCycles
 228:.\Generated_Source\PSoC4/CyFlash.c **** ********************************************************************************
 229:.\Generated_Source\PSoC4/CyFlash.c **** *
 230:.\Generated_Source\PSoC4/CyFlash.c **** * Summary:
 231:.\Generated_Source\PSoC4/CyFlash.c **** *  Sets the number of clock cycles the cache will wait before it samples data
 232:.\Generated_Source\PSoC4/CyFlash.c **** *  coming back from Flash. This function must be called before increasing the
 233:.\Generated_Source\PSoC4/CyFlash.c **** *  SYSCLK clock frequency. It can optionally be called after lowering SYSCLK
 234:.\Generated_Source\PSoC4/CyFlash.c **** *  clock frequency in order to improve the CPU performance.
 235:.\Generated_Source\PSoC4/CyFlash.c **** *
 236:.\Generated_Source\PSoC4/CyFlash.c **** * Parameters:
 237:.\Generated_Source\PSoC4/CyFlash.c **** *  freq: The System clock frequency in MHz. Note: Invalid frequency will be
 238:.\Generated_Source\PSoC4/CyFlash.c **** *  ignored in Release mode and the CPU will be halted if project is compiled in
 239:.\Generated_Source\PSoC4/CyFlash.c **** *  Debug mode.
 240:.\Generated_Source\PSoC4/CyFlash.c **** *
 241:.\Generated_Source\PSoC4/CyFlash.c **** * Return:
 242:.\Generated_Source\PSoC4/CyFlash.c **** *  None
 243:.\Generated_Source\PSoC4/CyFlash.c **** *
 244:.\Generated_Source\PSoC4/CyFlash.c **** *******************************************************************************/
 245:.\Generated_Source\PSoC4/CyFlash.c **** void CySysFlashSetWaitCycles(uint32 freq)
 246:.\Generated_Source\PSoC4/CyFlash.c **** {
 260              		.loc 1 246 0
 261              		.cfi_startproc
 262 0000 90B5     		push	{r4, r7, lr}
 263              		.cfi_def_cfa_offset 12
 264              		.cfi_offset 4, -12
 265              		.cfi_offset 7, -8
ARM GAS  C:\Users\passw\AppData\Local\Temp\ccDo4DvH.s 			page 10


 266              		.cfi_offset 14, -4
 267 0002 85B0     		sub	sp, sp, #20
 268              		.cfi_def_cfa_offset 32
 269 0004 00AF     		add	r7, sp, #0
 270              		.cfi_def_cfa_register 7
 271 0006 7860     		str	r0, [r7, #4]
 247:.\Generated_Source\PSoC4/CyFlash.c ****     uint8  interruptState;
 248:.\Generated_Source\PSoC4/CyFlash.c **** 
 249:.\Generated_Source\PSoC4/CyFlash.c ****     interruptState = CyEnterCriticalSection();
 272              		.loc 1 249 0
 273 0008 0F23     		mov	r3, #15
 274 000a FC18     		add	r4, r7, r3
 275 000c FFF7FEFF 		bl	CyEnterCriticalSection
 276 0010 031C     		mov	r3, r0
 277 0012 2370     		strb	r3, [r4]
 250:.\Generated_Source\PSoC4/CyFlash.c **** 
 251:.\Generated_Source\PSoC4/CyFlash.c ****     #if (CY_IP_CPUSS)
 252:.\Generated_Source\PSoC4/CyFlash.c **** 
 253:.\Generated_Source\PSoC4/CyFlash.c ****         if ( freq <= CY_FLASH_SYSCLK_BOUNDARY_MHZ )
 254:.\Generated_Source\PSoC4/CyFlash.c ****         {
 255:.\Generated_Source\PSoC4/CyFlash.c ****             CY_SYS_CLK_SELECT_REG &= (uint32)(~CY_FLASH_WAIT_STATE_EN);
 256:.\Generated_Source\PSoC4/CyFlash.c ****         }
 257:.\Generated_Source\PSoC4/CyFlash.c ****         else
 258:.\Generated_Source\PSoC4/CyFlash.c ****         {
 259:.\Generated_Source\PSoC4/CyFlash.c ****             CY_SYS_CLK_SELECT_REG |= CY_FLASH_WAIT_STATE_EN;
 260:.\Generated_Source\PSoC4/CyFlash.c ****         }
 261:.\Generated_Source\PSoC4/CyFlash.c ****     #else /* CY_IP_CPUSSV2 */
 262:.\Generated_Source\PSoC4/CyFlash.c **** 
 263:.\Generated_Source\PSoC4/CyFlash.c ****         /* CY_IP_FM and CY_IP_FS */
 264:.\Generated_Source\PSoC4/CyFlash.c ****         if (freq <= CY_FLASH_CTL_WS_0_FREQ_MAX)
 278              		.loc 1 264 0
 279 0014 7B68     		ldr	r3, [r7, #4]
 280 0016 102B     		cmp	r3, #16
 281 0018 06D8     		bhi	.L17
 265:.\Generated_Source\PSoC4/CyFlash.c ****         {
 266:.\Generated_Source\PSoC4/CyFlash.c ****             CY_FLASH_CTL_REG = (CY_FLASH_CTL_REG & ~CY_FLASH_CTL_WS_MASK) | CY_FLASH_CTL_WS_0_VALUE
 282              		.loc 1 266 0
 283 001a 154B     		ldr	r3, .L21
 284 001c 144A     		ldr	r2, .L21
 285 001e 1268     		ldr	r2, [r2]
 286 0020 0321     		mov	r1, #3
 287 0022 8A43     		bic	r2, r1
 288 0024 1A60     		str	r2, [r3]
 289 0026 1AE0     		b	.L18
 290              	.L17:
 267:.\Generated_Source\PSoC4/CyFlash.c ****         } else
 268:.\Generated_Source\PSoC4/CyFlash.c ****         if (freq <= CY_FLASH_CTL_WS_1_FREQ_MAX)
 291              		.loc 1 268 0
 292 0028 7B68     		ldr	r3, [r7, #4]
 293 002a 202B     		cmp	r3, #32
 294 002c 08D8     		bhi	.L19
 269:.\Generated_Source\PSoC4/CyFlash.c ****         {
 270:.\Generated_Source\PSoC4/CyFlash.c ****             CY_FLASH_CTL_REG = (CY_FLASH_CTL_REG & ~CY_FLASH_CTL_WS_MASK) | CY_FLASH_CTL_WS_1_VALUE
 295              		.loc 1 270 0
 296 002e 104B     		ldr	r3, .L21
 297 0030 0F4A     		ldr	r2, .L21
 298 0032 1268     		ldr	r2, [r2]
ARM GAS  C:\Users\passw\AppData\Local\Temp\ccDo4DvH.s 			page 11


 299 0034 0321     		mov	r1, #3
 300 0036 8A43     		bic	r2, r1
 301 0038 0121     		mov	r1, #1
 302 003a 0A43     		orr	r2, r1
 303 003c 1A60     		str	r2, [r3]
 304 003e 0EE0     		b	.L18
 305              	.L19:
 271:.\Generated_Source\PSoC4/CyFlash.c ****         } else
 272:.\Generated_Source\PSoC4/CyFlash.c ****     #if (CY_IP_FMLT || CY_IP_FSLT)
 273:.\Generated_Source\PSoC4/CyFlash.c ****         if (freq <= CY_FLASH_CTL_WS_2_FREQ_MAX)
 306              		.loc 1 273 0
 307 0040 7B68     		ldr	r3, [r7, #4]
 308 0042 302B     		cmp	r3, #48
 309 0044 08D8     		bhi	.L20
 274:.\Generated_Source\PSoC4/CyFlash.c ****         {
 275:.\Generated_Source\PSoC4/CyFlash.c ****             CY_FLASH_CTL_REG = (CY_FLASH_CTL_REG & ~CY_FLASH_CTL_WS_MASK) | CY_FLASH_CTL_WS_2_VALUE
 310              		.loc 1 275 0
 311 0046 0A4B     		ldr	r3, .L21
 312 0048 094A     		ldr	r2, .L21
 313 004a 1268     		ldr	r2, [r2]
 314 004c 0321     		mov	r1, #3
 315 004e 8A43     		bic	r2, r1
 316 0050 0221     		mov	r1, #2
 317 0052 0A43     		orr	r2, r1
 318 0054 1A60     		str	r2, [r3]
 319 0056 02E0     		b	.L18
 320              	.L20:
 276:.\Generated_Source\PSoC4/CyFlash.c ****         }
 277:.\Generated_Source\PSoC4/CyFlash.c ****         else
 278:.\Generated_Source\PSoC4/CyFlash.c ****     #endif  /* (CY_IP_FMLT || CY_IP_FSLT) */
 279:.\Generated_Source\PSoC4/CyFlash.c ****         {
 280:.\Generated_Source\PSoC4/CyFlash.c ****             /* Halt CPU in debug mode if frequency is invalid */
 281:.\Generated_Source\PSoC4/CyFlash.c ****             CYASSERT(0u != 0u);
 321              		.loc 1 281 0 discriminator 1
 322 0058 0020     		mov	r0, #0
 323 005a FFF7FEFF 		bl	CyHalt
 324              	.L18:
 282:.\Generated_Source\PSoC4/CyFlash.c ****         }
 283:.\Generated_Source\PSoC4/CyFlash.c **** 
 284:.\Generated_Source\PSoC4/CyFlash.c ****     #endif  /* (CY_IP_CPUSS) */
 285:.\Generated_Source\PSoC4/CyFlash.c **** 
 286:.\Generated_Source\PSoC4/CyFlash.c ****     CyExitCriticalSection(interruptState);
 325              		.loc 1 286 0
 326 005e 0F23     		mov	r3, #15
 327 0060 FB18     		add	r3, r7, r3
 328 0062 1B78     		ldrb	r3, [r3]
 329 0064 181C     		mov	r0, r3
 330 0066 FFF7FEFF 		bl	CyExitCriticalSection
 287:.\Generated_Source\PSoC4/CyFlash.c **** }
 331              		.loc 1 287 0
 332 006a BD46     		mov	sp, r7
 333 006c 05B0     		add	sp, sp, #20
 334              		@ sp needed
 335 006e 90BD     		pop	{r4, r7, pc}
 336              	.L22:
 337              		.align	2
 338              	.L21:
ARM GAS  C:\Users\passw\AppData\Local\Temp\ccDo4DvH.s 			page 12


 339 0070 30001040 		.word	1074790448
 340              		.cfi_endproc
 341              	.LFE2:
 342              		.size	CySysFlashSetWaitCycles, .-CySysFlashSetWaitCycles
 343              		.section	.text.CySysSFlashWriteUserRow,"ax",%progbits
 344              		.align	2
 345              		.global	CySysSFlashWriteUserRow
 346              		.code	16
 347              		.thumb_func
 348              		.type	CySysSFlashWriteUserRow, %function
 349              	CySysSFlashWriteUserRow:
 350              	.LFB3:
 288:.\Generated_Source\PSoC4/CyFlash.c **** 
 289:.\Generated_Source\PSoC4/CyFlash.c **** #if (CY_SFLASH_XTRA_ROWS)
 290:.\Generated_Source\PSoC4/CyFlash.c **** /*******************************************************************************
 291:.\Generated_Source\PSoC4/CyFlash.c **** * Function Name: CySysSFlashWriteUserRow
 292:.\Generated_Source\PSoC4/CyFlash.c **** ********************************************************************************
 293:.\Generated_Source\PSoC4/CyFlash.c **** *
 294:.\Generated_Source\PSoC4/CyFlash.c **** * Summary:
 295:.\Generated_Source\PSoC4/CyFlash.c **** *  Writes data to a row of SFlash user configurable area.
 296:.\Generated_Source\PSoC4/CyFlash.c **** *
 297:.\Generated_Source\PSoC4/CyFlash.c **** *  This API is applicable for PSoC 4100 BLE, PSoC 4200 BLE, PSoC 4100M,
 298:.\Generated_Source\PSoC4/CyFlash.c **** *  PSoC 4200M, and PSoC 4200L family of devices.
 299:.\Generated_Source\PSoC4/CyFlash.c **** *
 300:.\Generated_Source\PSoC4/CyFlash.c **** * Parameters:
 301:.\Generated_Source\PSoC4/CyFlash.c **** *  uint16 rowNum:
 302:.\Generated_Source\PSoC4/CyFlash.c **** *   The flash row number. The flash row number. The number of the flash rows is
 303:.\Generated_Source\PSoC4/CyFlash.c **** *   defined by the CY_SFLASH_NUMBER_USERROWS macro for the selected device.
 304:.\Generated_Source\PSoC4/CyFlash.c **** *   Valid range is 0-3. Refer to the device TRM for details.
 305:.\Generated_Source\PSoC4/CyFlash.c **** *
 306:.\Generated_Source\PSoC4/CyFlash.c **** *  uint8* rowData:
 307:.\Generated_Source\PSoC4/CyFlash.c **** *   Array of bytes to write. The size of the array must be equal to the flash
 308:.\Generated_Source\PSoC4/CyFlash.c **** *   row size. The flash row size for the selected device is defined by the
 309:.\Generated_Source\PSoC4/CyFlash.c **** *   CY_SFLASH_SIZEOF_USERROW macro. Refer to the device TRM for the details.
 310:.\Generated_Source\PSoC4/CyFlash.c **** *
 311:.\Generated_Source\PSoC4/CyFlash.c **** * Return:
 312:.\Generated_Source\PSoC4/CyFlash.c **** *  Status
 313:.\Generated_Source\PSoC4/CyFlash.c **** *     Value                     Description
 314:.\Generated_Source\PSoC4/CyFlash.c **** *    CY_SYS_SFLASH_SUCCESS          Successful
 315:.\Generated_Source\PSoC4/CyFlash.c **** *    CY_SYS_SFLASH_INVALID_ADDR     Specified flash row address is invalid
 316:.\Generated_Source\PSoC4/CyFlash.c **** *    CY_SYS_SFLASH_PROTECTED        Specified flash row is protected
 317:.\Generated_Source\PSoC4/CyFlash.c **** *    Other non-zero                 Failure
 318:.\Generated_Source\PSoC4/CyFlash.c **** *
 319:.\Generated_Source\PSoC4/CyFlash.c **** *******************************************************************************/
 320:.\Generated_Source\PSoC4/CyFlash.c **** uint32 CySysSFlashWriteUserRow(uint32 rowNum, const uint8 rowData[])
 321:.\Generated_Source\PSoC4/CyFlash.c **** {
 351              		.loc 1 321 0
 352              		.cfi_startproc
 353 0000 90B5     		push	{r4, r7, lr}
 354              		.cfi_def_cfa_offset 12
 355              		.cfi_offset 4, -12
 356              		.cfi_offset 7, -8
 357              		.cfi_offset 14, -4
 358 0002 A9B0     		sub	sp, sp, #164
 359              		.cfi_def_cfa_offset 176
 360 0004 00AF     		add	r7, sp, #0
 361              		.cfi_def_cfa_register 7
ARM GAS  C:\Users\passw\AppData\Local\Temp\ccDo4DvH.s 			page 13


 362 0006 7860     		str	r0, [r7, #4]
 363 0008 3960     		str	r1, [r7]
 322:.\Generated_Source\PSoC4/CyFlash.c ****     volatile uint32 retValue = CY_SYS_FLASH_SUCCESS;
 364              		.loc 1 322 0
 365 000a 0023     		mov	r3, #0
 366 000c 9822     		mov	r2, #152
 367 000e BA18     		add	r2, r7, r2
 368 0010 1360     		str	r3, [r2]
 323:.\Generated_Source\PSoC4/CyFlash.c ****     volatile uint32 clkCnfRetValue = CY_SYS_FLASH_SUCCESS;
 369              		.loc 1 323 0
 370 0012 0023     		mov	r3, #0
 371 0014 9422     		mov	r2, #148
 372 0016 BA18     		add	r2, r7, r2
 373 0018 1360     		str	r3, [r2]
 324:.\Generated_Source\PSoC4/CyFlash.c ****     volatile uint32 parameters[(CY_FLASH_SIZEOF_ROW + CY_FLASH_SRAM_ROM_DATA)/4u];
 325:.\Generated_Source\PSoC4/CyFlash.c ****     uint8  interruptState;
 326:.\Generated_Source\PSoC4/CyFlash.c **** 
 327:.\Generated_Source\PSoC4/CyFlash.c **** 
 328:.\Generated_Source\PSoC4/CyFlash.c ****     if ((rowNum < CY_SFLASH_NUMBER_USERROWS) && (rowData != 0u))
 374              		.loc 1 328 0
 375 001a 7B68     		ldr	r3, [r7, #4]
 376 001c 032B     		cmp	r3, #3
 377 001e 00D9     		bls	.LCB323
 378 0020 7CE0     		b	.L24	@long jump
 379              	.LCB323:
 380              		.loc 1 328 0 is_stmt 0 discriminator 1
 381 0022 3B68     		ldr	r3, [r7]
 382 0024 002B     		cmp	r3, #0
 383 0026 00D1     		bne	.LCB326
 384 0028 78E0     		b	.L24	@long jump
 385              	.LCB326:
 329:.\Generated_Source\PSoC4/CyFlash.c ****     {
 330:.\Generated_Source\PSoC4/CyFlash.c ****         /* Load Flash Bytes */
 331:.\Generated_Source\PSoC4/CyFlash.c ****         parameters[0u] = (uint32) (CY_FLASH_GET_MACRO_FROM_ROW(rowNum)        << CY_FLASH_PARAM_MAC
 332:.\Generated_Source\PSoC4/CyFlash.c ****                          (uint32) (CY_FLASH_PAGE_LATCH_START_ADDR             << CY_FLASH_PARAM_ADD
 333:.\Generated_Source\PSoC4/CyFlash.c ****                          (uint32) (CY_FLASH_KEY_TWO(CY_FLASH_API_OPCODE_LOAD) << CY_FLASH_PARAM_KEY
 386              		.loc 1 333 0 is_stmt 1
 387 002a 7B68     		ldr	r3, [r7, #4]
 388 002c 414A     		ldr	r2, .L36
 389 002e 9342     		cmp	r3, r2
 390 0030 01D9     		bls	.L25
 391              		.loc 1 333 0 is_stmt 0 discriminator 1
 392 0032 414A     		ldr	r2, .L36+4
 393 0034 00E0     		b	.L26
 394              	.L25:
 395              		.loc 1 333 0 discriminator 2
 396 0036 414A     		ldr	r2, .L36+8
 397              	.L26:
 331:.\Generated_Source\PSoC4/CyFlash.c ****                          (uint32) (CY_FLASH_PAGE_LATCH_START_ADDR             << CY_FLASH_PARAM_ADD
 398              		.loc 1 331 0 is_stmt 1
 399 0038 0C23     		mov	r3, #12
 400 003a FB18     		add	r3, r7, r3
 401 003c 1A60     		str	r2, [r3]
 334:.\Generated_Source\PSoC4/CyFlash.c ****                          CY_FLASH_KEY_ONE;
 335:.\Generated_Source\PSoC4/CyFlash.c ****         parameters[1u] = CY_FLASH_SIZEOF_ROW - 1u;
 402              		.loc 1 335 0
 403 003e 0C23     		mov	r3, #12
ARM GAS  C:\Users\passw\AppData\Local\Temp\ccDo4DvH.s 			page 14


 404 0040 FB18     		add	r3, r7, r3
 405 0042 7F22     		mov	r2, #127
 406 0044 5A60     		str	r2, [r3, #4]
 336:.\Generated_Source\PSoC4/CyFlash.c **** 
 337:.\Generated_Source\PSoC4/CyFlash.c ****         (void)memcpy((void *)&parameters[2u], rowData, CY_FLASH_SIZEOF_ROW);
 407              		.loc 1 337 0
 408 0046 0C23     		mov	r3, #12
 409 0048 FB18     		add	r3, r7, r3
 410 004a 0833     		add	r3, r3, #8
 411 004c 1A1C     		mov	r2, r3
 412 004e 3B68     		ldr	r3, [r7]
 413 0050 101C     		mov	r0, r2
 414 0052 191C     		mov	r1, r3
 415 0054 8022     		mov	r2, #128
 416 0056 FFF7FEFF 		bl	memcpy
 338:.\Generated_Source\PSoC4/CyFlash.c ****         CY_FLASH_CPUSS_SYSARG_REG = (uint32) &parameters[0u];
 417              		.loc 1 338 0
 418 005a 394B     		ldr	r3, .L36+12
 419 005c 0C22     		mov	r2, #12
 420 005e BA18     		add	r2, r7, r2
 421 0060 1A60     		str	r2, [r3]
 339:.\Generated_Source\PSoC4/CyFlash.c ****         CY_FLASH_CPUSS_SYSREQ_REG = CY_FLASH_CPUSS_REQ_START | CY_FLASH_API_OPCODE_LOAD;
 422              		.loc 1 339 0
 423 0062 384B     		ldr	r3, .L36+16
 424 0064 384A     		ldr	r2, .L36+20
 425 0066 1A60     		str	r2, [r3]
 340:.\Generated_Source\PSoC4/CyFlash.c ****         retValue = CY_FLASH_API_RETURN;
 426              		.loc 1 340 0
 427 0068 354B     		ldr	r3, .L36+12
 428 006a 1B68     		ldr	r3, [r3]
 429 006c 1B0F     		lsr	r3, r3, #28
 430 006e 1A07     		lsl	r2, r3, #28
 431 0070 A023     		mov	r3, #160
 432 0072 1B06     		lsl	r3, r3, #24
 433 0074 9A42     		cmp	r2, r3
 434 0076 04D0     		beq	.L27
 435              		.loc 1 340 0 is_stmt 0 discriminator 1
 436 0078 314B     		ldr	r3, .L36+12
 437 007a 1B68     		ldr	r3, [r3]
 438 007c 0F22     		mov	r2, #15
 439 007e 1340     		and	r3, r2
 440 0080 00E0     		b	.L28
 441              	.L27:
 442              		.loc 1 340 0 discriminator 2
 443 0082 0023     		mov	r3, #0
 444              	.L28:
 445              		.loc 1 340 0 discriminator 4
 446 0084 9822     		mov	r2, #152
 447 0086 BA18     		add	r2, r7, r2
 448 0088 1360     		str	r3, [r2]
 341:.\Generated_Source\PSoC4/CyFlash.c **** 
 342:.\Generated_Source\PSoC4/CyFlash.c ****         if(retValue == CY_SYS_FLASH_SUCCESS)
 449              		.loc 1 342 0 is_stmt 1 discriminator 4
 450 008a 9823     		mov	r3, #152
 451 008c FB18     		add	r3, r7, r3
 452 008e 1B68     		ldr	r3, [r3]
 453 0090 002B     		cmp	r3, #0
ARM GAS  C:\Users\passw\AppData\Local\Temp\ccDo4DvH.s 			page 15


 454 0092 42D1     		bne	.L29
 343:.\Generated_Source\PSoC4/CyFlash.c ****         {
 344:.\Generated_Source\PSoC4/CyFlash.c ****             /***************************************************************
 345:.\Generated_Source\PSoC4/CyFlash.c ****             * Mask all the exceptions to guarantee that Flash write will
 346:.\Generated_Source\PSoC4/CyFlash.c ****             * occur in the atomic way. It will not affect system call
 347:.\Generated_Source\PSoC4/CyFlash.c ****             * execution (flash row write) since it is executed in the NMI
 348:.\Generated_Source\PSoC4/CyFlash.c ****             * context.
 349:.\Generated_Source\PSoC4/CyFlash.c ****             ***************************************************************/
 350:.\Generated_Source\PSoC4/CyFlash.c ****             interruptState = CyEnterCriticalSection();
 455              		.loc 1 350 0
 456 0094 9F23     		mov	r3, #159
 457 0096 FC18     		add	r4, r7, r3
 458 0098 FFF7FEFF 		bl	CyEnterCriticalSection
 459 009c 031C     		mov	r3, r0
 460 009e 2370     		strb	r3, [r4]
 351:.\Generated_Source\PSoC4/CyFlash.c **** 
 352:.\Generated_Source\PSoC4/CyFlash.c ****             clkCnfRetValue = CySysFlashClockBackup();
 461              		.loc 1 352 0
 462 00a0 FFF7FEFF 		bl	CySysFlashClockBackup
 463 00a4 031C     		mov	r3, r0
 464 00a6 9422     		mov	r2, #148
 465 00a8 BA18     		add	r2, r7, r2
 466 00aa 1360     		str	r3, [r2]
 353:.\Generated_Source\PSoC4/CyFlash.c **** 
 354:.\Generated_Source\PSoC4/CyFlash.c ****         #if(CY_IP_SPCIF_SYNCHRONOUS)
 355:.\Generated_Source\PSoC4/CyFlash.c ****             if(clkCnfRetValue == CY_SYS_FLASH_SUCCESS)
 356:.\Generated_Source\PSoC4/CyFlash.c ****             {
 357:.\Generated_Source\PSoC4/CyFlash.c ****                 retValue = CySysFlashClockConfig();
 358:.\Generated_Source\PSoC4/CyFlash.c ****             }
 359:.\Generated_Source\PSoC4/CyFlash.c ****         #endif  /* (CY_IP_SPCIF_SYNCHRONOUS) */
 360:.\Generated_Source\PSoC4/CyFlash.c **** 
 361:.\Generated_Source\PSoC4/CyFlash.c ****             if(retValue == CY_SYS_FLASH_SUCCESS)
 467              		.loc 1 361 0
 468 00ac 9823     		mov	r3, #152
 469 00ae FB18     		add	r3, r7, r3
 470 00b0 1B68     		ldr	r3, [r3]
 471 00b2 002B     		cmp	r3, #0
 472 00b4 1FD1     		bne	.L30
 362:.\Generated_Source\PSoC4/CyFlash.c ****             {
 363:.\Generated_Source\PSoC4/CyFlash.c ****                 /* Write User Sflash Row */
 364:.\Generated_Source\PSoC4/CyFlash.c ****                 parameters[0u]  = (uint32) (((uint32) CY_FLASH_KEY_TWO(CY_FLASH_API_OPCODE_WRITE_SF
 473              		.loc 1 364 0
 474 00b6 0C23     		mov	r3, #12
 475 00b8 FB18     		add	r3, r7, r3
 476 00ba 244A     		ldr	r2, .L36+24
 477 00bc 1A60     		str	r2, [r3]
 365:.\Generated_Source\PSoC4/CyFlash.c ****                 parameters[1u] = (uint32) rowNum;
 478              		.loc 1 365 0
 479 00be 0C23     		mov	r3, #12
 480 00c0 FB18     		add	r3, r7, r3
 481 00c2 7A68     		ldr	r2, [r7, #4]
 482 00c4 5A60     		str	r2, [r3, #4]
 366:.\Generated_Source\PSoC4/CyFlash.c **** 
 367:.\Generated_Source\PSoC4/CyFlash.c ****                 CY_FLASH_CPUSS_SYSARG_REG = (uint32) &parameters[0u];
 483              		.loc 1 367 0
 484 00c6 1E4B     		ldr	r3, .L36+12
 485 00c8 0C22     		mov	r2, #12
ARM GAS  C:\Users\passw\AppData\Local\Temp\ccDo4DvH.s 			page 16


 486 00ca BA18     		add	r2, r7, r2
 487 00cc 1A60     		str	r2, [r3]
 368:.\Generated_Source\PSoC4/CyFlash.c ****                 CY_FLASH_CPUSS_SYSREQ_REG = CY_FLASH_CPUSS_REQ_START | CY_FLASH_API_OPCODE_WRITE_SF
 488              		.loc 1 368 0
 489 00ce 1D4B     		ldr	r3, .L36+16
 490 00d0 1F4A     		ldr	r2, .L36+28
 491 00d2 1A60     		str	r2, [r3]
 369:.\Generated_Source\PSoC4/CyFlash.c ****                 retValue = CY_FLASH_API_RETURN;
 492              		.loc 1 369 0
 493 00d4 1A4B     		ldr	r3, .L36+12
 494 00d6 1B68     		ldr	r3, [r3]
 495 00d8 1B0F     		lsr	r3, r3, #28
 496 00da 1A07     		lsl	r2, r3, #28
 497 00dc A023     		mov	r3, #160
 498 00de 1B06     		lsl	r3, r3, #24
 499 00e0 9A42     		cmp	r2, r3
 500 00e2 04D0     		beq	.L31
 501              		.loc 1 369 0 is_stmt 0 discriminator 1
 502 00e4 164B     		ldr	r3, .L36+12
 503 00e6 1B68     		ldr	r3, [r3]
 504 00e8 0F22     		mov	r2, #15
 505 00ea 1340     		and	r3, r2
 506 00ec 00E0     		b	.L32
 507              	.L31:
 508              		.loc 1 369 0 discriminator 2
 509 00ee 0023     		mov	r3, #0
 510              	.L32:
 511              		.loc 1 369 0 discriminator 4
 512 00f0 9822     		mov	r2, #152
 513 00f2 BA18     		add	r2, r7, r2
 514 00f4 1360     		str	r3, [r2]
 515              	.L30:
 370:.\Generated_Source\PSoC4/CyFlash.c ****             }
 371:.\Generated_Source\PSoC4/CyFlash.c **** 
 372:.\Generated_Source\PSoC4/CyFlash.c ****             if(clkCnfRetValue == CY_SYS_FLASH_SUCCESS)
 516              		.loc 1 372 0 is_stmt 1
 517 00f6 9423     		mov	r3, #148
 518 00f8 FB18     		add	r3, r7, r3
 519 00fa 1B68     		ldr	r3, [r3]
 520 00fc 002B     		cmp	r3, #0
 521 00fe 05D1     		bne	.L33
 373:.\Generated_Source\PSoC4/CyFlash.c ****             {
 374:.\Generated_Source\PSoC4/CyFlash.c ****                 clkCnfRetValue = CySysFlashClockRestore();
 522              		.loc 1 374 0
 523 0100 FFF7FEFF 		bl	CySysFlashClockRestore
 524 0104 031C     		mov	r3, r0
 525 0106 9422     		mov	r2, #148
 526 0108 BA18     		add	r2, r7, r2
 527 010a 1360     		str	r3, [r2]
 528              	.L33:
 375:.\Generated_Source\PSoC4/CyFlash.c ****             }
 376:.\Generated_Source\PSoC4/CyFlash.c ****             CyExitCriticalSection(interruptState);
 529              		.loc 1 376 0
 530 010c 9F23     		mov	r3, #159
 531 010e FB18     		add	r3, r7, r3
 532 0110 1B78     		ldrb	r3, [r3]
 533 0112 181C     		mov	r0, r3
ARM GAS  C:\Users\passw\AppData\Local\Temp\ccDo4DvH.s 			page 17


 534 0114 FFF7FEFF 		bl	CyExitCriticalSection
 342:.\Generated_Source\PSoC4/CyFlash.c ****         {
 535              		.loc 1 342 0
 536 0118 04E0     		b	.L34
 537              	.L29:
 538 011a 03E0     		b	.L34
 539              	.L24:
 377:.\Generated_Source\PSoC4/CyFlash.c ****         }
 378:.\Generated_Source\PSoC4/CyFlash.c ****     }
 379:.\Generated_Source\PSoC4/CyFlash.c ****     else
 380:.\Generated_Source\PSoC4/CyFlash.c ****     {
 381:.\Generated_Source\PSoC4/CyFlash.c ****         retValue = CY_SYS_FLASH_INVALID_ADDR;
 540              		.loc 1 381 0
 541 011c 0423     		mov	r3, #4
 542 011e 9822     		mov	r2, #152
 543 0120 BA18     		add	r2, r7, r2
 544 0122 1360     		str	r3, [r2]
 545              	.L34:
 382:.\Generated_Source\PSoC4/CyFlash.c ****     }
 383:.\Generated_Source\PSoC4/CyFlash.c **** 
 384:.\Generated_Source\PSoC4/CyFlash.c ****     return (retValue);
 546              		.loc 1 384 0
 547 0124 9823     		mov	r3, #152
 548 0126 FB18     		add	r3, r7, r3
 549 0128 1B68     		ldr	r3, [r3]
 385:.\Generated_Source\PSoC4/CyFlash.c **** }
 550              		.loc 1 385 0
 551 012a 181C     		mov	r0, r3
 552 012c BD46     		mov	sp, r7
 553 012e 29B0     		add	sp, sp, #164
 554              		@ sp needed
 555 0130 90BD     		pop	{r4, r7, pc}
 556              	.L37:
 557 0132 C046     		.align	2
 558              	.L36:
 559 0134 FF010000 		.word	511
 560 0138 B6D70001 		.word	16832438
 561 013c B6D70000 		.word	55222
 562 0140 08001040 		.word	1074790408
 563 0144 04001040 		.word	1074790404
 564 0148 04000080 		.word	-2147483644
 565 014c B6EB0000 		.word	60342
 566 0150 18000080 		.word	-2147483624
 567              		.cfi_endproc
 568              	.LFE3:
 569              		.size	CySysSFlashWriteUserRow, .-CySysSFlashWriteUserRow
 570              		.section	.text.CySysFlashClockBackup,"ax",%progbits
 571              		.align	2
 572              		.code	16
 573              		.thumb_func
 574              		.type	CySysFlashClockBackup, %function
 575              	CySysFlashClockBackup:
 576              	.LFB4:
 386:.\Generated_Source\PSoC4/CyFlash.c **** #endif /* (CY_SFLASH_XTRA_ROWS) */
 387:.\Generated_Source\PSoC4/CyFlash.c **** 
 388:.\Generated_Source\PSoC4/CyFlash.c **** 
 389:.\Generated_Source\PSoC4/CyFlash.c **** /*******************************************************************************
ARM GAS  C:\Users\passw\AppData\Local\Temp\ccDo4DvH.s 			page 18


 390:.\Generated_Source\PSoC4/CyFlash.c **** * Function Name: CySysFlashClockBackup
 391:.\Generated_Source\PSoC4/CyFlash.c **** ********************************************************************************
 392:.\Generated_Source\PSoC4/CyFlash.c **** *
 393:.\Generated_Source\PSoC4/CyFlash.c **** * Summary:
 394:.\Generated_Source\PSoC4/CyFlash.c **** *  Backups the device clock configuration.
 395:.\Generated_Source\PSoC4/CyFlash.c **** *
 396:.\Generated_Source\PSoC4/CyFlash.c **** * Parameters:
 397:.\Generated_Source\PSoC4/CyFlash.c **** *  None
 398:.\Generated_Source\PSoC4/CyFlash.c **** *
 399:.\Generated_Source\PSoC4/CyFlash.c **** * Return:
 400:.\Generated_Source\PSoC4/CyFlash.c **** *  The same as CySysFlashWriteRow().
 401:.\Generated_Source\PSoC4/CyFlash.c **** *
 402:.\Generated_Source\PSoC4/CyFlash.c **** *******************************************************************************/
 403:.\Generated_Source\PSoC4/CyFlash.c **** static cystatus CySysFlashClockBackup(void)
 404:.\Generated_Source\PSoC4/CyFlash.c **** {
 577              		.loc 1 404 0
 578              		.cfi_startproc
 579 0000 80B5     		push	{r7, lr}
 580              		.cfi_def_cfa_offset 8
 581              		.cfi_offset 7, -8
 582              		.cfi_offset 14, -4
 583 0002 82B0     		sub	sp, sp, #8
 584              		.cfi_def_cfa_offset 16
 585 0004 00AF     		add	r7, sp, #0
 586              		.cfi_def_cfa_register 7
 405:.\Generated_Source\PSoC4/CyFlash.c ****     cystatus retValue = CY_SYS_FLASH_SUCCESS;
 587              		.loc 1 405 0
 588 0006 0023     		mov	r3, #0
 589 0008 7B60     		str	r3, [r7, #4]
 406:.\Generated_Source\PSoC4/CyFlash.c **** #if(!CY_IP_FM)
 407:.\Generated_Source\PSoC4/CyFlash.c ****     #if !(CY_PSOC4_4000)
 408:.\Generated_Source\PSoC4/CyFlash.c ****         #if (CY_IP_SPCIF_SYNCHRONOUS)
 409:.\Generated_Source\PSoC4/CyFlash.c ****             volatile uint32   parameters[2u];
 410:.\Generated_Source\PSoC4/CyFlash.c ****         #endif /* (CY_IP_SPCIF_SYNCHRONOUS) */
 411:.\Generated_Source\PSoC4/CyFlash.c ****     #endif  /* !(CY_PSOC4_4000) */
 412:.\Generated_Source\PSoC4/CyFlash.c **** #endif  /* (!CY_IP_FM) */
 413:.\Generated_Source\PSoC4/CyFlash.c **** 
 414:.\Generated_Source\PSoC4/CyFlash.c **** #if(CY_IP_FM)
 415:.\Generated_Source\PSoC4/CyFlash.c **** 
 416:.\Generated_Source\PSoC4/CyFlash.c ****     /***************************************************************
 417:.\Generated_Source\PSoC4/CyFlash.c ****     * Preserve IMO configuration that could be changed during
 418:.\Generated_Source\PSoC4/CyFlash.c ****     * system call execution (Cypress ID #150448).
 419:.\Generated_Source\PSoC4/CyFlash.c ****     ***************************************************************/
 420:.\Generated_Source\PSoC4/CyFlash.c ****     cySysFlashBackup.imoConfigReg = CY_SYS_CLK_IMO_CONFIG_REG;
 421:.\Generated_Source\PSoC4/CyFlash.c **** 
 422:.\Generated_Source\PSoC4/CyFlash.c **** #else   /* (CY_IP_FMLT) */
 423:.\Generated_Source\PSoC4/CyFlash.c **** 
 424:.\Generated_Source\PSoC4/CyFlash.c ****     #if (CY_PSOC4_4000)
 425:.\Generated_Source\PSoC4/CyFlash.c **** 
 426:.\Generated_Source\PSoC4/CyFlash.c ****         /***************************************************************************
 427:.\Generated_Source\PSoC4/CyFlash.c ****         * Perform firmware clock settings backup for the PSOC4 4000 devices (the
 428:.\Generated_Source\PSoC4/CyFlash.c ****         * corresponding system call is not available).
 429:.\Generated_Source\PSoC4/CyFlash.c ****         ***************************************************************************/
 430:.\Generated_Source\PSoC4/CyFlash.c **** 
 431:.\Generated_Source\PSoC4/CyFlash.c ****         /***************************************************************************
 432:.\Generated_Source\PSoC4/CyFlash.c ****         * The registers listed below are modified by CySysFlashClockConfig().
 433:.\Generated_Source\PSoC4/CyFlash.c ****         *
ARM GAS  C:\Users\passw\AppData\Local\Temp\ccDo4DvH.s 			page 19


 434:.\Generated_Source\PSoC4/CyFlash.c ****         * The registers to be saved:
 435:.\Generated_Source\PSoC4/CyFlash.c ****         * - CY_SYS_CLK_IMO_CONFIG_REG - IMO enable state.
 436:.\Generated_Source\PSoC4/CyFlash.c ****         * - CY_SYS_CLK_SELECT_REG     - HFCLK source, divider, pump source. Save
 437:.\Generated_Source\PSoC4/CyFlash.c ****         *                               entire register as it can be directly
 438:.\Generated_Source\PSoC4/CyFlash.c ****         *                               written on restore (no special
 439:.\Generated_Source\PSoC4/CyFlash.c ****         *                               requirements).
 440:.\Generated_Source\PSoC4/CyFlash.c ****         * - CY_SYS_CLK_IMO_SELECT_REG - Save IMO frequency.
 441:.\Generated_Source\PSoC4/CyFlash.c ****         *
 442:.\Generated_Source\PSoC4/CyFlash.c ****         * The registers not to be saved:
 443:.\Generated_Source\PSoC4/CyFlash.c ****         * - CY_SYS_CLK_IMO_TRIM1_REG  - No need to save. Function of frequency.
 444:.\Generated_Source\PSoC4/CyFlash.c ****         *                               Restored by CySysClkWriteImoFreq().
 445:.\Generated_Source\PSoC4/CyFlash.c ****         * - CY_SYS_CLK_IMO_TRIM3_REG  - No need to save. Function of frequency.
 446:.\Generated_Source\PSoC4/CyFlash.c ****         *                               Restored by CySysClkWriteImoFreq().
 447:.\Generated_Source\PSoC4/CyFlash.c ****         * - REG_CPUSS_FLASH_CTL       - Flash wait cycles. Unmodified due to system
 448:.\Generated_Source\PSoC4/CyFlash.c ****         *                               clock 16 MHz limit.
 449:.\Generated_Source\PSoC4/CyFlash.c ****         ***************************************************************************/
 450:.\Generated_Source\PSoC4/CyFlash.c **** 
 451:.\Generated_Source\PSoC4/CyFlash.c ****         cySysFlashBackup.clkSelectReg = CY_SYS_CLK_SELECT_REG;
 452:.\Generated_Source\PSoC4/CyFlash.c ****         cySysFlashBackup.clkImoEna    = CY_SYS_CLK_IMO_CONFIG_REG & CY_SYS_CLK_IMO_CONFIG_ENABLE;
 453:.\Generated_Source\PSoC4/CyFlash.c ****         cySysFlashBackup.clkImoFreq   = CY_SYS_CLK_IMO_MIN_FREQ_MHZ + (CY_SYS_CLK_IMO_SELECT_REG <<
 454:.\Generated_Source\PSoC4/CyFlash.c **** 
 455:.\Generated_Source\PSoC4/CyFlash.c ****     #else
 456:.\Generated_Source\PSoC4/CyFlash.c **** 
 457:.\Generated_Source\PSoC4/CyFlash.c ****         #if (CY_IP_SPCIF_SYNCHRONOUS)
 458:.\Generated_Source\PSoC4/CyFlash.c ****             /* FM-Lite Clock Backup System Call */
 459:.\Generated_Source\PSoC4/CyFlash.c ****             parameters[0u] =
 460:.\Generated_Source\PSoC4/CyFlash.c ****                 (uint32) ((CY_FLASH_KEY_TWO(CY_FLASH_API_OPCODE_CLK_BACKUP) <<  CY_FLASH_PARAM_KEY_
 461:.\Generated_Source\PSoC4/CyFlash.c ****                             CY_FLASH_KEY_ONE);
 462:.\Generated_Source\PSoC4/CyFlash.c ****             parameters[1u] = (uint32) &cySysFlashBackup.clockSettings[0u];
 463:.\Generated_Source\PSoC4/CyFlash.c ****             CY_FLASH_CPUSS_SYSARG_REG = (uint32) &parameters[0u];
 464:.\Generated_Source\PSoC4/CyFlash.c ****             CY_FLASH_CPUSS_SYSREQ_REG = CY_FLASH_CPUSS_REQ_START | CY_FLASH_API_OPCODE_CLK_BACKUP;
 465:.\Generated_Source\PSoC4/CyFlash.c ****             retValue = CY_FLASH_API_RETURN;
 466:.\Generated_Source\PSoC4/CyFlash.c ****         #endif /* (CY_IP_SPCIF_SYNCHRONOUS) */
 467:.\Generated_Source\PSoC4/CyFlash.c **** 
 468:.\Generated_Source\PSoC4/CyFlash.c ****     #endif  /* (CY_PSOC4_4000) */
 469:.\Generated_Source\PSoC4/CyFlash.c **** 
 470:.\Generated_Source\PSoC4/CyFlash.c **** #endif  /* (CY_IP_FM) */
 471:.\Generated_Source\PSoC4/CyFlash.c **** 
 472:.\Generated_Source\PSoC4/CyFlash.c ****     return (retValue);
 590              		.loc 1 472 0
 591 000a 7B68     		ldr	r3, [r7, #4]
 473:.\Generated_Source\PSoC4/CyFlash.c **** }
 592              		.loc 1 473 0
 593 000c 181C     		mov	r0, r3
 594 000e BD46     		mov	sp, r7
 595 0010 02B0     		add	sp, sp, #8
 596              		@ sp needed
 597 0012 80BD     		pop	{r7, pc}
 598              		.cfi_endproc
 599              	.LFE4:
 600              		.size	CySysFlashClockBackup, .-CySysFlashClockBackup
 601              		.section	.text.CySysFlashClockRestore,"ax",%progbits
 602              		.align	2
 603              		.code	16
 604              		.thumb_func
 605              		.type	CySysFlashClockRestore, %function
 606              	CySysFlashClockRestore:
ARM GAS  C:\Users\passw\AppData\Local\Temp\ccDo4DvH.s 			page 20


 607              	.LFB5:
 474:.\Generated_Source\PSoC4/CyFlash.c **** 
 475:.\Generated_Source\PSoC4/CyFlash.c **** 
 476:.\Generated_Source\PSoC4/CyFlash.c **** #if(CY_IP_SPCIF_SYNCHRONOUS)
 477:.\Generated_Source\PSoC4/CyFlash.c **** /*******************************************************************************
 478:.\Generated_Source\PSoC4/CyFlash.c **** * Function Name: CySysFlashClockConfig
 479:.\Generated_Source\PSoC4/CyFlash.c **** ********************************************************************************
 480:.\Generated_Source\PSoC4/CyFlash.c **** *
 481:.\Generated_Source\PSoC4/CyFlash.c **** * Summary:
 482:.\Generated_Source\PSoC4/CyFlash.c **** *  Configures the device clocks for the flash writing.
 483:.\Generated_Source\PSoC4/CyFlash.c **** *
 484:.\Generated_Source\PSoC4/CyFlash.c **** * Parameters:
 485:.\Generated_Source\PSoC4/CyFlash.c **** *  None
 486:.\Generated_Source\PSoC4/CyFlash.c **** *
 487:.\Generated_Source\PSoC4/CyFlash.c **** * Return:
 488:.\Generated_Source\PSoC4/CyFlash.c **** *  The same as CySysFlashWriteRow().
 489:.\Generated_Source\PSoC4/CyFlash.c **** *
 490:.\Generated_Source\PSoC4/CyFlash.c **** *******************************************************************************/
 491:.\Generated_Source\PSoC4/CyFlash.c **** static cystatus CySysFlashClockConfig(void)
 492:.\Generated_Source\PSoC4/CyFlash.c **** {
 493:.\Generated_Source\PSoC4/CyFlash.c ****     cystatus retValue = CY_SYS_FLASH_SUCCESS;
 494:.\Generated_Source\PSoC4/CyFlash.c **** 
 495:.\Generated_Source\PSoC4/CyFlash.c ****     /***************************************************************************
 496:.\Generated_Source\PSoC4/CyFlash.c ****     * The FM-Lite IP uses the IMO at 48MHz for the pump clock and SPC timer
 497:.\Generated_Source\PSoC4/CyFlash.c ****     * clock. The PUMP_SEL and HF clock must be set to IMO before calling Flash
 498:.\Generated_Source\PSoC4/CyFlash.c ****     * write or erase operation.
 499:.\Generated_Source\PSoC4/CyFlash.c ****     ***************************************************************************/
 500:.\Generated_Source\PSoC4/CyFlash.c **** #if (CY_PSOC4_4000)
 501:.\Generated_Source\PSoC4/CyFlash.c **** 
 502:.\Generated_Source\PSoC4/CyFlash.c ****     /***************************************************************************
 503:.\Generated_Source\PSoC4/CyFlash.c ****     * Perform firmware clock settings setup for the PSOC4 4000 devices (the
 504:.\Generated_Source\PSoC4/CyFlash.c ****     * corresponding system call is not reliable):
 505:.\Generated_Source\PSoC4/CyFlash.c ****     * - The IMO frequency should be 48 MHz
 506:.\Generated_Source\PSoC4/CyFlash.c ****     * - The IMO should be source for the HFCLK
 507:.\Generated_Source\PSoC4/CyFlash.c ****     * - The IMO should be the source for the charge pump clock
 508:.\Generated_Source\PSoC4/CyFlash.c ****     *
 509:.\Generated_Source\PSoC4/CyFlash.c ****     * Note The structure members used below are initialized by
 510:.\Generated_Source\PSoC4/CyFlash.c ****     * the CySysFlashClockBackup() function.
 511:.\Generated_Source\PSoC4/CyFlash.c ****     ***************************************************************************/
 512:.\Generated_Source\PSoC4/CyFlash.c ****     if ((cySysFlashBackup.clkImoFreq != 48u) ||
 513:.\Generated_Source\PSoC4/CyFlash.c ****         ((cySysFlashBackup.clkSelectReg & CY_SYS_CLK_SELECT_DIRECT_SEL_MASK) != CY_SYS_CLK_HFCLK_IM
 514:.\Generated_Source\PSoC4/CyFlash.c ****         (((cySysFlashBackup.clkSelectReg >> CY_SYS_CLK_SELECT_PUMP_SEL_SHIFT) & CY_SYS_CLK_SELECT_P
 515:.\Generated_Source\PSoC4/CyFlash.c ****             CY_SYS_CLK_SELECT_PUMP_SEL_IMO))
 516:.\Generated_Source\PSoC4/CyFlash.c ****     {
 517:.\Generated_Source\PSoC4/CyFlash.c ****         /***********************************************************************
 518:.\Generated_Source\PSoC4/CyFlash.c ****          Set HFCLK divider to divide-by-4 to ensure that System clock frequency
 519:.\Generated_Source\PSoC4/CyFlash.c ****         * is within the valid limit (16 MHz for the PSoC4 4000).
 520:.\Generated_Source\PSoC4/CyFlash.c ****         ***********************************************************************/
 521:.\Generated_Source\PSoC4/CyFlash.c ****         CySysClkWriteHfclkDiv(CY_SYS_CLK_HFCLK_DIV_4);
 522:.\Generated_Source\PSoC4/CyFlash.c **** 
 523:.\Generated_Source\PSoC4/CyFlash.c ****         /* The IMO frequency should be 48 MHz */
 524:.\Generated_Source\PSoC4/CyFlash.c ****         if (cySysFlashBackup.clkImoFreq != 48u)
 525:.\Generated_Source\PSoC4/CyFlash.c ****         {
 526:.\Generated_Source\PSoC4/CyFlash.c ****             CySysClkWriteImoFreq(48u);
 527:.\Generated_Source\PSoC4/CyFlash.c ****         }
 528:.\Generated_Source\PSoC4/CyFlash.c ****         CySysClkImoStart();
 529:.\Generated_Source\PSoC4/CyFlash.c **** 
ARM GAS  C:\Users\passw\AppData\Local\Temp\ccDo4DvH.s 			page 21


 530:.\Generated_Source\PSoC4/CyFlash.c ****         /* The IMO should be source for the HFCLK */
 531:.\Generated_Source\PSoC4/CyFlash.c ****         CySysClkWriteHfclkDirect(CY_SYS_CLK_HFCLK_IMO);
 532:.\Generated_Source\PSoC4/CyFlash.c **** 
 533:.\Generated_Source\PSoC4/CyFlash.c ****         /* The IMO should be the source for the charge pump clock */
 534:.\Generated_Source\PSoC4/CyFlash.c ****         CY_SYS_CLK_SELECT_REG =  (CY_SYS_CLK_SELECT_REG &
 535:.\Generated_Source\PSoC4/CyFlash.c ****             ((uint32)~(uint32)(CY_SYS_CLK_SELECT_PUMP_SEL_MASK << CY_SYS_CLK_SELECT_PUMP_SEL_SHIFT)
 536:.\Generated_Source\PSoC4/CyFlash.c ****             ((uint32)((uint32)1u << CY_SYS_CLK_SELECT_PUMP_SEL_SHIFT));
 537:.\Generated_Source\PSoC4/CyFlash.c ****     }
 538:.\Generated_Source\PSoC4/CyFlash.c **** 
 539:.\Generated_Source\PSoC4/CyFlash.c **** #else
 540:.\Generated_Source\PSoC4/CyFlash.c **** 
 541:.\Generated_Source\PSoC4/CyFlash.c ****     /* FM-Lite Clock Configuration */
 542:.\Generated_Source\PSoC4/CyFlash.c ****     CY_FLASH_CPUSS_SYSARG_REG =
 543:.\Generated_Source\PSoC4/CyFlash.c ****         (uint32) ((CY_FLASH_KEY_TWO(CY_FLASH_API_OPCODE_CLK_CONFIG) <<  CY_FLASH_PARAM_KEY_TWO_OFFS
 544:.\Generated_Source\PSoC4/CyFlash.c ****                     CY_FLASH_KEY_ONE);
 545:.\Generated_Source\PSoC4/CyFlash.c ****     CY_FLASH_CPUSS_SYSREQ_REG = CY_FLASH_CPUSS_REQ_START | CY_FLASH_API_OPCODE_CLK_CONFIG;
 546:.\Generated_Source\PSoC4/CyFlash.c ****     retValue = CY_FLASH_API_RETURN;
 547:.\Generated_Source\PSoC4/CyFlash.c **** 
 548:.\Generated_Source\PSoC4/CyFlash.c **** #endif  /* (CY_PSOC4_4000) */
 549:.\Generated_Source\PSoC4/CyFlash.c **** 
 550:.\Generated_Source\PSoC4/CyFlash.c ****     return (retValue);
 551:.\Generated_Source\PSoC4/CyFlash.c **** }
 552:.\Generated_Source\PSoC4/CyFlash.c **** #endif  /* (CY_IP_SPCIF_SYNCHRONOUS) */
 553:.\Generated_Source\PSoC4/CyFlash.c **** 
 554:.\Generated_Source\PSoC4/CyFlash.c **** 
 555:.\Generated_Source\PSoC4/CyFlash.c **** /*******************************************************************************
 556:.\Generated_Source\PSoC4/CyFlash.c **** * Function Name: CySysFlashClockRestore
 557:.\Generated_Source\PSoC4/CyFlash.c **** ********************************************************************************
 558:.\Generated_Source\PSoC4/CyFlash.c **** *
 559:.\Generated_Source\PSoC4/CyFlash.c **** * Summary:
 560:.\Generated_Source\PSoC4/CyFlash.c **** *  Restores the device clock configuration.
 561:.\Generated_Source\PSoC4/CyFlash.c **** *
 562:.\Generated_Source\PSoC4/CyFlash.c **** * Parameters:
 563:.\Generated_Source\PSoC4/CyFlash.c **** *  None
 564:.\Generated_Source\PSoC4/CyFlash.c **** *
 565:.\Generated_Source\PSoC4/CyFlash.c **** * Return:
 566:.\Generated_Source\PSoC4/CyFlash.c **** *  The same as CySysFlashWriteRow().
 567:.\Generated_Source\PSoC4/CyFlash.c **** *
 568:.\Generated_Source\PSoC4/CyFlash.c **** *******************************************************************************/
 569:.\Generated_Source\PSoC4/CyFlash.c **** static cystatus CySysFlashClockRestore(void)
 570:.\Generated_Source\PSoC4/CyFlash.c **** {
 608              		.loc 1 570 0
 609              		.cfi_startproc
 610 0000 80B5     		push	{r7, lr}
 611              		.cfi_def_cfa_offset 8
 612              		.cfi_offset 7, -8
 613              		.cfi_offset 14, -4
 614 0002 82B0     		sub	sp, sp, #8
 615              		.cfi_def_cfa_offset 16
 616 0004 00AF     		add	r7, sp, #0
 617              		.cfi_def_cfa_register 7
 571:.\Generated_Source\PSoC4/CyFlash.c ****     cystatus retValue = CY_SYS_FLASH_SUCCESS;
 618              		.loc 1 571 0
 619 0006 0023     		mov	r3, #0
 620 0008 7B60     		str	r3, [r7, #4]
 572:.\Generated_Source\PSoC4/CyFlash.c **** #if(!CY_IP_FM)
 573:.\Generated_Source\PSoC4/CyFlash.c ****     #if !(CY_PSOC4_4000)
ARM GAS  C:\Users\passw\AppData\Local\Temp\ccDo4DvH.s 			page 22


 574:.\Generated_Source\PSoC4/CyFlash.c ****         #if (CY_IP_SPCIF_SYNCHRONOUS)
 575:.\Generated_Source\PSoC4/CyFlash.c ****             volatile uint32   parameters[2u];
 576:.\Generated_Source\PSoC4/CyFlash.c ****         #endif /* (CY_IP_SPCIF_SYNCHRONOUS) */
 577:.\Generated_Source\PSoC4/CyFlash.c ****     #endif  /* !(CY_PSOC4_4000) */
 578:.\Generated_Source\PSoC4/CyFlash.c **** #endif  /* (!CY_IP_FM) */
 579:.\Generated_Source\PSoC4/CyFlash.c **** 
 580:.\Generated_Source\PSoC4/CyFlash.c **** #if(CY_IP_FM)
 581:.\Generated_Source\PSoC4/CyFlash.c **** 
 582:.\Generated_Source\PSoC4/CyFlash.c ****     /***************************************************************
 583:.\Generated_Source\PSoC4/CyFlash.c ****     * Restore IMO configuration that could be changed during
 584:.\Generated_Source\PSoC4/CyFlash.c ****     * system call execution (Cypress ID #150448).
 585:.\Generated_Source\PSoC4/CyFlash.c ****     ***************************************************************/
 586:.\Generated_Source\PSoC4/CyFlash.c ****     CY_SYS_CLK_IMO_CONFIG_REG = cySysFlashBackup.imoConfigReg;
 587:.\Generated_Source\PSoC4/CyFlash.c **** 
 588:.\Generated_Source\PSoC4/CyFlash.c **** #else
 589:.\Generated_Source\PSoC4/CyFlash.c **** 
 590:.\Generated_Source\PSoC4/CyFlash.c ****     #if (CY_PSOC4_4000)
 591:.\Generated_Source\PSoC4/CyFlash.c **** 
 592:.\Generated_Source\PSoC4/CyFlash.c ****         /***************************************************************************
 593:.\Generated_Source\PSoC4/CyFlash.c ****         * Perform firmware clock settings restore for the PSOC4 4000 devices (the
 594:.\Generated_Source\PSoC4/CyFlash.c ****         * corresponding system call is not available).
 595:.\Generated_Source\PSoC4/CyFlash.c ****         ***************************************************************************/
 596:.\Generated_Source\PSoC4/CyFlash.c **** 
 597:.\Generated_Source\PSoC4/CyFlash.c ****         /* Restore clock settings */
 598:.\Generated_Source\PSoC4/CyFlash.c ****         if ((cySysFlashBackup.clkImoFreq != 48u) ||
 599:.\Generated_Source\PSoC4/CyFlash.c ****             ((cySysFlashBackup.clkSelectReg & CY_SYS_CLK_SELECT_DIRECT_SEL_MASK) != CY_SYS_CLK_HFCL
 600:.\Generated_Source\PSoC4/CyFlash.c ****             (((cySysFlashBackup.clkSelectReg >> CY_SYS_CLK_SELECT_PUMP_SEL_SHIFT) & CY_SYS_CLK_SELE
 601:.\Generated_Source\PSoC4/CyFlash.c ****                 CY_SYS_CLK_SELECT_PUMP_SEL_IMO))
 602:.\Generated_Source\PSoC4/CyFlash.c ****         {
 603:.\Generated_Source\PSoC4/CyFlash.c ****             /* Restore IMO frequency if needed */
 604:.\Generated_Source\PSoC4/CyFlash.c ****             if (cySysFlashBackup.clkImoFreq != 48u)
 605:.\Generated_Source\PSoC4/CyFlash.c ****             {
 606:.\Generated_Source\PSoC4/CyFlash.c ****                 CySysClkWriteImoFreq(cySysFlashBackup.clkImoFreq);
 607:.\Generated_Source\PSoC4/CyFlash.c ****             }
 608:.\Generated_Source\PSoC4/CyFlash.c **** 
 609:.\Generated_Source\PSoC4/CyFlash.c ****             /* Restore HFCLK clock source */
 610:.\Generated_Source\PSoC4/CyFlash.c ****             CySysClkWriteHfclkDirect(cySysFlashBackup.clkSelectReg & CY_SYS_CLK_SELECT_DIRECT_SEL_M
 611:.\Generated_Source\PSoC4/CyFlash.c **** 
 612:.\Generated_Source\PSoC4/CyFlash.c ****             /* Restore HFCLK divider and source for pump  */
 613:.\Generated_Source\PSoC4/CyFlash.c ****             CY_SYS_CLK_SELECT_REG = cySysFlashBackup.clkSelectReg;
 614:.\Generated_Source\PSoC4/CyFlash.c **** 
 615:.\Generated_Source\PSoC4/CyFlash.c ****             /* Stop IMO if needed */
 616:.\Generated_Source\PSoC4/CyFlash.c ****             if (0u == cySysFlashBackup.clkImoEna)
 617:.\Generated_Source\PSoC4/CyFlash.c ****             {
 618:.\Generated_Source\PSoC4/CyFlash.c ****                 CySysClkImoStop();
 619:.\Generated_Source\PSoC4/CyFlash.c ****             }
 620:.\Generated_Source\PSoC4/CyFlash.c ****         }
 621:.\Generated_Source\PSoC4/CyFlash.c **** 
 622:.\Generated_Source\PSoC4/CyFlash.c ****     #else
 623:.\Generated_Source\PSoC4/CyFlash.c **** 
 624:.\Generated_Source\PSoC4/CyFlash.c ****         #if (CY_IP_SPCIF_SYNCHRONOUS)
 625:.\Generated_Source\PSoC4/CyFlash.c ****             /* FM-Lite Clock Restore */
 626:.\Generated_Source\PSoC4/CyFlash.c ****             parameters[0u] =
 627:.\Generated_Source\PSoC4/CyFlash.c ****                 (uint32) ((CY_FLASH_KEY_TWO(CY_FLASH_API_OPCODE_CLK_RESTORE) <<  CY_FLASH_PARAM_KEY
 628:.\Generated_Source\PSoC4/CyFlash.c ****                             CY_FLASH_KEY_ONE);
 629:.\Generated_Source\PSoC4/CyFlash.c ****             parameters[1u] = (uint32) &cySysFlashBackup.clockSettings[0u];
 630:.\Generated_Source\PSoC4/CyFlash.c ****             CY_FLASH_CPUSS_SYSARG_REG = (uint32) &parameters[0u];
ARM GAS  C:\Users\passw\AppData\Local\Temp\ccDo4DvH.s 			page 23


 631:.\Generated_Source\PSoC4/CyFlash.c ****             CY_FLASH_CPUSS_SYSREQ_REG = CY_FLASH_CPUSS_REQ_START | CY_FLASH_API_OPCODE_CLK_RESTORE;
 632:.\Generated_Source\PSoC4/CyFlash.c ****             retValue = CY_FLASH_API_RETURN;
 633:.\Generated_Source\PSoC4/CyFlash.c ****         #endif /* (CY_IP_SPCIF_SYNCHRONOUS) */
 634:.\Generated_Source\PSoC4/CyFlash.c **** 
 635:.\Generated_Source\PSoC4/CyFlash.c ****     #endif  /* (CY_PSOC4_4000) */
 636:.\Generated_Source\PSoC4/CyFlash.c **** 
 637:.\Generated_Source\PSoC4/CyFlash.c **** #endif  /* (CY_IP_FM) */
 638:.\Generated_Source\PSoC4/CyFlash.c **** 
 639:.\Generated_Source\PSoC4/CyFlash.c ****     return (retValue);
 621              		.loc 1 639 0
 622 000a 7B68     		ldr	r3, [r7, #4]
 640:.\Generated_Source\PSoC4/CyFlash.c **** }
 623              		.loc 1 640 0
 624 000c 181C     		mov	r0, r3
 625 000e BD46     		mov	sp, r7
 626 0010 02B0     		add	sp, sp, #8
 627              		@ sp needed
 628 0012 80BD     		pop	{r7, pc}
 629              		.cfi_endproc
 630              	.LFE5:
 631              		.size	CySysFlashClockRestore, .-CySysFlashClockRestore
 632              		.text
 633              	.Letext0:
 634              		.file 2 ".\\Generated_Source\\PSoC4\\cytypes.h"