ARM GAS  C:\Users\passw\AppData\Local\Temp\ccYGIhwR.s 			page 1


   1              		.cpu cortex-m0
   2              		.fpu softvfp
   3              		.eabi_attribute 20, 1
   4              		.eabi_attribute 21, 1
   5              		.eabi_attribute 23, 3
   6              		.eabi_attribute 24, 1
   7              		.eabi_attribute 25, 1
   8              		.eabi_attribute 26, 1
   9              		.eabi_attribute 30, 6
  10              		.eabi_attribute 34, 0
  11              		.eabi_attribute 18, 4
  12              		.code	16
  13              		.file	"CyLFClk.c"
  14              		.text
  15              	.Ltext0:
  16              		.cfi_sections	.debug_frame
  17              		.section	.text.CySysClkWcoSetHighPowerMode,"ax",%progbits
  18              		.align	2
  19              		.code	16
  20              		.thumb_func
  21              		.type	CySysClkWcoSetHighPowerMode, %function
  22              	CySysClkWcoSetHighPowerMode:
  23              	.LFB0:
  24              		.file 1 ".\\Generated_Source\\PSoC4\\CyLFClk.h"
   1:.\Generated_Source\PSoC4/CyLFClk.h **** /*******************************************************************************
   2:.\Generated_Source\PSoC4/CyLFClk.h **** * File Name: .h
   3:.\Generated_Source\PSoC4/CyLFClk.h **** * Version 1.0
   4:.\Generated_Source\PSoC4/CyLFClk.h **** *
   5:.\Generated_Source\PSoC4/CyLFClk.h **** * Description:
   6:.\Generated_Source\PSoC4/CyLFClk.h **** *  This file provides constants and parameter values for the cy_lfclk Component.
   7:.\Generated_Source\PSoC4/CyLFClk.h **** *
   8:.\Generated_Source\PSoC4/CyLFClk.h **** ********************************************************************************
   9:.\Generated_Source\PSoC4/CyLFClk.h **** * Copyright 2008-2015, Cypress Semiconductor Corporation.  All rights reserved.
  10:.\Generated_Source\PSoC4/CyLFClk.h **** * You may use this file only in accordance with the license, terms, conditions,
  11:.\Generated_Source\PSoC4/CyLFClk.h **** * disclaimers, and limitations in the end user license agreement accompanying
  12:.\Generated_Source\PSoC4/CyLFClk.h **** * the software package with which this file was provided.
  13:.\Generated_Source\PSoC4/CyLFClk.h **** *******************************************************************************/
  14:.\Generated_Source\PSoC4/CyLFClk.h **** 
  15:.\Generated_Source\PSoC4/CyLFClk.h **** #if !defined(CY_LFCLK_CYLIB_H)
  16:.\Generated_Source\PSoC4/CyLFClk.h **** #define CY_LFCLK_CYLIB_H
  17:.\Generated_Source\PSoC4/CyLFClk.h **** 
  18:.\Generated_Source\PSoC4/CyLFClk.h **** #include "cytypes.h"
  19:.\Generated_Source\PSoC4/CyLFClk.h **** #include "cydevice_trm.h"
  20:.\Generated_Source\PSoC4/CyLFClk.h **** 
  21:.\Generated_Source\PSoC4/CyLFClk.h **** typedef enum
  22:.\Generated_Source\PSoC4/CyLFClk.h **** {
  23:.\Generated_Source\PSoC4/CyLFClk.h ****     CY_SYS_TIMER_WAIT = 0u,
  24:.\Generated_Source\PSoC4/CyLFClk.h ****     CY_SYS_TIMER_INTERRUPT = 1u
  25:.\Generated_Source\PSoC4/CyLFClk.h **** } cy_sys_timer_delaytype_enum;
  26:.\Generated_Source\PSoC4/CyLFClk.h **** 
  27:.\Generated_Source\PSoC4/CyLFClk.h **** 
  28:.\Generated_Source\PSoC4/CyLFClk.h **** /***************************************
  29:.\Generated_Source\PSoC4/CyLFClk.h **** *    Function Prototypes
  30:.\Generated_Source\PSoC4/CyLFClk.h **** ***************************************/
  31:.\Generated_Source\PSoC4/CyLFClk.h **** 
  32:.\Generated_Source\PSoC4/CyLFClk.h **** /* Clocks API */
  33:.\Generated_Source\PSoC4/CyLFClk.h **** void CySysClkIloStart(void);
ARM GAS  C:\Users\passw\AppData\Local\Temp\ccYGIhwR.s 			page 2


  34:.\Generated_Source\PSoC4/CyLFClk.h **** void CySysClkIloStop(void);
  35:.\Generated_Source\PSoC4/CyLFClk.h **** 
  36:.\Generated_Source\PSoC4/CyLFClk.h **** #if (CY_IP_WCO)
  37:.\Generated_Source\PSoC4/CyLFClk.h ****     void   CySysClkWcoStart(void);
  38:.\Generated_Source\PSoC4/CyLFClk.h ****     void   CySysClkWcoStop(void);
  39:.\Generated_Source\PSoC4/CyLFClk.h ****     uint32 CySysClkWcoSetPowerMode(uint32 mode);
  40:.\Generated_Source\PSoC4/CyLFClk.h **** 
  41:.\Generated_Source\PSoC4/CyLFClk.h ****     void CySysClkSetLfclkSource(uint32 source);
  42:.\Generated_Source\PSoC4/CyLFClk.h ****     uint32 CySysClkWcoEnabled(void);
  43:.\Generated_Source\PSoC4/CyLFClk.h **** #endif /* (CY_IP_WCO) */
  44:.\Generated_Source\PSoC4/CyLFClk.h **** 
  45:.\Generated_Source\PSoC4/CyLFClk.h **** typedef void (*cyWdtCallback)(void);
  46:.\Generated_Source\PSoC4/CyLFClk.h **** 
  47:.\Generated_Source\PSoC4/CyLFClk.h **** #if(CY_IP_SRSSV2)
  48:.\Generated_Source\PSoC4/CyLFClk.h ****     /* WDT API */
  49:.\Generated_Source\PSoC4/CyLFClk.h ****     void   CySysWdtLock(void);
  50:.\Generated_Source\PSoC4/CyLFClk.h ****     void   CySysWdtUnlock(void);
  51:.\Generated_Source\PSoC4/CyLFClk.h ****     void   CySysWdtSetMode(uint32 counterNum, uint32 mode);
  52:.\Generated_Source\PSoC4/CyLFClk.h ****     uint32 CySysWdtGetMode(uint32 counterNum);
  53:.\Generated_Source\PSoC4/CyLFClk.h ****     uint32 CySysWdtGetEnabledStatus(uint32 counterNum);
  54:.\Generated_Source\PSoC4/CyLFClk.h ****     void   CySysWdtSetClearOnMatch(uint32 counterNum, uint32 enable);
  55:.\Generated_Source\PSoC4/CyLFClk.h ****     uint32 CySysWdtGetClearOnMatch(uint32 counterNum);
  56:.\Generated_Source\PSoC4/CyLFClk.h ****     void   CySysWdtEnable(uint32 counterMask);
  57:.\Generated_Source\PSoC4/CyLFClk.h ****     void   CySysWdtDisable(uint32 counterMask);
  58:.\Generated_Source\PSoC4/CyLFClk.h ****     void   CySysWdtSetCascade(uint32 cascadeMask);
  59:.\Generated_Source\PSoC4/CyLFClk.h ****     uint32 CySysWdtGetCascade(void);
  60:.\Generated_Source\PSoC4/CyLFClk.h ****     void   CySysWdtSetMatch(uint32 counterNum, uint32 match);
  61:.\Generated_Source\PSoC4/CyLFClk.h ****     void   CySysWdtSetToggleBit(uint32 bits);
  62:.\Generated_Source\PSoC4/CyLFClk.h ****     uint32 CySysWdtGetToggleBit(void);
  63:.\Generated_Source\PSoC4/CyLFClk.h ****     uint32 CySysWdtGetMatch(uint32 counterNum);
  64:.\Generated_Source\PSoC4/CyLFClk.h ****     uint32 CySysWdtGetCount(uint32 counterNum);
  65:.\Generated_Source\PSoC4/CyLFClk.h ****     uint32 CySysWdtGetInterruptSource(void);
  66:.\Generated_Source\PSoC4/CyLFClk.h ****     void   CySysWdtClearInterrupt(uint32 counterMask);
  67:.\Generated_Source\PSoC4/CyLFClk.h ****     void   CySysWdtResetCounters(uint32 countersMask);
  68:.\Generated_Source\PSoC4/CyLFClk.h ****     cyWdtCallback  CySysWdtSetInterruptCallback(uint32 counterNum, cyWdtCallback function);
  69:.\Generated_Source\PSoC4/CyLFClk.h ****     cyWdtCallback  CySysWdtGetInterruptCallback(uint32 counterNum);
  70:.\Generated_Source\PSoC4/CyLFClk.h ****     void   CySysTimerDelay(uint32 counterNum, cy_sys_timer_delaytype_enum delayType, uint32 delay);
  71:.\Generated_Source\PSoC4/CyLFClk.h ****     void   CySysTimerDelayUntilMatch(uint32 counterNum, cy_sys_timer_delaytype_enum delayType, uint
  72:.\Generated_Source\PSoC4/CyLFClk.h ****     void   CySysWatchdogFeed(uint32 counterNum);
  73:.\Generated_Source\PSoC4/CyLFClk.h ****     void   CySysWdtEnableCounterIsr(uint32 counterNum);
  74:.\Generated_Source\PSoC4/CyLFClk.h ****     void   CySysWdtDisableCounterIsr(uint32 counterNum);
  75:.\Generated_Source\PSoC4/CyLFClk.h ****     void   CySysWdtIsr(void);
  76:.\Generated_Source\PSoC4/CyLFClk.h **** #else
  77:.\Generated_Source\PSoC4/CyLFClk.h ****     /* WDT API */
  78:.\Generated_Source\PSoC4/CyLFClk.h ****     uint32 CySysWdtGetEnabledStatus(void);
  79:.\Generated_Source\PSoC4/CyLFClk.h ****     void   CySysWdtEnable(void);
  80:.\Generated_Source\PSoC4/CyLFClk.h ****     void   CySysWdtDisable(void);
  81:.\Generated_Source\PSoC4/CyLFClk.h ****     void   CySysWdtSetMatch(uint32 match);
  82:.\Generated_Source\PSoC4/CyLFClk.h ****     uint32 CySysWdtGetMatch(void);
  83:.\Generated_Source\PSoC4/CyLFClk.h ****     uint32 CySysWdtGetCount(void);
  84:.\Generated_Source\PSoC4/CyLFClk.h ****     void   CySysWdtSetIgnoreBits(uint32 bitsNum);
  85:.\Generated_Source\PSoC4/CyLFClk.h ****     uint32 CySysWdtGetIgnoreBits(void);
  86:.\Generated_Source\PSoC4/CyLFClk.h ****     void   CySysWdtClearInterrupt(void);
  87:.\Generated_Source\PSoC4/CyLFClk.h ****     void   CySysWdtMaskInterrupt(void);
  88:.\Generated_Source\PSoC4/CyLFClk.h ****     void   CySysWdtUnmaskInterrupt(void);
  89:.\Generated_Source\PSoC4/CyLFClk.h ****     cyWdtCallback CySysWdtSetInterruptCallback(cyWdtCallback function);
  90:.\Generated_Source\PSoC4/CyLFClk.h ****     cyWdtCallback CySysWdtGetInterruptCallback(void);
ARM GAS  C:\Users\passw\AppData\Local\Temp\ccYGIhwR.s 			page 3


  91:.\Generated_Source\PSoC4/CyLFClk.h ****     void   CySysWdtIsr(void);
  92:.\Generated_Source\PSoC4/CyLFClk.h **** #endif  /* (CY_IP_SRSSV2) */
  93:.\Generated_Source\PSoC4/CyLFClk.h **** 
  94:.\Generated_Source\PSoC4/CyLFClk.h **** 
  95:.\Generated_Source\PSoC4/CyLFClk.h **** /***************************************
  96:.\Generated_Source\PSoC4/CyLFClk.h **** * API Constants
  97:.\Generated_Source\PSoC4/CyLFClk.h **** ***************************************/
  98:.\Generated_Source\PSoC4/CyLFClk.h **** 
  99:.\Generated_Source\PSoC4/CyLFClk.h **** #define UINT16_MAX_VAL    (0xFFFFu)
 100:.\Generated_Source\PSoC4/CyLFClk.h **** 
 101:.\Generated_Source\PSoC4/CyLFClk.h **** 
 102:.\Generated_Source\PSoC4/CyLFClk.h **** /*******************************************************************************
 103:.\Generated_Source\PSoC4/CyLFClk.h **** * Clock API Constants
 104:.\Generated_Source\PSoC4/CyLFClk.h **** *******************************************************************************/
 105:.\Generated_Source\PSoC4/CyLFClk.h **** /* CySysClkIloStart()/CySysClkIloStop() - implementation definitions */
 106:.\Generated_Source\PSoC4/CyLFClk.h **** #define CY_SYS_CLK_ILO_CONFIG_ENABLE                    (( uint32 )(( uint32 )0x01u << 31u))
 107:.\Generated_Source\PSoC4/CyLFClk.h **** 
 108:.\Generated_Source\PSoC4/CyLFClk.h **** 
 109:.\Generated_Source\PSoC4/CyLFClk.h **** /* CySysClkSetLfclkSource() - parameter definitions */
 110:.\Generated_Source\PSoC4/CyLFClk.h **** #if (CY_IP_WCO)
 111:.\Generated_Source\PSoC4/CyLFClk.h ****     #define CY_SYS_CLK_LFCLK_SRC_ILO                    (0u)
 112:.\Generated_Source\PSoC4/CyLFClk.h ****     #define CY_SYS_CLK_LFCLK_SRC_WCO                    (( uint32 )(( uint32 )0x01u << 30u))
 113:.\Generated_Source\PSoC4/CyLFClk.h **** #endif /* (CY_IP_WCO) */
 114:.\Generated_Source\PSoC4/CyLFClk.h **** 
 115:.\Generated_Source\PSoC4/CyLFClk.h **** 
 116:.\Generated_Source\PSoC4/CyLFClk.h **** /* CySysClkSetLfclkSource() - implementation definitions */
 117:.\Generated_Source\PSoC4/CyLFClk.h **** #if (CY_IP_WCO)
 118:.\Generated_Source\PSoC4/CyLFClk.h ****     #define CY_SYS_CLK_LFCLK_SEL_MASK                   (( uint32 )(( uint32 )0x03u << 30u))
 119:.\Generated_Source\PSoC4/CyLFClk.h **** #endif /* (CY_IP_WCO) */
 120:.\Generated_Source\PSoC4/CyLFClk.h **** 
 121:.\Generated_Source\PSoC4/CyLFClk.h **** #if (CY_IP_WCO)
 122:.\Generated_Source\PSoC4/CyLFClk.h ****     /* WCO Configuration Register */
 123:.\Generated_Source\PSoC4/CyLFClk.h ****     #define CY_SYS_CLK_WCO_CONFIG_LPM_EN                (( uint32 )(( uint32 )0x01u <<  0u))
 124:.\Generated_Source\PSoC4/CyLFClk.h ****     #define CY_SYS_CLK_WCO_CONFIG_LPM_AUTO              (( uint32 )(( uint32 )0x01u <<  1u))
 125:.\Generated_Source\PSoC4/CyLFClk.h ****     #define CY_SYS_CLK_WCO_CONFIG_LPM_ENABLE            (( uint32 )(( uint32 )0x01u << 31u))
 126:.\Generated_Source\PSoC4/CyLFClk.h **** 
 127:.\Generated_Source\PSoC4/CyLFClk.h ****     /* WCO Status Register */
 128:.\Generated_Source\PSoC4/CyLFClk.h ****     #define CY_SYS_CLK_WCO_STATUS_OUT_BLNK_A            (( uint32 )(( uint32 )0x01u <<  0u))
 129:.\Generated_Source\PSoC4/CyLFClk.h **** 
 130:.\Generated_Source\PSoC4/CyLFClk.h ****     /* WCO Trim Register */
 131:.\Generated_Source\PSoC4/CyLFClk.h ****     #define CY_SYS_CLK_WCO_TRIM_XGM_MASK                (( uint32 ) 0x07u)
 132:.\Generated_Source\PSoC4/CyLFClk.h ****     #define CY_SYS_CLK_WCO_TRIM_XGM_SHIFT               (( uint32 ) 0x00u)
 133:.\Generated_Source\PSoC4/CyLFClk.h **** 
 134:.\Generated_Source\PSoC4/CyLFClk.h ****     #define CY_SYS_CLK_WCO_TRIM_XGM_3370NA              (( uint32 ) 0x00u)
 135:.\Generated_Source\PSoC4/CyLFClk.h ****     #define CY_SYS_CLK_WCO_TRIM_XGM_2620NA              (( uint32 ) 0x01u)
 136:.\Generated_Source\PSoC4/CyLFClk.h ****     #define CY_SYS_CLK_WCO_TRIM_XGM_2250NA              (( uint32 ) 0x02u)
 137:.\Generated_Source\PSoC4/CyLFClk.h ****     #define CY_SYS_CLK_WCO_TRIM_XGM_1500NA              (( uint32 ) 0x03u)
 138:.\Generated_Source\PSoC4/CyLFClk.h ****     #define CY_SYS_CLK_WCO_TRIM_XGM_1870NA              (( uint32 ) 0x04u)
 139:.\Generated_Source\PSoC4/CyLFClk.h ****     #define CY_SYS_CLK_WCO_TRIM_XGM_1120NA              (( uint32 ) 0x05u)
 140:.\Generated_Source\PSoC4/CyLFClk.h ****     #define CY_SYS_CLK_WCO_TRIM_XGM_750NA               (( uint32 ) 0x06u)
 141:.\Generated_Source\PSoC4/CyLFClk.h ****     #define CY_SYS_CLK_WCO_TRIM_XGM_0NA                 (( uint32 ) 0x07u)
 142:.\Generated_Source\PSoC4/CyLFClk.h **** 
 143:.\Generated_Source\PSoC4/CyLFClk.h ****     #define CY_SYS_CLK_WCO_TRIM_GM_MASK                 (( uint32 )(( uint32 )0x03u << 4u))
 144:.\Generated_Source\PSoC4/CyLFClk.h ****     #define CY_SYS_CLK_WCO_TRIM_GM_SHIFT                (( uint32 ) 0x04u)
 145:.\Generated_Source\PSoC4/CyLFClk.h ****     #define CY_SYS_CLK_WCO_TRIM_GM_HPM                  (( uint32 ) 0x01u)
 146:.\Generated_Source\PSoC4/CyLFClk.h ****     #define CY_SYS_CLK_WCO_TRIM_GM_LPM                  (( uint32 ) 0x02u)
 147:.\Generated_Source\PSoC4/CyLFClk.h **** #endif  /* (CY_IP_WCO) */
ARM GAS  C:\Users\passw\AppData\Local\Temp\ccYGIhwR.s 			page 4


 148:.\Generated_Source\PSoC4/CyLFClk.h **** 
 149:.\Generated_Source\PSoC4/CyLFClk.h **** 
 150:.\Generated_Source\PSoC4/CyLFClk.h **** /*******************************************************************************
 151:.\Generated_Source\PSoC4/CyLFClk.h **** * WDT API Constants
 152:.\Generated_Source\PSoC4/CyLFClk.h **** *******************************************************************************/
 153:.\Generated_Source\PSoC4/CyLFClk.h **** #if(CY_IP_SRSSV2)
 154:.\Generated_Source\PSoC4/CyLFClk.h ****     #define CY_SYS_WDT_MODE_NONE                (0u)
 155:.\Generated_Source\PSoC4/CyLFClk.h ****     #define CY_SYS_WDT_MODE_INT                 (1u)
 156:.\Generated_Source\PSoC4/CyLFClk.h ****     #define CY_SYS_WDT_MODE_RESET               (2u)
 157:.\Generated_Source\PSoC4/CyLFClk.h ****     #define CY_SYS_WDT_MODE_INT_RESET           (3u)
 158:.\Generated_Source\PSoC4/CyLFClk.h **** 
 159:.\Generated_Source\PSoC4/CyLFClk.h ****     #define CY_SYS_WDT_COUNTER0_MASK            ((uint32)((uint32)0x01u))
 160:.\Generated_Source\PSoC4/CyLFClk.h ****     #define CY_SYS_WDT_COUNTER1_MASK            ((uint32)((uint32)0x01u << 8u))
 161:.\Generated_Source\PSoC4/CyLFClk.h ****     #define CY_SYS_WDT_COUNTER2_MASK            ((uint32)((uint32)0x01u << 16u))
 162:.\Generated_Source\PSoC4/CyLFClk.h **** 
 163:.\Generated_Source\PSoC4/CyLFClk.h ****     #define CY_SYS_WDT_CASCADE_NONE             ((uint32)0x00u)
 164:.\Generated_Source\PSoC4/CyLFClk.h ****     #define CY_SYS_WDT_CASCADE_01               ((uint32)0x01u << 3u)
 165:.\Generated_Source\PSoC4/CyLFClk.h ****     #define CY_SYS_WDT_CASCADE_12               ((uint32)0x01u << 11u)
 166:.\Generated_Source\PSoC4/CyLFClk.h **** 
 167:.\Generated_Source\PSoC4/CyLFClk.h ****     #define CY_SYS_WDT_COUNTER0_INT             ((uint32)0x01u << 2u)
 168:.\Generated_Source\PSoC4/CyLFClk.h ****     #define CY_SYS_WDT_COUNTER1_INT             ((uint32)0x01u << 10u)
 169:.\Generated_Source\PSoC4/CyLFClk.h ****     #define CY_SYS_WDT_COUNTER2_INT             ((uint32)0x01u << 18u)
 170:.\Generated_Source\PSoC4/CyLFClk.h **** 
 171:.\Generated_Source\PSoC4/CyLFClk.h ****     #define CY_SYS_WDT_COUNTER0_RESET           ((uint32)0x01u << 3u)
 172:.\Generated_Source\PSoC4/CyLFClk.h ****     #define CY_SYS_WDT_COUNTER1_RESET           ((uint32)0x01u << 11u)
 173:.\Generated_Source\PSoC4/CyLFClk.h ****     #define CY_SYS_WDT_COUNTER2_RESET           ((uint32)0x01u << 19u)
 174:.\Generated_Source\PSoC4/CyLFClk.h ****     #define CY_SYS_WDT_COUNTERS_RESET           (CY_SYS_WDT_COUNTER0_RESET |\
 175:.\Generated_Source\PSoC4/CyLFClk.h ****                                                  CY_SYS_WDT_COUNTER1_RESET |\
 176:.\Generated_Source\PSoC4/CyLFClk.h ****                                                  CY_SYS_WDT_COUNTER2_RESET)
 177:.\Generated_Source\PSoC4/CyLFClk.h **** 
 178:.\Generated_Source\PSoC4/CyLFClk.h ****     #define CY_SYS_WDT_COUNTER0                 (0x00u)
 179:.\Generated_Source\PSoC4/CyLFClk.h ****     #define CY_SYS_WDT_COUNTER1                 (0x01u)
 180:.\Generated_Source\PSoC4/CyLFClk.h ****     #define CY_SYS_WDT_COUNTER2                 (0x02u)
 181:.\Generated_Source\PSoC4/CyLFClk.h **** 
 182:.\Generated_Source\PSoC4/CyLFClk.h ****     #define CY_SYS_WDT_COUNTER0_OFFSET            (0x00u)
 183:.\Generated_Source\PSoC4/CyLFClk.h ****     #define CY_SYS_WDT_COUNTER1_OFFSET            (0x02u)
 184:.\Generated_Source\PSoC4/CyLFClk.h ****     #define CY_SYS_WDT_COUNTER2_OFFSET            (0x04u)
 185:.\Generated_Source\PSoC4/CyLFClk.h **** 
 186:.\Generated_Source\PSoC4/CyLFClk.h ****     #define CY_SYS_WDT_MODE_MASK                ((uint32)(0x03u))
 187:.\Generated_Source\PSoC4/CyLFClk.h **** 
 188:.\Generated_Source\PSoC4/CyLFClk.h ****     #define CY_SYS_WDT_CLK_LOCK_BITS_MASK       ((uint32)0x03u << 14u)
 189:.\Generated_Source\PSoC4/CyLFClk.h ****     #define CY_SYS_WDT_CLK_LOCK_BIT0            ((uint32)0x01u << 14u)
 190:.\Generated_Source\PSoC4/CyLFClk.h ****     #define CY_SYS_WDT_CLK_LOCK_BIT1            ((uint32)0x01u << 15u)
 191:.\Generated_Source\PSoC4/CyLFClk.h **** 
 192:.\Generated_Source\PSoC4/CyLFClk.h ****     #define CY_SYS_WDT_CONFIG_BITS2_MASK        (uint32)(0x1Fu)
 193:.\Generated_Source\PSoC4/CyLFClk.h ****     #define CY_SYS_WDT_CONFIG_BITS2_POS         (uint32)(24u)
 194:.\Generated_Source\PSoC4/CyLFClk.h ****     #define CY_SYS_WDT_LOWER_16BITS_MASK        (uint32)(0x0000FFFFu)
 195:.\Generated_Source\PSoC4/CyLFClk.h ****     #define CY_SYS_WDT_HIGHER_16BITS_MASK       (uint32)(0xFFFF0000u)
 196:.\Generated_Source\PSoC4/CyLFClk.h ****     #define CY_SYS_WDT_COUNTERS_MAX             (0x03u)
 197:.\Generated_Source\PSoC4/CyLFClk.h ****     #define CY_SYS_WDT_CNT_SHIFT                (0x08u)
 198:.\Generated_Source\PSoC4/CyLFClk.h ****     #define CY_SYS_WDT_CNT_MATCH_CLR_SHIFT      (0x02u)
 199:.\Generated_Source\PSoC4/CyLFClk.h ****     #define CY_SYS_WDT_CNT_STTS_SHIFT           (0x01u)
 200:.\Generated_Source\PSoC4/CyLFClk.h ****     #define CY_SYS_WDT_CNT_MATCH_SHIFT          (0x10u)
 201:.\Generated_Source\PSoC4/CyLFClk.h **** 
 202:.\Generated_Source\PSoC4/CyLFClk.h ****     #define CY_WDT_NUM_OF_WDT                    (3u)
 203:.\Generated_Source\PSoC4/CyLFClk.h ****     #define CY_WDT_NUM_OF_CALLBACKS             (3u)
 204:.\Generated_Source\PSoC4/CyLFClk.h **** 
ARM GAS  C:\Users\passw\AppData\Local\Temp\ccYGIhwR.s 			page 5


 205:.\Generated_Source\PSoC4/CyLFClk.h ****     #if (CY_PSOC4_4100 || CY_PSOC4_4200)
 206:.\Generated_Source\PSoC4/CyLFClk.h ****         #define CY_SYS_WDT_1LFCLK_DELAY_US      ((uint16)( 67u))
 207:.\Generated_Source\PSoC4/CyLFClk.h ****         #define CY_SYS_WDT_3LFCLK_DELAY_US      ((uint16)(201u))
 208:.\Generated_Source\PSoC4/CyLFClk.h ****     #endif /* (CY_PSOC4_4100 || CY_PSOC4_4200) */
 209:.\Generated_Source\PSoC4/CyLFClk.h **** 
 210:.\Generated_Source\PSoC4/CyLFClk.h ****     #if (CY_PSOC4_4000)
 211:.\Generated_Source\PSoC4/CyLFClk.h ****         #define CY_SYS_WDT_1LFCLK_DELAY_US      ((uint16)( 50u))
 212:.\Generated_Source\PSoC4/CyLFClk.h ****         #define CY_SYS_WDT_3LFCLK_DELAY_US      ((uint16)(150u))
 213:.\Generated_Source\PSoC4/CyLFClk.h ****     #endif /* (CY_PSOC4_4000) */
 214:.\Generated_Source\PSoC4/CyLFClk.h **** 
 215:.\Generated_Source\PSoC4/CyLFClk.h ****     #if (CY_IP_WCO)
 216:.\Generated_Source\PSoC4/CyLFClk.h **** 
 217:.\Generated_Source\PSoC4/CyLFClk.h ****         #define CY_SYS_WDT_1LFCLK_DELAY_US      \
 218:.\Generated_Source\PSoC4/CyLFClk.h ****             ((CY_SYS_CLK_LFCLK_SRC_ILO == (CY_SYS_WDT_CONFIG_REG & CY_SYS_CLK_LFCLK_SEL_MASK)) ? \
 219:.\Generated_Source\PSoC4/CyLFClk.h ****                                                 ((uint16)(67u)) : \
 220:.\Generated_Source\PSoC4/CyLFClk.h ****                                                 ((uint16)(31u)))
 221:.\Generated_Source\PSoC4/CyLFClk.h **** 
 222:.\Generated_Source\PSoC4/CyLFClk.h ****         #define CY_SYS_WDT_3LFCLK_DELAY_US      \
 223:.\Generated_Source\PSoC4/CyLFClk.h ****             ((CY_SYS_CLK_LFCLK_SRC_ILO == (CY_SYS_WDT_CONFIG_REG & CY_SYS_CLK_LFCLK_SEL_MASK)) ? \
 224:.\Generated_Source\PSoC4/CyLFClk.h ****                                                 ((uint16)(201u)) : \
 225:.\Generated_Source\PSoC4/CyLFClk.h ****                                                 ((uint16)(93u)))
 226:.\Generated_Source\PSoC4/CyLFClk.h **** 
 227:.\Generated_Source\PSoC4/CyLFClk.h ****     #endif /* (CY_IP_WCO) */
 228:.\Generated_Source\PSoC4/CyLFClk.h **** 
 229:.\Generated_Source\PSoC4/CyLFClk.h **** #else
 230:.\Generated_Source\PSoC4/CyLFClk.h ****     #define CY_SYS_WDT_KEY                      ((uint32)(0xACED8865u))
 231:.\Generated_Source\PSoC4/CyLFClk.h ****     #define CY_SYS_WDT_MATCH_MASK               ((uint32)(0x0000FFFFu))
 232:.\Generated_Source\PSoC4/CyLFClk.h ****     #define CY_SYS_WDT_IGNORE_BITS_MASK         ((uint32)(0x000F0000u))
 233:.\Generated_Source\PSoC4/CyLFClk.h ****     #define CY_SYS_WDT_IGNORE_BITS_SHIFT        ((uint32)(16u))
 234:.\Generated_Source\PSoC4/CyLFClk.h ****     #define CY_SYS_WDT_LOWER_BIT_MASK           ((uint32)(0x00000001u))
 235:.\Generated_Source\PSoC4/CyLFClk.h **** 
 236:.\Generated_Source\PSoC4/CyLFClk.h ****     #define CY_SYS_WDT_COUNTER0                 (0x00u)
 237:.\Generated_Source\PSoC4/CyLFClk.h **** 
 238:.\Generated_Source\PSoC4/CyLFClk.h ****     #define CY_WDT_NUM_OF_WDT                   (1u)
 239:.\Generated_Source\PSoC4/CyLFClk.h ****     #define CY_WDT_NUM_OF_CALLBACKS             (3u)
 240:.\Generated_Source\PSoC4/CyLFClk.h **** #endif  /* (CY_IP_SRSSV2) */
 241:.\Generated_Source\PSoC4/CyLFClk.h **** 
 242:.\Generated_Source\PSoC4/CyLFClk.h **** #define CY_INT_WDT_IRQN                            (7u)
 243:.\Generated_Source\PSoC4/CyLFClk.h **** 
 244:.\Generated_Source\PSoC4/CyLFClk.h **** /* CySysXTAL_32KHZ_SetPowerMode() */
 245:.\Generated_Source\PSoC4/CyLFClk.h **** #define CY_SYS_CLK_WCO_HPM                   (0x0u)
 246:.\Generated_Source\PSoC4/CyLFClk.h **** #if(0u == (CY_PSOC4_4100M || CY_PSOC4_4200M))
 247:.\Generated_Source\PSoC4/CyLFClk.h ****     #define CY_SYS_CLK_WCO_LPM               (0x1u)
 248:.\Generated_Source\PSoC4/CyLFClk.h **** #endif /* (0u == (CY_PSOC4_4100M || CY_PSOC4_4200M)) */
 249:.\Generated_Source\PSoC4/CyLFClk.h **** 
 250:.\Generated_Source\PSoC4/CyLFClk.h **** 
 251:.\Generated_Source\PSoC4/CyLFClk.h **** #define CY_SYS_CLK_ILO_CONFIG_REG           (*(reg32 *) CYREG_CLK_ILO_CONFIG)
 252:.\Generated_Source\PSoC4/CyLFClk.h **** #define CY_SYS_CLK_ILO_CONFIG_PTR           ( (reg32 *) CYREG_CLK_ILO_CONFIG)
 253:.\Generated_Source\PSoC4/CyLFClk.h **** 
 254:.\Generated_Source\PSoC4/CyLFClk.h **** #if(CY_IP_SRSSV2)
 255:.\Generated_Source\PSoC4/CyLFClk.h ****     #define CY_SYS_CLK_ILO_TRIM_REG             (*(reg32 *) CYREG_CLK_ILO_TRIM)
 256:.\Generated_Source\PSoC4/CyLFClk.h ****     #define CY_SYS_CLK_ILO_TRIM_PTR             ( (reg32 *) CYREG_CLK_ILO_TRIM)
 257:.\Generated_Source\PSoC4/CyLFClk.h **** #endif  /* (CY_IP_SRSSV2) */
 258:.\Generated_Source\PSoC4/CyLFClk.h **** 
 259:.\Generated_Source\PSoC4/CyLFClk.h **** #if (CY_IP_WCO)
 260:.\Generated_Source\PSoC4/CyLFClk.h **** 
 261:.\Generated_Source\PSoC4/CyLFClk.h ****     #if (CY_PSOC4_4100BL || CY_PSOC4_4200BL)
ARM GAS  C:\Users\passw\AppData\Local\Temp\ccYGIhwR.s 			page 6


 262:.\Generated_Source\PSoC4/CyLFClk.h ****         /* WCO Status Register */
 263:.\Generated_Source\PSoC4/CyLFClk.h ****         #define CY_SYS_CLK_WCO_STATUS_REG               (*(reg32 *) CYREG_BLE_BLESS_WCO_STATUS)
 264:.\Generated_Source\PSoC4/CyLFClk.h ****         #define CY_SYS_CLK_WCO_STATUS_PTR               ( (reg32 *) CYREG_BLE_BLESS_WCO_STATUS)
 265:.\Generated_Source\PSoC4/CyLFClk.h **** 
 266:.\Generated_Source\PSoC4/CyLFClk.h ****         /* WCO Configuration Register */
 267:.\Generated_Source\PSoC4/CyLFClk.h ****         #define CY_SYS_CLK_WCO_CONFIG_REG               (*(reg32 *) CYREG_BLE_BLESS_WCO_CONFIG)
 268:.\Generated_Source\PSoC4/CyLFClk.h ****         #define CY_SYS_CLK_WCO_CONFIG_PTR               ( (reg32 *) CYREG_BLE_BLESS_WCO_CONFIG)
 269:.\Generated_Source\PSoC4/CyLFClk.h **** 
 270:.\Generated_Source\PSoC4/CyLFClk.h ****         /* WCO Trim Register */
 271:.\Generated_Source\PSoC4/CyLFClk.h ****         #define CY_SYS_CLK_WCO_TRIM_REG                 (*(reg32 *) CYREG_BLE_BLESS_WCO_TRIM)
 272:.\Generated_Source\PSoC4/CyLFClk.h ****         #define CY_SYS_CLK_WCO_TRIM_PTR                 ( (reg32 *) CYREG_BLE_BLESS_WCO_TRIM)
 273:.\Generated_Source\PSoC4/CyLFClk.h ****     #else   /* (CY_PSOC4_4100M || CY_PSOC4_4200M) */
 274:.\Generated_Source\PSoC4/CyLFClk.h ****         /* WCO Status Register */
 275:.\Generated_Source\PSoC4/CyLFClk.h ****         #define CY_SYS_CLK_WCO_STATUS_REG               (*(reg32 *) CYREG_WCO_STATUS)
 276:.\Generated_Source\PSoC4/CyLFClk.h ****         #define CY_SYS_CLK_WCO_STATUS_PTR               ( (reg32 *) CYREG_WCO_STATUS)
 277:.\Generated_Source\PSoC4/CyLFClk.h **** 
 278:.\Generated_Source\PSoC4/CyLFClk.h ****         /* WCO Configuration Register */
 279:.\Generated_Source\PSoC4/CyLFClk.h ****         #define CY_SYS_CLK_WCO_CONFIG_REG               (*(reg32 *) CYREG_WCO_CONFIG)
 280:.\Generated_Source\PSoC4/CyLFClk.h ****         #define CY_SYS_CLK_WCO_CONFIG_PTR               ( (reg32 *) CYREG_WCO_CONFIG)
 281:.\Generated_Source\PSoC4/CyLFClk.h **** 
 282:.\Generated_Source\PSoC4/CyLFClk.h ****         /* WCO Trim Register */
 283:.\Generated_Source\PSoC4/CyLFClk.h ****         #define CY_SYS_CLK_WCO_TRIM_REG                 (*(reg32 *) CYREG_WCO_TRIM)
 284:.\Generated_Source\PSoC4/CyLFClk.h ****         #define CY_SYS_CLK_WCO_TRIM_PTR                 ( (reg32 *) CYREG_WCO_TRIM)
 285:.\Generated_Source\PSoC4/CyLFClk.h ****     #endif /* (CY_PSOC4_4100BL || CY_PSOC4_4200BL) */
 286:.\Generated_Source\PSoC4/CyLFClk.h **** 
 287:.\Generated_Source\PSoC4/CyLFClk.h **** #endif  /* (CY_IP_WCO) */
 288:.\Generated_Source\PSoC4/CyLFClk.h **** 
 289:.\Generated_Source\PSoC4/CyLFClk.h **** 
 290:.\Generated_Source\PSoC4/CyLFClk.h **** /*******************************************************************************
 291:.\Generated_Source\PSoC4/CyLFClk.h **** * WDT API Registers
 292:.\Generated_Source\PSoC4/CyLFClk.h **** *******************************************************************************/
 293:.\Generated_Source\PSoC4/CyLFClk.h **** #if(CY_IP_SRSSV2)
 294:.\Generated_Source\PSoC4/CyLFClk.h ****     #define CY_SYS_WDT_CTRLOW_REG               (*(reg32 *) CYREG_WDT_CTRLOW)
 295:.\Generated_Source\PSoC4/CyLFClk.h ****     #define CY_SYS_WDT_CTRLOW_PTR               ( (reg32 *) CYREG_WDT_CTRLOW)
 296:.\Generated_Source\PSoC4/CyLFClk.h **** 
 297:.\Generated_Source\PSoC4/CyLFClk.h ****     #define CY_SYS_WDT_CTRHIGH_REG              (*(reg32 *) CYREG_WDT_CTRHIGH)
 298:.\Generated_Source\PSoC4/CyLFClk.h ****     #define CY_SYS_WDT_CTRHIGH_PTR              ( (reg32 *) CYREG_WDT_CTRHIGH)
 299:.\Generated_Source\PSoC4/CyLFClk.h **** 
 300:.\Generated_Source\PSoC4/CyLFClk.h ****     #define CY_SYS_WDT_MATCH_REG                (*(reg32 *) CYREG_WDT_MATCH)
 301:.\Generated_Source\PSoC4/CyLFClk.h ****     #define CY_SYS_WDT_MATCH_PTR                ( (reg32 *) CYREG_WDT_MATCH)
 302:.\Generated_Source\PSoC4/CyLFClk.h **** 
 303:.\Generated_Source\PSoC4/CyLFClk.h ****     #define CY_SYS_WDT_CONFIG_REG               (*(reg32 *) CYREG_WDT_CONFIG)
 304:.\Generated_Source\PSoC4/CyLFClk.h ****     #define CY_SYS_WDT_CONFIG_PTR               ( (reg32 *) CYREG_WDT_CONFIG)
 305:.\Generated_Source\PSoC4/CyLFClk.h **** 
 306:.\Generated_Source\PSoC4/CyLFClk.h ****     #define CY_SYS_WDT_CONTROL_REG              (*(reg32 *) CYREG_WDT_CONTROL)
 307:.\Generated_Source\PSoC4/CyLFClk.h ****     #define CY_SYS_WDT_CONTROL_PTR              ( (reg32 *) CYREG_WDT_CONTROL)
 308:.\Generated_Source\PSoC4/CyLFClk.h **** #else
 309:.\Generated_Source\PSoC4/CyLFClk.h ****     #define CY_SYS_WDT_DISABLE_KEY_REG          (*(reg32 *) CYREG_WDT_DISABLE_KEY)
 310:.\Generated_Source\PSoC4/CyLFClk.h ****     #define CY_SYS_WDT_DISABLE_KEY_PTR          ( (reg32 *) CYREG_WDT_DISABLE_KEY)
 311:.\Generated_Source\PSoC4/CyLFClk.h **** 
 312:.\Generated_Source\PSoC4/CyLFClk.h ****     #define CY_SYS_WDT_MATCH_REG                (*(reg32 *) CYREG_WDT_MATCH)
 313:.\Generated_Source\PSoC4/CyLFClk.h ****     #define CY_SYS_WDT_MATCH_PTR                ( (reg32 *) CYREG_WDT_MATCH)
 314:.\Generated_Source\PSoC4/CyLFClk.h **** 
 315:.\Generated_Source\PSoC4/CyLFClk.h ****     #define CY_SYS_WDT_COUNTER_REG              (*(reg32 *) CYREG_WDT_COUNTER)
 316:.\Generated_Source\PSoC4/CyLFClk.h ****     #define CY_SYS_WDT_COUNTER_PTR              ( (reg32 *) CYREG_WDT_COUNTER)
 317:.\Generated_Source\PSoC4/CyLFClk.h **** 
 318:.\Generated_Source\PSoC4/CyLFClk.h ****     #define CY_SYS_SRSS_INTR_REG                (*(reg32 *) CYREG_SRSS_INTR)
ARM GAS  C:\Users\passw\AppData\Local\Temp\ccYGIhwR.s 			page 7


 319:.\Generated_Source\PSoC4/CyLFClk.h ****     #define CY_SYS_SRSS_INTR_PTR                ( (reg32 *) CYREG_SRSS_INTR)
 320:.\Generated_Source\PSoC4/CyLFClk.h **** 
 321:.\Generated_Source\PSoC4/CyLFClk.h ****     #define CY_SYS_SRSS_INTR_MASK_REG           (*(reg32 *) CYREG_SRSS_INTR_MASK)
 322:.\Generated_Source\PSoC4/CyLFClk.h ****     #define CY_SYS_SRSS_INTR_MASK_PTR           ( (reg32 *) CYREG_SRSS_INTR_MASK)
 323:.\Generated_Source\PSoC4/CyLFClk.h **** #endif  /* (CY_IP_SRSSV2) */
 324:.\Generated_Source\PSoC4/CyLFClk.h **** 
 325:.\Generated_Source\PSoC4/CyLFClk.h **** #if (CY_IP_WCO)
 326:.\Generated_Source\PSoC4/CyLFClk.h **** 
 327:.\Generated_Source\PSoC4/CyLFClk.h ****     /*******************************************************************************
 328:.\Generated_Source\PSoC4/CyLFClk.h ****     * Function Name: CySysClkWcoSetHighPowerMode
 329:.\Generated_Source\PSoC4/CyLFClk.h ****     ********************************************************************************
 330:.\Generated_Source\PSoC4/CyLFClk.h ****     *
 331:.\Generated_Source\PSoC4/CyLFClk.h ****     * Summary:
 332:.\Generated_Source\PSoC4/CyLFClk.h ****     *  Sets the high power mode for the 32 KHz WCO.
 333:.\Generated_Source\PSoC4/CyLFClk.h ****     *
 334:.\Generated_Source\PSoC4/CyLFClk.h ****     * Parameters:
 335:.\Generated_Source\PSoC4/CyLFClk.h ****     *  None.
 336:.\Generated_Source\PSoC4/CyLFClk.h ****     *
 337:.\Generated_Source\PSoC4/CyLFClk.h ****     * Return:
 338:.\Generated_Source\PSoC4/CyLFClk.h ****     *  None.
 339:.\Generated_Source\PSoC4/CyLFClk.h ****     *
 340:.\Generated_Source\PSoC4/CyLFClk.h ****     * Side Effects:
 341:.\Generated_Source\PSoC4/CyLFClk.h ****     *  None.
 342:.\Generated_Source\PSoC4/CyLFClk.h ****     *
 343:.\Generated_Source\PSoC4/CyLFClk.h ****     *******************************************************************************/
 344:.\Generated_Source\PSoC4/CyLFClk.h ****     static CY_INLINE void CySysClkWcoSetHighPowerMode(void)
 345:.\Generated_Source\PSoC4/CyLFClk.h ****     {
  25              		.loc 1 345 0
  26              		.cfi_startproc
  27 0000 80B5     		push	{r7, lr}
  28              		.cfi_def_cfa_offset 8
  29              		.cfi_offset 7, -8
  30              		.cfi_offset 14, -4
  31 0002 00AF     		add	r7, sp, #0
  32              		.cfi_def_cfa_register 7
 346:.\Generated_Source\PSoC4/CyLFClk.h ****         /* Switch off low power mode for WCO */
 347:.\Generated_Source\PSoC4/CyLFClk.h ****         CY_SYS_CLK_WCO_CONFIG_REG &= (uint32) ~CY_SYS_CLK_WCO_CONFIG_LPM_EN;
  33              		.loc 1 347 0
  34 0004 0E4B     		ldr	r3, .L2
  35 0006 0E4A     		ldr	r2, .L2
  36 0008 1268     		ldr	r2, [r2]
  37 000a 0121     		mov	r1, #1
  38 000c 8A43     		bic	r2, r1
  39 000e 1A60     		str	r2, [r3]
 348:.\Generated_Source\PSoC4/CyLFClk.h ****         
 349:.\Generated_Source\PSoC4/CyLFClk.h ****         /* Switch off auto low power mode in WCO */
 350:.\Generated_Source\PSoC4/CyLFClk.h ****         CY_SYS_CLK_WCO_CONFIG_REG &= ((uint32)~CY_SYS_CLK_WCO_CONFIG_LPM_AUTO);
  40              		.loc 1 350 0
  41 0010 0B4B     		ldr	r3, .L2
  42 0012 0B4A     		ldr	r2, .L2
  43 0014 1268     		ldr	r2, [r2]
  44 0016 0221     		mov	r1, #2
  45 0018 8A43     		bic	r2, r1
  46 001a 1A60     		str	r2, [r3]
 351:.\Generated_Source\PSoC4/CyLFClk.h **** 
 352:.\Generated_Source\PSoC4/CyLFClk.h ****         /* Restore WCO trim register HPM settings */
 353:.\Generated_Source\PSoC4/CyLFClk.h ****         CY_SYS_CLK_WCO_TRIM_REG = (CY_SYS_CLK_WCO_TRIM_REG & (uint32)(~CY_SYS_CLK_WCO_TRIM_GM_MASK)
ARM GAS  C:\Users\passw\AppData\Local\Temp\ccYGIhwR.s 			page 8


  47              		.loc 1 353 0
  48 001c 094B     		ldr	r3, .L2+4
  49 001e 094A     		ldr	r2, .L2+4
  50 0020 1268     		ldr	r2, [r2]
  51 0022 3021     		mov	r1, #48
  52 0024 8A43     		bic	r2, r1
 354:.\Generated_Source\PSoC4/CyLFClk.h ****                     | (uint32)(CY_SYS_CLK_WCO_TRIM_GM_HPM << CY_SYS_CLK_WCO_TRIM_GM_SHIFT);
  53              		.loc 1 354 0
  54 0026 1021     		mov	r1, #16
  55 0028 0A43     		orr	r2, r1
 353:.\Generated_Source\PSoC4/CyLFClk.h ****                     | (uint32)(CY_SYS_CLK_WCO_TRIM_GM_HPM << CY_SYS_CLK_WCO_TRIM_GM_SHIFT);
  56              		.loc 1 353 0
  57 002a 1A60     		str	r2, [r3]
 355:.\Generated_Source\PSoC4/CyLFClk.h ****         CY_SYS_CLK_WCO_TRIM_REG = (CY_SYS_CLK_WCO_TRIM_REG & (uint32)(~CY_SYS_CLK_WCO_TRIM_XGM_MASK
  58              		.loc 1 355 0
  59 002c 054B     		ldr	r3, .L2+4
  60 002e 054A     		ldr	r2, .L2+4
  61 0030 1268     		ldr	r2, [r2]
  62 0032 0721     		mov	r1, #7
  63 0034 8A43     		bic	r2, r1
 356:.\Generated_Source\PSoC4/CyLFClk.h ****                     | (uint32)(CY_SYS_CLK_WCO_TRIM_XGM_2620NA << CY_SYS_CLK_WCO_TRIM_XGM_SHIFT);
  64              		.loc 1 356 0
  65 0036 0121     		mov	r1, #1
  66 0038 0A43     		orr	r2, r1
 355:.\Generated_Source\PSoC4/CyLFClk.h ****         CY_SYS_CLK_WCO_TRIM_REG = (CY_SYS_CLK_WCO_TRIM_REG & (uint32)(~CY_SYS_CLK_WCO_TRIM_XGM_MASK
  67              		.loc 1 355 0
  68 003a 1A60     		str	r2, [r3]
 357:.\Generated_Source\PSoC4/CyLFClk.h ****     }
  69              		.loc 1 357 0
  70 003c BD46     		mov	sp, r7
  71              		@ sp needed
  72 003e 80BD     		pop	{r7, pc}
  73              	.L3:
  74              		.align	2
  75              	.L2:
  76 0040 00002240 		.word	1075970048
  77 0044 000F2240 		.word	1075973888
  78              		.cfi_endproc
  79              	.LFE0:
  80              		.size	CySysClkWcoSetHighPowerMode, .-CySysClkWcoSetHighPowerMode
  81              		.bss
  82              		.align	2
  83              	lfclkPosedgeWdtCounter0Enabled:
  84 0000 00000000 		.space	4
  85              		.align	2
  86              	lfclkPosedgeWdtCounter0Mode:
  87 0004 00000000 		.space	4
  88              		.align	2
  89              	disableServicedIsr:
  90 0008 00000000 		.space	4
  91              		.data
  92              		.align	2
  93              		.type	wdtIsrMask, %object
  94              		.size	wdtIsrMask, 4
  95              	wdtIsrMask:
  96 0000 04040400 		.word	263172
  97              		.section	.rodata
ARM GAS  C:\Users\passw\AppData\Local\Temp\ccYGIhwR.s 			page 9


  98              		.align	2
  99              		.type	counterIntMaskTbl, %object
 100              		.size	counterIntMaskTbl, 12
 101              	counterIntMaskTbl:
 102 0000 04000000 		.word	4
 103 0004 00040000 		.word	1024
 104 0008 00000400 		.word	262144
 105              		.bss
 106              		.align	2
 107              	cySysWdtCallback:
 108 000c 00000000 		.space	12
 108      00000000 
 108      00000000 
 109              		.section	.text.CySysClkIloStart,"ax",%progbits
 110              		.align	2
 111              		.global	CySysClkIloStart
 112              		.code	16
 113              		.thumb_func
 114              		.type	CySysClkIloStart, %function
 115              	CySysClkIloStart:
 116              	.LFB1:
 117              		.file 2 ".\\Generated_Source\\PSoC4\\CyLFClk.c"
   1:.\Generated_Source\PSoC4/CyLFClk.c **** /*******************************************************************************
   2:.\Generated_Source\PSoC4/CyLFClk.c **** * File Name: .c
   3:.\Generated_Source\PSoC4/CyLFClk.c **** * Version 1.0
   4:.\Generated_Source\PSoC4/CyLFClk.c **** *
   5:.\Generated_Source\PSoC4/CyLFClk.c **** * Description:
   6:.\Generated_Source\PSoC4/CyLFClk.c **** *  This file provides the source code to API for the cy_lfclk Component.
   7:.\Generated_Source\PSoC4/CyLFClk.c **** *
   8:.\Generated_Source\PSoC4/CyLFClk.c **** ********************************************************************************
   9:.\Generated_Source\PSoC4/CyLFClk.c **** * Copyright 2008-2015, Cypress Semiconductor Corporation.  All rights reserved.
  10:.\Generated_Source\PSoC4/CyLFClk.c **** * You may use this file only in accordance with the license, terms, conditions,
  11:.\Generated_Source\PSoC4/CyLFClk.c **** * disclaimers, and limitations in the end user license agreement accompanying
  12:.\Generated_Source\PSoC4/CyLFClk.c **** * the software package with which this file was provided.
  13:.\Generated_Source\PSoC4/CyLFClk.c **** *******************************************************************************/
  14:.\Generated_Source\PSoC4/CyLFClk.c **** 
  15:.\Generated_Source\PSoC4/CyLFClk.c **** 
  16:.\Generated_Source\PSoC4/CyLFClk.c **** #include "CyLFClk.h"
  17:.\Generated_Source\PSoC4/CyLFClk.c **** #include "CyLib.h"
  18:.\Generated_Source\PSoC4/CyLFClk.c **** 
  19:.\Generated_Source\PSoC4/CyLFClk.c **** 
  20:.\Generated_Source\PSoC4/CyLFClk.c **** #if (CY_IP_WCO)
  21:.\Generated_Source\PSoC4/CyLFClk.c ****     static uint32 CySysClkGetLfclkSource(void);
  22:.\Generated_Source\PSoC4/CyLFClk.c **** #endif /* (CY_IP_WCO) */
  23:.\Generated_Source\PSoC4/CyLFClk.c **** 
  24:.\Generated_Source\PSoC4/CyLFClk.c **** #if(CY_IP_SRSSV2)
  25:.\Generated_Source\PSoC4/CyLFClk.c ****     /* CySysClkLfclkPosedgeCatch() / CySysClkLfclkPosedgeRestore() */
  26:.\Generated_Source\PSoC4/CyLFClk.c ****     static uint32 lfclkPosedgeWdtCounter0Enabled = 0u;
  27:.\Generated_Source\PSoC4/CyLFClk.c ****     static uint32 lfclkPosedgeWdtCounter0Mode    = CY_SYS_WDT_MODE_NONE;
  28:.\Generated_Source\PSoC4/CyLFClk.c **** 
  29:.\Generated_Source\PSoC4/CyLFClk.c ****     static volatile uint32 disableServicedIsr = 0uL;
  30:.\Generated_Source\PSoC4/CyLFClk.c ****     static volatile uint32 wdtIsrMask = CY_SYS_WDT_COUNTER0_INT |\
  31:.\Generated_Source\PSoC4/CyLFClk.c ****                                         CY_SYS_WDT_COUNTER1_INT |\
  32:.\Generated_Source\PSoC4/CyLFClk.c ****                                         CY_SYS_WDT_COUNTER2_INT;
  33:.\Generated_Source\PSoC4/CyLFClk.c **** 
  34:.\Generated_Source\PSoC4/CyLFClk.c ****     static const uint32 counterIntMaskTbl[CY_WDT_NUM_OF_WDT] = {CY_SYS_WDT_COUNTER0_INT,
  35:.\Generated_Source\PSoC4/CyLFClk.c ****                                                                 CY_SYS_WDT_COUNTER1_INT,
ARM GAS  C:\Users\passw\AppData\Local\Temp\ccYGIhwR.s 			page 10


  36:.\Generated_Source\PSoC4/CyLFClk.c ****                                                                 CY_SYS_WDT_COUNTER2_INT};
  37:.\Generated_Source\PSoC4/CyLFClk.c **** 
  38:.\Generated_Source\PSoC4/CyLFClk.c ****     static void CySysClkLfclkPosedgeCatch(void);
  39:.\Generated_Source\PSoC4/CyLFClk.c ****     static void CySysClkLfclkPosedgeRestore(void);
  40:.\Generated_Source\PSoC4/CyLFClk.c **** 
  41:.\Generated_Source\PSoC4/CyLFClk.c ****     static uint32 CySysWdtLocked(void);
  42:.\Generated_Source\PSoC4/CyLFClk.c ****     static uint32 CySysClkIloEnabled(void);
  43:.\Generated_Source\PSoC4/CyLFClk.c **** #endif /* (CY_IP_SRSSV2) */
  44:.\Generated_Source\PSoC4/CyLFClk.c **** 
  45:.\Generated_Source\PSoC4/CyLFClk.c **** #if(CY_IP_SRSSV2)
  46:.\Generated_Source\PSoC4/CyLFClk.c ****     static cyWdtCallback cySysWdtCallback[CY_WDT_NUM_OF_WDT] = {(void *)0, (void *)0, (void *)0};
  47:.\Generated_Source\PSoC4/CyLFClk.c **** #else
  48:.\Generated_Source\PSoC4/CyLFClk.c ****     static cyWdtCallback cySysWdtCallback = (void *)0;
  49:.\Generated_Source\PSoC4/CyLFClk.c **** #endif /* (CY_IP_SRSSV2) */
  50:.\Generated_Source\PSoC4/CyLFClk.c **** 
  51:.\Generated_Source\PSoC4/CyLFClk.c **** /*******************************************************************************
  52:.\Generated_Source\PSoC4/CyLFClk.c **** * Function Name: CySysClkIloStart
  53:.\Generated_Source\PSoC4/CyLFClk.c **** ********************************************************************************
  54:.\Generated_Source\PSoC4/CyLFClk.c **** *
  55:.\Generated_Source\PSoC4/CyLFClk.c **** * Summary:
  56:.\Generated_Source\PSoC4/CyLFClk.c **** *  Enables ILO. Refer to the device datasheet for the ILO startup time.
  57:.\Generated_Source\PSoC4/CyLFClk.c **** *
  58:.\Generated_Source\PSoC4/CyLFClk.c **** * Parameters:
  59:.\Generated_Source\PSoC4/CyLFClk.c **** *  None
  60:.\Generated_Source\PSoC4/CyLFClk.c **** *
  61:.\Generated_Source\PSoC4/CyLFClk.c **** * Return:
  62:.\Generated_Source\PSoC4/CyLFClk.c **** *  None
  63:.\Generated_Source\PSoC4/CyLFClk.c **** *
  64:.\Generated_Source\PSoC4/CyLFClk.c **** *******************************************************************************/
  65:.\Generated_Source\PSoC4/CyLFClk.c **** void CySysClkIloStart(void)
  66:.\Generated_Source\PSoC4/CyLFClk.c **** {
 118              		.loc 2 66 0
 119              		.cfi_startproc
 120 0000 80B5     		push	{r7, lr}
 121              		.cfi_def_cfa_offset 8
 122              		.cfi_offset 7, -8
 123              		.cfi_offset 14, -4
 124 0002 00AF     		add	r7, sp, #0
 125              		.cfi_def_cfa_register 7
  67:.\Generated_Source\PSoC4/CyLFClk.c ****     CY_SYS_CLK_ILO_CONFIG_REG |= CY_SYS_CLK_ILO_CONFIG_ENABLE;
 126              		.loc 2 67 0
 127 0004 044B     		ldr	r3, .L5
 128 0006 044A     		ldr	r2, .L5
 129 0008 1268     		ldr	r2, [r2]
 130 000a 8021     		mov	r1, #128
 131 000c 0906     		lsl	r1, r1, #24
 132 000e 0A43     		orr	r2, r1
 133 0010 1A60     		str	r2, [r3]
  68:.\Generated_Source\PSoC4/CyLFClk.c **** }
 134              		.loc 2 68 0
 135 0012 BD46     		mov	sp, r7
 136              		@ sp needed
 137 0014 80BD     		pop	{r7, pc}
 138              	.L6:
 139 0016 C046     		.align	2
 140              	.L5:
 141 0018 04010B40 		.word	1074462980
ARM GAS  C:\Users\passw\AppData\Local\Temp\ccYGIhwR.s 			page 11


 142              		.cfi_endproc
 143              	.LFE1:
 144              		.size	CySysClkIloStart, .-CySysClkIloStart
 145              		.section	.text.CySysClkIloStop,"ax",%progbits
 146              		.align	2
 147              		.global	CySysClkIloStop
 148              		.code	16
 149              		.thumb_func
 150              		.type	CySysClkIloStop, %function
 151              	CySysClkIloStop:
 152              	.LFB2:
  69:.\Generated_Source\PSoC4/CyLFClk.c **** 
  70:.\Generated_Source\PSoC4/CyLFClk.c **** 
  71:.\Generated_Source\PSoC4/CyLFClk.c **** /*******************************************************************************
  72:.\Generated_Source\PSoC4/CyLFClk.c **** * Function Name: CySysClkIloStop
  73:.\Generated_Source\PSoC4/CyLFClk.c **** ********************************************************************************
  74:.\Generated_Source\PSoC4/CyLFClk.c **** *
  75:.\Generated_Source\PSoC4/CyLFClk.c **** * Summary:
  76:.\Generated_Source\PSoC4/CyLFClk.c **** *  Disables ILO.
  77:.\Generated_Source\PSoC4/CyLFClk.c **** *
  78:.\Generated_Source\PSoC4/CyLFClk.c **** * Parameters:
  79:.\Generated_Source\PSoC4/CyLFClk.c **** *  None.
  80:.\Generated_Source\PSoC4/CyLFClk.c **** *
  81:.\Generated_Source\PSoC4/CyLFClk.c **** * Return:
  82:.\Generated_Source\PSoC4/CyLFClk.c **** *  None.
  83:.\Generated_Source\PSoC4/CyLFClk.c **** *
  84:.\Generated_Source\PSoC4/CyLFClk.c **** * Side Effects:
  85:.\Generated_Source\PSoC4/CyLFClk.c **** *  This function has no effect if WDT is locked (CySysWdtLock() is
  86:.\Generated_Source\PSoC4/CyLFClk.c **** *  called). Call CySysWdtUnlock() to unlock WDT and stop ILO.
  87:.\Generated_Source\PSoC4/CyLFClk.c **** *
  88:.\Generated_Source\PSoC4/CyLFClk.c **** *  PSoC 4100 / PSoC 4200: Note that ILO is required for WDT's operation.
  89:.\Generated_Source\PSoC4/CyLFClk.c **** *  ILO is required for WDT operation.
  90:.\Generated_Source\PSoC4/CyLFClk.c **** *
  91:.\Generated_Source\PSoC4/CyLFClk.c **** *  PSoC 4100-BL / PSoC 4200-BL and PSoC 4100M / PSoC 4200M:
  92:.\Generated_Source\PSoC4/CyLFClk.c **** *  Stopping ILO affects the peripheral clocked by LFCLK, if
  93:.\Generated_Source\PSoC4/CyLFClk.c **** *  LFCLK is configured to be sourced by ILO.
  94:.\Generated_Source\PSoC4/CyLFClk.c **** *
  95:.\Generated_Source\PSoC4/CyLFClk.c **** *******************************************************************************/
  96:.\Generated_Source\PSoC4/CyLFClk.c **** void CySysClkIloStop(void)
  97:.\Generated_Source\PSoC4/CyLFClk.c **** {
 153              		.loc 2 97 0
 154              		.cfi_startproc
 155 0000 90B5     		push	{r4, r7, lr}
 156              		.cfi_def_cfa_offset 12
 157              		.cfi_offset 4, -12
 158              		.cfi_offset 7, -8
 159              		.cfi_offset 14, -4
 160 0002 83B0     		sub	sp, sp, #12
 161              		.cfi_def_cfa_offset 24
 162 0004 00AF     		add	r7, sp, #0
 163              		.cfi_def_cfa_register 7
  98:.\Generated_Source\PSoC4/CyLFClk.c ****     #if(CY_IP_SRSSV2)
  99:.\Generated_Source\PSoC4/CyLFClk.c ****         uint8  interruptState;
 100:.\Generated_Source\PSoC4/CyLFClk.c **** 
 101:.\Generated_Source\PSoC4/CyLFClk.c ****         /* Do nothing if WDT is locked or ILO is disabled */
 102:.\Generated_Source\PSoC4/CyLFClk.c ****         if (0u == CySysWdtLocked())
 164              		.loc 2 102 0
ARM GAS  C:\Users\passw\AppData\Local\Temp\ccYGIhwR.s 			page 12


 165 0006 FFF7FEFF 		bl	CySysWdtLocked
 166 000a 031E     		sub	r3, r0, #0
 167 000c 22D1     		bne	.L7
 103:.\Generated_Source\PSoC4/CyLFClk.c ****         {
 104:.\Generated_Source\PSoC4/CyLFClk.c ****             if (0u != CySysClkIloEnabled())
 168              		.loc 2 104 0
 169 000e FFF7FEFF 		bl	CySysClkIloEnabled
 170 0012 031E     		sub	r3, r0, #0
 171 0014 1ED0     		beq	.L7
 105:.\Generated_Source\PSoC4/CyLFClk.c ****             {
 106:.\Generated_Source\PSoC4/CyLFClk.c **** 
 107:.\Generated_Source\PSoC4/CyLFClk.c ****             #if (CY_IP_WCO)
 108:.\Generated_Source\PSoC4/CyLFClk.c ****                 if (CY_SYS_CLK_LFCLK_SRC_ILO == CySysClkGetLfclkSource())
 172              		.loc 2 108 0
 173 0016 FFF7FEFF 		bl	CySysClkGetLfclkSource
 174 001a 031E     		sub	r3, r0, #0
 175 001c 14D1     		bne	.L9
 109:.\Generated_Source\PSoC4/CyLFClk.c ****                 {
 110:.\Generated_Source\PSoC4/CyLFClk.c ****             #endif /* (CY_IP_WCO) */
 111:.\Generated_Source\PSoC4/CyLFClk.c **** 
 112:.\Generated_Source\PSoC4/CyLFClk.c ****                 interruptState = CyEnterCriticalSection();
 176              		.loc 2 112 0
 177 001e FC1D     		add	r4, r7, #7
 178 0020 FFF7FEFF 		bl	CyEnterCriticalSection
 179 0024 031C     		mov	r3, r0
 180 0026 2370     		strb	r3, [r4]
 113:.\Generated_Source\PSoC4/CyLFClk.c ****                 CySysClkLfclkPosedgeCatch();
 181              		.loc 2 113 0
 182 0028 FFF7FEFF 		bl	CySysClkLfclkPosedgeCatch
 114:.\Generated_Source\PSoC4/CyLFClk.c ****                 CY_SYS_CLK_ILO_CONFIG_REG &= ( uint32 ) ( ~( uint32 )CY_SYS_CLK_ILO_CONFIG_ENABLE);
 183              		.loc 2 114 0
 184 002c 0B4B     		ldr	r3, .L10
 185 002e 0B4A     		ldr	r2, .L10
 186 0030 1268     		ldr	r2, [r2]
 187 0032 5200     		lsl	r2, r2, #1
 188 0034 5208     		lsr	r2, r2, #1
 189 0036 1A60     		str	r2, [r3]
 115:.\Generated_Source\PSoC4/CyLFClk.c ****                 CySysClkLfclkPosedgeRestore();
 190              		.loc 2 115 0
 191 0038 FFF7FEFF 		bl	CySysClkLfclkPosedgeRestore
 116:.\Generated_Source\PSoC4/CyLFClk.c ****                 CyExitCriticalSection(interruptState);
 192              		.loc 2 116 0
 193 003c FB1D     		add	r3, r7, #7
 194 003e 1B78     		ldrb	r3, [r3]
 195 0040 181C     		mov	r0, r3
 196 0042 FFF7FEFF 		bl	CyExitCriticalSection
 197 0046 05E0     		b	.L7
 198              	.L9:
 117:.\Generated_Source\PSoC4/CyLFClk.c **** 
 118:.\Generated_Source\PSoC4/CyLFClk.c ****             #if (CY_IP_WCO)
 119:.\Generated_Source\PSoC4/CyLFClk.c ****                 }
 120:.\Generated_Source\PSoC4/CyLFClk.c ****                 else /* Safe to disable - shortened pulse does not impact peripheral */
 121:.\Generated_Source\PSoC4/CyLFClk.c ****                 {
 122:.\Generated_Source\PSoC4/CyLFClk.c ****                     CY_SYS_CLK_ILO_CONFIG_REG &= ( uint32 ) ( ~( uint32 )CY_SYS_CLK_ILO_CONFIG_ENAB
 199              		.loc 2 122 0
 200 0048 044B     		ldr	r3, .L10
 201 004a 044A     		ldr	r2, .L10
ARM GAS  C:\Users\passw\AppData\Local\Temp\ccYGIhwR.s 			page 13


 202 004c 1268     		ldr	r2, [r2]
 203 004e 5200     		lsl	r2, r2, #1
 204 0050 5208     		lsr	r2, r2, #1
 205 0052 1A60     		str	r2, [r3]
 206              	.L7:
 123:.\Generated_Source\PSoC4/CyLFClk.c ****                 }
 124:.\Generated_Source\PSoC4/CyLFClk.c ****             #endif /* (CY_IP_WCO) */
 125:.\Generated_Source\PSoC4/CyLFClk.c **** 
 126:.\Generated_Source\PSoC4/CyLFClk.c ****             }
 127:.\Generated_Source\PSoC4/CyLFClk.c ****         }
 128:.\Generated_Source\PSoC4/CyLFClk.c ****     #else
 129:.\Generated_Source\PSoC4/CyLFClk.c ****         CY_SYS_CLK_ILO_CONFIG_REG &= ( uint32 ) ( ~( uint32 )CY_SYS_CLK_ILO_CONFIG_ENABLE);
 130:.\Generated_Source\PSoC4/CyLFClk.c ****     #endif /* (CY_IP_SRSSV2) */
 131:.\Generated_Source\PSoC4/CyLFClk.c **** }
 207              		.loc 2 131 0
 208 0054 BD46     		mov	sp, r7
 209 0056 03B0     		add	sp, sp, #12
 210              		@ sp needed
 211 0058 90BD     		pop	{r4, r7, pc}
 212              	.L11:
 213 005a C046     		.align	2
 214              	.L10:
 215 005c 04010B40 		.word	1074462980
 216              		.cfi_endproc
 217              	.LFE2:
 218              		.size	CySysClkIloStop, .-CySysClkIloStop
 219              		.section	.text.CySysClkIloEnabled,"ax",%progbits
 220              		.align	2
 221              		.code	16
 222              		.thumb_func
 223              		.type	CySysClkIloEnabled, %function
 224              	CySysClkIloEnabled:
 225              	.LFB3:
 132:.\Generated_Source\PSoC4/CyLFClk.c **** 
 133:.\Generated_Source\PSoC4/CyLFClk.c **** #if(CY_IP_SRSSV2)
 134:.\Generated_Source\PSoC4/CyLFClk.c ****     /*******************************************************************************
 135:.\Generated_Source\PSoC4/CyLFClk.c ****     * Function Name: CySysClkIloEnabled
 136:.\Generated_Source\PSoC4/CyLFClk.c ****     ********************************************************************************
 137:.\Generated_Source\PSoC4/CyLFClk.c ****     *
 138:.\Generated_Source\PSoC4/CyLFClk.c ****     * Summary:
 139:.\Generated_Source\PSoC4/CyLFClk.c ****     *  Reports the ILO enable state.
 140:.\Generated_Source\PSoC4/CyLFClk.c ****     *
 141:.\Generated_Source\PSoC4/CyLFClk.c ****     * Parameters:
 142:.\Generated_Source\PSoC4/CyLFClk.c ****     *  None.
 143:.\Generated_Source\PSoC4/CyLFClk.c ****     *
 144:.\Generated_Source\PSoC4/CyLFClk.c ****     * Return:
 145:.\Generated_Source\PSoC4/CyLFClk.c ****     *  1 if ILO is enabled, and 0 if ILO is disabled.
 146:.\Generated_Source\PSoC4/CyLFClk.c ****     *
 147:.\Generated_Source\PSoC4/CyLFClk.c ****     *******************************************************************************/
 148:.\Generated_Source\PSoC4/CyLFClk.c ****     static uint32 CySysClkIloEnabled(void)
 149:.\Generated_Source\PSoC4/CyLFClk.c ****     {
 226              		.loc 2 149 0
 227              		.cfi_startproc
 228 0000 80B5     		push	{r7, lr}
 229              		.cfi_def_cfa_offset 8
 230              		.cfi_offset 7, -8
 231              		.cfi_offset 14, -4
ARM GAS  C:\Users\passw\AppData\Local\Temp\ccYGIhwR.s 			page 14


 232 0002 00AF     		add	r7, sp, #0
 233              		.cfi_def_cfa_register 7
 150:.\Generated_Source\PSoC4/CyLFClk.c ****         /* Prohibits writing to WDT registers and ILO/WCO registers when not equal to 0 */
 151:.\Generated_Source\PSoC4/CyLFClk.c ****         return ((0u != (CY_SYS_CLK_ILO_CONFIG_REG & (uint32)(CY_SYS_CLK_ILO_CONFIG_ENABLE))) ?
 234              		.loc 2 151 0
 235 0004 044B     		ldr	r3, .L16
 236 0006 1B68     		ldr	r3, [r3]
 152:.\Generated_Source\PSoC4/CyLFClk.c ****             (uint32) 1u :
 237              		.loc 2 152 0
 238 0008 002B     		cmp	r3, #0
 239 000a 01DA     		bge	.L13
 240              		.loc 2 152 0 is_stmt 0 discriminator 1
 241 000c 0123     		mov	r3, #1
 242 000e 00E0     		b	.L14
 243              	.L13:
 244              		.loc 2 152 0 discriminator 2
 245 0010 0023     		mov	r3, #0
 246              	.L14:
 153:.\Generated_Source\PSoC4/CyLFClk.c ****             (uint32) 0u);
 154:.\Generated_Source\PSoC4/CyLFClk.c ****     }
 247              		.loc 2 154 0 is_stmt 1
 248 0012 181C     		mov	r0, r3
 249 0014 BD46     		mov	sp, r7
 250              		@ sp needed
 251 0016 80BD     		pop	{r7, pc}
 252              	.L17:
 253              		.align	2
 254              	.L16:
 255 0018 04010B40 		.word	1074462980
 256              		.cfi_endproc
 257              	.LFE3:
 258              		.size	CySysClkIloEnabled, .-CySysClkIloEnabled
 259              		.section	.text.CySysClkGetLfclkSource,"ax",%progbits
 260              		.align	2
 261              		.code	16
 262              		.thumb_func
 263              		.type	CySysClkGetLfclkSource, %function
 264              	CySysClkGetLfclkSource:
 265              	.LFB4:
 155:.\Generated_Source\PSoC4/CyLFClk.c **** #endif /* (CY_IP_SRSSV2) */
 156:.\Generated_Source\PSoC4/CyLFClk.c **** 
 157:.\Generated_Source\PSoC4/CyLFClk.c **** 
 158:.\Generated_Source\PSoC4/CyLFClk.c **** /*******************************************************************************
 159:.\Generated_Source\PSoC4/CyLFClk.c **** * Function Name: CySysClkGetLfclkSource
 160:.\Generated_Source\PSoC4/CyLFClk.c **** ********************************************************************************
 161:.\Generated_Source\PSoC4/CyLFClk.c **** *
 162:.\Generated_Source\PSoC4/CyLFClk.c **** * Summary:
 163:.\Generated_Source\PSoC4/CyLFClk.c **** *  Gets the clock source for the LFCLK clock.
 164:.\Generated_Source\PSoC4/CyLFClk.c **** *  The function is applicable only for PSoC 4100-BL and PSoC 4200-BL.
 165:.\Generated_Source\PSoC4/CyLFClk.c **** *
 166:.\Generated_Source\PSoC4/CyLFClk.c **** * Parameters:
 167:.\Generated_Source\PSoC4/CyLFClk.c **** *  None.
 168:.\Generated_Source\PSoC4/CyLFClk.c **** *
 169:.\Generated_Source\PSoC4/CyLFClk.c **** * Return:
 170:.\Generated_Source\PSoC4/CyLFClk.c **** *  The LFCLK source:
 171:.\Generated_Source\PSoC4/CyLFClk.c **** *   CY_SYS_CLK_LFCLK_SRC_ILO    Internal Low Frequency (32 kHz) Oscillator (ILO)
 172:.\Generated_Source\PSoC4/CyLFClk.c **** *   CY_SYS_CLK_LFCLK_SRC_WCO    Low Frequency Watch Crystal Oscillator (WCO)
ARM GAS  C:\Users\passw\AppData\Local\Temp\ccYGIhwR.s 			page 15


 173:.\Generated_Source\PSoC4/CyLFClk.c **** *
 174:.\Generated_Source\PSoC4/CyLFClk.c **** *******************************************************************************/
 175:.\Generated_Source\PSoC4/CyLFClk.c **** #if (CY_IP_WCO)
 176:.\Generated_Source\PSoC4/CyLFClk.c ****     static uint32 CySysClkGetLfclkSource(void)
 177:.\Generated_Source\PSoC4/CyLFClk.c ****     {
 266              		.loc 2 177 0
 267              		.cfi_startproc
 268 0000 80B5     		push	{r7, lr}
 269              		.cfi_def_cfa_offset 8
 270              		.cfi_offset 7, -8
 271              		.cfi_offset 14, -4
 272 0002 82B0     		sub	sp, sp, #8
 273              		.cfi_def_cfa_offset 16
 274 0004 00AF     		add	r7, sp, #0
 275              		.cfi_def_cfa_register 7
 178:.\Generated_Source\PSoC4/CyLFClk.c ****         uint32 lfclkSource;
 179:.\Generated_Source\PSoC4/CyLFClk.c ****         lfclkSource = CY_SYS_WDT_CONFIG_REG & CY_SYS_CLK_LFCLK_SEL_MASK;
 276              		.loc 2 179 0
 277 0006 054B     		ldr	r3, .L20
 278 0008 1B68     		ldr	r3, [r3]
 279 000a 9B0F     		lsr	r3, r3, #30
 280 000c 9B07     		lsl	r3, r3, #30
 281 000e 7B60     		str	r3, [r7, #4]
 180:.\Generated_Source\PSoC4/CyLFClk.c ****         return (lfclkSource);
 282              		.loc 2 180 0
 283 0010 7B68     		ldr	r3, [r7, #4]
 181:.\Generated_Source\PSoC4/CyLFClk.c ****     }
 284              		.loc 2 181 0
 285 0012 181C     		mov	r0, r3
 286 0014 BD46     		mov	sp, r7
 287 0016 02B0     		add	sp, sp, #8
 288              		@ sp needed
 289 0018 80BD     		pop	{r7, pc}
 290              	.L21:
 291 001a C046     		.align	2
 292              	.L20:
 293 001c 0C020B40 		.word	1074463244
 294              		.cfi_endproc
 295              	.LFE4:
 296              		.size	CySysClkGetLfclkSource, .-CySysClkGetLfclkSource
 297              		.section	.text.CySysClkSetLfclkSource,"ax",%progbits
 298              		.align	2
 299              		.global	CySysClkSetLfclkSource
 300              		.code	16
 301              		.thumb_func
 302              		.type	CySysClkSetLfclkSource, %function
 303              	CySysClkSetLfclkSource:
 304              	.LFB5:
 182:.\Generated_Source\PSoC4/CyLFClk.c **** #endif /* (CY_IP_WCO) */
 183:.\Generated_Source\PSoC4/CyLFClk.c **** 
 184:.\Generated_Source\PSoC4/CyLFClk.c **** 
 185:.\Generated_Source\PSoC4/CyLFClk.c **** /*******************************************************************************
 186:.\Generated_Source\PSoC4/CyLFClk.c **** * Function Name: CySysClkSetLfclkSource
 187:.\Generated_Source\PSoC4/CyLFClk.c **** ********************************************************************************
 188:.\Generated_Source\PSoC4/CyLFClk.c **** *
 189:.\Generated_Source\PSoC4/CyLFClk.c **** * Summary:
 190:.\Generated_Source\PSoC4/CyLFClk.c **** *  Sets the clock source for the LFCLK clock.
ARM GAS  C:\Users\passw\AppData\Local\Temp\ccYGIhwR.s 			page 16


 191:.\Generated_Source\PSoC4/CyLFClk.c **** *
 192:.\Generated_Source\PSoC4/CyLFClk.c **** *  The switch between LFCLK sources must be done between the positive edges of
 193:.\Generated_Source\PSoC4/CyLFClk.c **** *  LFCLK, because the glitch risk is around the LFCLK positive edge. To ensure
 194:.\Generated_Source\PSoC4/CyLFClk.c **** *  that the switch can be done safely, the WDT counter value is read until it
 195:.\Generated_Source\PSoC4/CyLFClk.c **** *  changes.
 196:.\Generated_Source\PSoC4/CyLFClk.c **** *
 197:.\Generated_Source\PSoC4/CyLFClk.c **** *  That means that the positive edge just finished and the switch is performed.
 198:.\Generated_Source\PSoC4/CyLFClk.c **** *  The enabled WDT counter is used for that purpose. If no counters are enabled,
 199:.\Generated_Source\PSoC4/CyLFClk.c **** *  counter 0 is enabled. And after the LFCLK source is switched, counter 0
 200:.\Generated_Source\PSoC4/CyLFClk.c **** *  configuration is restored.
 201:.\Generated_Source\PSoC4/CyLFClk.c **** *
 202:.\Generated_Source\PSoC4/CyLFClk.c **** *  The function is applicable only for PSoC 4100-BL and PSoC 4200-BL.
 203:.\Generated_Source\PSoC4/CyLFClk.c **** *
 204:.\Generated_Source\PSoC4/CyLFClk.c **** * Parameters:
 205:.\Generated_Source\PSoC4/CyLFClk.c **** *  source: One of the available LFCLK sources.
 206:.\Generated_Source\PSoC4/CyLFClk.c **** *   CY_SYS_CLK_LFCLK_SRC_ILO    Internal Low Frequency (32 kHz) Oscillator (ILO)
 207:.\Generated_Source\PSoC4/CyLFClk.c **** *   CY_SYS_CLK_LFCLK_SRC_WCO    Low Frequency Watch Crystal Oscillator (WCO)
 208:.\Generated_Source\PSoC4/CyLFClk.c **** *
 209:.\Generated_Source\PSoC4/CyLFClk.c **** * Return:
 210:.\Generated_Source\PSoC4/CyLFClk.c **** *  None
 211:.\Generated_Source\PSoC4/CyLFClk.c **** *
 212:.\Generated_Source\PSoC4/CyLFClk.c **** * Side Effects:
 213:.\Generated_Source\PSoC4/CyLFClk.c **** *  This function has no effect if WDT is locked (CySysWdtLock() is
 214:.\Generated_Source\PSoC4/CyLFClk.c **** *  called). Call CySysWdtUnlock() to unlock WDT.
 215:.\Generated_Source\PSoC4/CyLFClk.c **** *
 216:.\Generated_Source\PSoC4/CyLFClk.c **** *  Both the current source and the new source must be running and stable before
 217:.\Generated_Source\PSoC4/CyLFClk.c **** *  calling this function.
 218:.\Generated_Source\PSoC4/CyLFClk.c **** *
 219:.\Generated_Source\PSoC4/CyLFClk.c **** *  Changing the LFCLK clock source may change the LFCLK clock frequency and
 220:.\Generated_Source\PSoC4/CyLFClk.c **** *  affect the functionality that uses this clock. For example, watchdog timer
 221:.\Generated_Source\PSoC4/CyLFClk.c **** *  "uses this clock" or "this clock uses" (WDT) is clocked by LFCLK.
 222:.\Generated_Source\PSoC4/CyLFClk.c **** *
 223:.\Generated_Source\PSoC4/CyLFClk.c **** *******************************************************************************/
 224:.\Generated_Source\PSoC4/CyLFClk.c **** #if (CY_IP_WCO)
 225:.\Generated_Source\PSoC4/CyLFClk.c ****     void CySysClkSetLfclkSource(uint32 source)
 226:.\Generated_Source\PSoC4/CyLFClk.c ****     {
 305              		.loc 2 226 0
 306              		.cfi_startproc
 307 0000 90B5     		push	{r4, r7, lr}
 308              		.cfi_def_cfa_offset 12
 309              		.cfi_offset 4, -12
 310              		.cfi_offset 7, -8
 311              		.cfi_offset 14, -4
 312 0002 85B0     		sub	sp, sp, #20
 313              		.cfi_def_cfa_offset 32
 314 0004 00AF     		add	r7, sp, #0
 315              		.cfi_def_cfa_register 7
 316 0006 7860     		str	r0, [r7, #4]
 227:.\Generated_Source\PSoC4/CyLFClk.c ****         uint8  interruptState;
 228:.\Generated_Source\PSoC4/CyLFClk.c **** 
 229:.\Generated_Source\PSoC4/CyLFClk.c ****         if (CySysClkGetLfclkSource() != source)
 317              		.loc 2 229 0
 318 0008 FFF7FEFF 		bl	CySysClkGetLfclkSource
 319 000c 021E     		sub	r2, r0, #0
 320 000e 7B68     		ldr	r3, [r7, #4]
 321 0010 9A42     		cmp	r2, r3
 322 0012 19D0     		beq	.L22
ARM GAS  C:\Users\passw\AppData\Local\Temp\ccYGIhwR.s 			page 17


 230:.\Generated_Source\PSoC4/CyLFClk.c ****         {
 231:.\Generated_Source\PSoC4/CyLFClk.c ****             interruptState = CyEnterCriticalSection();
 323              		.loc 2 231 0
 324 0014 0F23     		mov	r3, #15
 325 0016 FC18     		add	r4, r7, r3
 326 0018 FFF7FEFF 		bl	CyEnterCriticalSection
 327 001c 031C     		mov	r3, r0
 328 001e 2370     		strb	r3, [r4]
 232:.\Generated_Source\PSoC4/CyLFClk.c **** 
 233:.\Generated_Source\PSoC4/CyLFClk.c ****             CySysClkLfclkPosedgeCatch();
 329              		.loc 2 233 0
 330 0020 FFF7FEFF 		bl	CySysClkLfclkPosedgeCatch
 234:.\Generated_Source\PSoC4/CyLFClk.c **** 
 235:.\Generated_Source\PSoC4/CyLFClk.c ****             CY_SYS_WDT_CONFIG_REG = (CY_SYS_WDT_CONFIG_REG & (uint32)(~CY_SYS_CLK_LFCLK_SEL_MASK)) 
 331              		.loc 2 235 0
 332 0024 0A4B     		ldr	r3, .L24
 333 0026 0A4A     		ldr	r2, .L24
 334 0028 1268     		ldr	r2, [r2]
 335 002a 9200     		lsl	r2, r2, #2
 336 002c 9108     		lsr	r1, r2, #2
 236:.\Generated_Source\PSoC4/CyLFClk.c ****                                     (source & CY_SYS_CLK_LFCLK_SEL_MASK);
 337              		.loc 2 236 0
 338 002e 7A68     		ldr	r2, [r7, #4]
 339 0030 920F     		lsr	r2, r2, #30
 340 0032 9207     		lsl	r2, r2, #30
 235:.\Generated_Source\PSoC4/CyLFClk.c ****                                     (source & CY_SYS_CLK_LFCLK_SEL_MASK);
 341              		.loc 2 235 0
 342 0034 0A43     		orr	r2, r1
 343 0036 1A60     		str	r2, [r3]
 237:.\Generated_Source\PSoC4/CyLFClk.c **** 
 238:.\Generated_Source\PSoC4/CyLFClk.c ****             CySysClkLfclkPosedgeRestore();
 344              		.loc 2 238 0
 345 0038 FFF7FEFF 		bl	CySysClkLfclkPosedgeRestore
 239:.\Generated_Source\PSoC4/CyLFClk.c **** 
 240:.\Generated_Source\PSoC4/CyLFClk.c ****             CyExitCriticalSection(interruptState);
 346              		.loc 2 240 0
 347 003c 0F23     		mov	r3, #15
 348 003e FB18     		add	r3, r7, r3
 349 0040 1B78     		ldrb	r3, [r3]
 350 0042 181C     		mov	r0, r3
 351 0044 FFF7FEFF 		bl	CyExitCriticalSection
 352              	.L22:
 241:.\Generated_Source\PSoC4/CyLFClk.c ****         }
 242:.\Generated_Source\PSoC4/CyLFClk.c ****     }
 353              		.loc 2 242 0
 354 0048 BD46     		mov	sp, r7
 355 004a 05B0     		add	sp, sp, #20
 356              		@ sp needed
 357 004c 90BD     		pop	{r4, r7, pc}
 358              	.L25:
 359 004e C046     		.align	2
 360              	.L24:
 361 0050 0C020B40 		.word	1074463244
 362              		.cfi_endproc
 363              	.LFE5:
 364              		.size	CySysClkSetLfclkSource, .-CySysClkSetLfclkSource
 365              		.section	.text.CySysClkWcoStart,"ax",%progbits
ARM GAS  C:\Users\passw\AppData\Local\Temp\ccYGIhwR.s 			page 18


 366              		.align	2
 367              		.global	CySysClkWcoStart
 368              		.code	16
 369              		.thumb_func
 370              		.type	CySysClkWcoStart, %function
 371              	CySysClkWcoStart:
 372              	.LFB6:
 243:.\Generated_Source\PSoC4/CyLFClk.c **** #endif /* (CY_IP_WCO) */
 244:.\Generated_Source\PSoC4/CyLFClk.c **** 
 245:.\Generated_Source\PSoC4/CyLFClk.c **** 
 246:.\Generated_Source\PSoC4/CyLFClk.c **** #if (CY_IP_WCO)
 247:.\Generated_Source\PSoC4/CyLFClk.c ****     /*******************************************************************************
 248:.\Generated_Source\PSoC4/CyLFClk.c ****     * Function Name: CySysClkWcoStart
 249:.\Generated_Source\PSoC4/CyLFClk.c ****     ********************************************************************************
 250:.\Generated_Source\PSoC4/CyLFClk.c ****     *
 251:.\Generated_Source\PSoC4/CyLFClk.c ****     * Summary:
 252:.\Generated_Source\PSoC4/CyLFClk.c ****     *  Enables Watch Crystal Oscillator (WCO). WCO is used as a source for
 253:.\Generated_Source\PSoC4/CyLFClk.c ****     *  LFCLK.  Similar to ILO, WCO is also available in all modes except Hibernate
 254:.\Generated_Source\PSoC4/CyLFClk.c ****     *  and Stop modes.
 255:.\Generated_Source\PSoC4/CyLFClk.c ****     *
 256:.\Generated_Source\PSoC4/CyLFClk.c ****     *  WCO is always enabled in High Power Mode (HPM). Refer to the device
 257:.\Generated_Source\PSoC4/CyLFClk.c ****     *  datasheet for the  WCO startup time. Once WCO becomes stable it can be
 258:.\Generated_Source\PSoC4/CyLFClk.c ****     *  switched to Low Power Mode (LPM). Note that oscillator can be unstable
 259:.\Generated_Source\PSoC4/CyLFClk.c ****     *  during a switch and hence its output should not be used at that moment.
 260:.\Generated_Source\PSoC4/CyLFClk.c ****     *
 261:.\Generated_Source\PSoC4/CyLFClk.c ****     *  The CySysClkWcoSetPowerMode() function configures the WCO power mode.
 262:.\Generated_Source\PSoC4/CyLFClk.c ****     *
 263:.\Generated_Source\PSoC4/CyLFClk.c ****     * Parameters:
 264:.\Generated_Source\PSoC4/CyLFClk.c ****     *  None.
 265:.\Generated_Source\PSoC4/CyLFClk.c ****     *
 266:.\Generated_Source\PSoC4/CyLFClk.c ****     * Return:
 267:.\Generated_Source\PSoC4/CyLFClk.c ****     *  None.
 268:.\Generated_Source\PSoC4/CyLFClk.c ****     *
 269:.\Generated_Source\PSoC4/CyLFClk.c ****     *******************************************************************************/
 270:.\Generated_Source\PSoC4/CyLFClk.c ****     void CySysClkWcoStart(void)
 271:.\Generated_Source\PSoC4/CyLFClk.c ****     {
 373              		.loc 2 271 0
 374              		.cfi_startproc
 375 0000 80B5     		push	{r7, lr}
 376              		.cfi_def_cfa_offset 8
 377              		.cfi_offset 7, -8
 378              		.cfi_offset 14, -4
 379 0002 00AF     		add	r7, sp, #0
 380              		.cfi_def_cfa_register 7
 272:.\Generated_Source\PSoC4/CyLFClk.c ****         CySysClkWcoSetHighPowerMode();
 381              		.loc 2 272 0
 382 0004 FFF7FEFF 		bl	CySysClkWcoSetHighPowerMode
 273:.\Generated_Source\PSoC4/CyLFClk.c ****         CY_SYS_CLK_WCO_CONFIG_REG |= CY_SYS_CLK_WCO_CONFIG_LPM_ENABLE;
 383              		.loc 2 273 0
 384 0008 044B     		ldr	r3, .L27
 385 000a 044A     		ldr	r2, .L27
 386 000c 1268     		ldr	r2, [r2]
 387 000e 8021     		mov	r1, #128
 388 0010 0906     		lsl	r1, r1, #24
 389 0012 0A43     		orr	r2, r1
 390 0014 1A60     		str	r2, [r3]
 274:.\Generated_Source\PSoC4/CyLFClk.c ****     }
ARM GAS  C:\Users\passw\AppData\Local\Temp\ccYGIhwR.s 			page 19


 391              		.loc 2 274 0
 392 0016 BD46     		mov	sp, r7
 393              		@ sp needed
 394 0018 80BD     		pop	{r7, pc}
 395              	.L28:
 396 001a C046     		.align	2
 397              	.L27:
 398 001c 00002240 		.word	1075970048
 399              		.cfi_endproc
 400              	.LFE6:
 401              		.size	CySysClkWcoStart, .-CySysClkWcoStart
 402              		.section	.text.CySysClkWcoStop,"ax",%progbits
 403              		.align	2
 404              		.global	CySysClkWcoStop
 405              		.code	16
 406              		.thumb_func
 407              		.type	CySysClkWcoStop, %function
 408              	CySysClkWcoStop:
 409              	.LFB7:
 275:.\Generated_Source\PSoC4/CyLFClk.c **** 
 276:.\Generated_Source\PSoC4/CyLFClk.c **** 
 277:.\Generated_Source\PSoC4/CyLFClk.c ****     /*******************************************************************************
 278:.\Generated_Source\PSoC4/CyLFClk.c ****     * Function Name: CySysClkWcoStop
 279:.\Generated_Source\PSoC4/CyLFClk.c ****     ********************************************************************************
 280:.\Generated_Source\PSoC4/CyLFClk.c ****     *
 281:.\Generated_Source\PSoC4/CyLFClk.c ****     * Summary:
 282:.\Generated_Source\PSoC4/CyLFClk.c ****     *  Disables the 32KHz Crystal Oscillator.
 283:.\Generated_Source\PSoC4/CyLFClk.c ****     *
 284:.\Generated_Source\PSoC4/CyLFClk.c ****     * Parameters:
 285:.\Generated_Source\PSoC4/CyLFClk.c ****     *  None.
 286:.\Generated_Source\PSoC4/CyLFClk.c ****     *
 287:.\Generated_Source\PSoC4/CyLFClk.c ****     * Return:
 288:.\Generated_Source\PSoC4/CyLFClk.c ****     *  None.
 289:.\Generated_Source\PSoC4/CyLFClk.c ****     *
 290:.\Generated_Source\PSoC4/CyLFClk.c ****     *******************************************************************************/
 291:.\Generated_Source\PSoC4/CyLFClk.c ****     void  CySysClkWcoStop(void)
 292:.\Generated_Source\PSoC4/CyLFClk.c ****     {
 410              		.loc 2 292 0
 411              		.cfi_startproc
 412 0000 90B5     		push	{r4, r7, lr}
 413              		.cfi_def_cfa_offset 12
 414              		.cfi_offset 4, -12
 415              		.cfi_offset 7, -8
 416              		.cfi_offset 14, -4
 417 0002 83B0     		sub	sp, sp, #12
 418              		.cfi_def_cfa_offset 24
 419 0004 00AF     		add	r7, sp, #0
 420              		.cfi_def_cfa_register 7
 293:.\Generated_Source\PSoC4/CyLFClk.c ****         uint8  interruptState;
 294:.\Generated_Source\PSoC4/CyLFClk.c **** 
 295:.\Generated_Source\PSoC4/CyLFClk.c ****         if (0u != CySysClkWcoEnabled())
 421              		.loc 2 295 0
 422 0006 FFF7FEFF 		bl	CySysClkWcoEnabled
 423 000a 031E     		sub	r3, r0, #0
 424 000c 21D0     		beq	.L29
 296:.\Generated_Source\PSoC4/CyLFClk.c ****         {
 297:.\Generated_Source\PSoC4/CyLFClk.c **** 
ARM GAS  C:\Users\passw\AppData\Local\Temp\ccYGIhwR.s 			page 20


 298:.\Generated_Source\PSoC4/CyLFClk.c ****             if (CY_SYS_CLK_LFCLK_SRC_WCO == CySysClkGetLfclkSource())
 425              		.loc 2 298 0
 426 000e FFF7FEFF 		bl	CySysClkGetLfclkSource
 427 0012 021C     		mov	r2, r0
 428 0014 8023     		mov	r3, #128
 429 0016 DB05     		lsl	r3, r3, #23
 430 0018 9A42     		cmp	r2, r3
 431 001a 14D1     		bne	.L31
 299:.\Generated_Source\PSoC4/CyLFClk.c ****             {
 300:.\Generated_Source\PSoC4/CyLFClk.c ****                 interruptState = CyEnterCriticalSection();
 432              		.loc 2 300 0
 433 001c FC1D     		add	r4, r7, #7
 434 001e FFF7FEFF 		bl	CyEnterCriticalSection
 435 0022 031C     		mov	r3, r0
 436 0024 2370     		strb	r3, [r4]
 301:.\Generated_Source\PSoC4/CyLFClk.c ****                 CySysClkLfclkPosedgeCatch();
 437              		.loc 2 301 0
 438 0026 FFF7FEFF 		bl	CySysClkLfclkPosedgeCatch
 302:.\Generated_Source\PSoC4/CyLFClk.c ****                 CY_SYS_CLK_WCO_CONFIG_REG &= (uint32) ~CY_SYS_CLK_WCO_CONFIG_LPM_ENABLE;
 439              		.loc 2 302 0
 440 002a 0B4B     		ldr	r3, .L32
 441 002c 0A4A     		ldr	r2, .L32
 442 002e 1268     		ldr	r2, [r2]
 443 0030 5200     		lsl	r2, r2, #1
 444 0032 5208     		lsr	r2, r2, #1
 445 0034 1A60     		str	r2, [r3]
 303:.\Generated_Source\PSoC4/CyLFClk.c ****                 CySysClkLfclkPosedgeRestore();
 446              		.loc 2 303 0
 447 0036 FFF7FEFF 		bl	CySysClkLfclkPosedgeRestore
 304:.\Generated_Source\PSoC4/CyLFClk.c ****                 CyExitCriticalSection(interruptState);
 448              		.loc 2 304 0
 449 003a FB1D     		add	r3, r7, #7
 450 003c 1B78     		ldrb	r3, [r3]
 451 003e 181C     		mov	r0, r3
 452 0040 FFF7FEFF 		bl	CyExitCriticalSection
 453 0044 05E0     		b	.L29
 454              	.L31:
 305:.\Generated_Source\PSoC4/CyLFClk.c ****             }
 306:.\Generated_Source\PSoC4/CyLFClk.c ****             else /* Safe to disable - shortened pulse does not impact peripheral */
 307:.\Generated_Source\PSoC4/CyLFClk.c ****             {
 308:.\Generated_Source\PSoC4/CyLFClk.c ****                 CY_SYS_CLK_WCO_CONFIG_REG &= (uint32) ~CY_SYS_CLK_WCO_CONFIG_LPM_ENABLE;
 455              		.loc 2 308 0
 456 0046 044B     		ldr	r3, .L32
 457 0048 034A     		ldr	r2, .L32
 458 004a 1268     		ldr	r2, [r2]
 459 004c 5200     		lsl	r2, r2, #1
 460 004e 5208     		lsr	r2, r2, #1
 461 0050 1A60     		str	r2, [r3]
 462              	.L29:
 309:.\Generated_Source\PSoC4/CyLFClk.c ****             }
 310:.\Generated_Source\PSoC4/CyLFClk.c ****         } /* Otherwise do nothing. WCO configuration cannot be changed. */
 311:.\Generated_Source\PSoC4/CyLFClk.c ****     }
 463              		.loc 2 311 0
 464 0052 BD46     		mov	sp, r7
 465 0054 03B0     		add	sp, sp, #12
 466              		@ sp needed
 467 0056 90BD     		pop	{r4, r7, pc}
ARM GAS  C:\Users\passw\AppData\Local\Temp\ccYGIhwR.s 			page 21


 468              	.L33:
 469              		.align	2
 470              	.L32:
 471 0058 00002240 		.word	1075970048
 472              		.cfi_endproc
 473              	.LFE7:
 474              		.size	CySysClkWcoStop, .-CySysClkWcoStop
 475              		.section	.text.CySysClkWcoEnabled,"ax",%progbits
 476              		.align	2
 477              		.global	CySysClkWcoEnabled
 478              		.code	16
 479              		.thumb_func
 480              		.type	CySysClkWcoEnabled, %function
 481              	CySysClkWcoEnabled:
 482              	.LFB8:
 312:.\Generated_Source\PSoC4/CyLFClk.c **** 
 313:.\Generated_Source\PSoC4/CyLFClk.c **** 
 314:.\Generated_Source\PSoC4/CyLFClk.c ****     /*******************************************************************************
 315:.\Generated_Source\PSoC4/CyLFClk.c ****     * Function Name: CySysClkWcoEnabled
 316:.\Generated_Source\PSoC4/CyLFClk.c ****     ********************************************************************************
 317:.\Generated_Source\PSoC4/CyLFClk.c ****     *
 318:.\Generated_Source\PSoC4/CyLFClk.c ****     * Summary:
 319:.\Generated_Source\PSoC4/CyLFClk.c ****     *  Reports the WCO enable state.
 320:.\Generated_Source\PSoC4/CyLFClk.c ****     *
 321:.\Generated_Source\PSoC4/CyLFClk.c ****     * Parameters:
 322:.\Generated_Source\PSoC4/CyLFClk.c ****     *  None.
 323:.\Generated_Source\PSoC4/CyLFClk.c ****     *
 324:.\Generated_Source\PSoC4/CyLFClk.c ****     * Return:
 325:.\Generated_Source\PSoC4/CyLFClk.c ****     *  1 if WCO is enabled, and 0 if WCO is disabled.
 326:.\Generated_Source\PSoC4/CyLFClk.c ****     *
 327:.\Generated_Source\PSoC4/CyLFClk.c ****     *******************************************************************************/
 328:.\Generated_Source\PSoC4/CyLFClk.c ****     uint32 CySysClkWcoEnabled(void)
 329:.\Generated_Source\PSoC4/CyLFClk.c ****     {
 483              		.loc 2 329 0
 484              		.cfi_startproc
 485 0000 80B5     		push	{r7, lr}
 486              		.cfi_def_cfa_offset 8
 487              		.cfi_offset 7, -8
 488              		.cfi_offset 14, -4
 489 0002 00AF     		add	r7, sp, #0
 490              		.cfi_def_cfa_register 7
 330:.\Generated_Source\PSoC4/CyLFClk.c ****         return ((0u != (CY_SYS_CLK_WCO_CONFIG_REG & (uint32)(CY_SYS_CLK_WCO_CONFIG_LPM_ENABLE))) ?
 491              		.loc 2 330 0
 492 0004 044B     		ldr	r3, .L38
 493 0006 1B68     		ldr	r3, [r3]
 331:.\Generated_Source\PSoC4/CyLFClk.c ****                 (uint32) 1u :
 494              		.loc 2 331 0
 495 0008 002B     		cmp	r3, #0
 496 000a 01DA     		bge	.L35
 497              		.loc 2 331 0 is_stmt 0 discriminator 1
 498 000c 0123     		mov	r3, #1
 499 000e 00E0     		b	.L36
 500              	.L35:
 501              		.loc 2 331 0 discriminator 2
 502 0010 0023     		mov	r3, #0
 503              	.L36:
 332:.\Generated_Source\PSoC4/CyLFClk.c ****                 (uint32) 0u);
ARM GAS  C:\Users\passw\AppData\Local\Temp\ccYGIhwR.s 			page 22


 333:.\Generated_Source\PSoC4/CyLFClk.c ****     }
 504              		.loc 2 333 0 is_stmt 1
 505 0012 181C     		mov	r0, r3
 506 0014 BD46     		mov	sp, r7
 507              		@ sp needed
 508 0016 80BD     		pop	{r7, pc}
 509              	.L39:
 510              		.align	2
 511              	.L38:
 512 0018 00002240 		.word	1075970048
 513              		.cfi_endproc
 514              	.LFE8:
 515              		.size	CySysClkWcoEnabled, .-CySysClkWcoEnabled
 516              		.section	.text.CySysClkWcoSetPowerMode,"ax",%progbits
 517              		.align	2
 518              		.global	CySysClkWcoSetPowerMode
 519              		.code	16
 520              		.thumb_func
 521              		.type	CySysClkWcoSetPowerMode, %function
 522              	CySysClkWcoSetPowerMode:
 523              	.LFB9:
 334:.\Generated_Source\PSoC4/CyLFClk.c **** 
 335:.\Generated_Source\PSoC4/CyLFClk.c **** 
 336:.\Generated_Source\PSoC4/CyLFClk.c ****     /*******************************************************************************
 337:.\Generated_Source\PSoC4/CyLFClk.c ****     * Function Name: CySysClkWcoSetPowerMode
 338:.\Generated_Source\PSoC4/CyLFClk.c ****     ********************************************************************************
 339:.\Generated_Source\PSoC4/CyLFClk.c ****     *
 340:.\Generated_Source\PSoC4/CyLFClk.c ****     * Summary:
 341:.\Generated_Source\PSoC4/CyLFClk.c ****     *  Sets the power mode for the 32 KHz WCO.
 342:.\Generated_Source\PSoC4/CyLFClk.c ****     *
 343:.\Generated_Source\PSoC4/CyLFClk.c ****     * Parameters:
 344:.\Generated_Source\PSoC4/CyLFClk.c ****     *  uint32 mode:
 345:.\Generated_Source\PSoC4/CyLFClk.c ****     *   CY_SYS_CLK_WCO_HPM  - The High Power mode
 346:.\Generated_Source\PSoC4/CyLFClk.c ****     *   CY_SYS_CLK_WCO_LPM  - The Low Power mode(not applicable for
 347:.\Generated_Source\PSoC4/CyLFClk.c ****     *                         PSoC 4100M / PSoC 4200M devices)
 348:.\Generated_Source\PSoC4/CyLFClk.c ****     *
 349:.\Generated_Source\PSoC4/CyLFClk.c ****     * Return:
 350:.\Generated_Source\PSoC4/CyLFClk.c ****     *  A previous power mode. The same as the parameters.
 351:.\Generated_Source\PSoC4/CyLFClk.c ****     *
 352:.\Generated_Source\PSoC4/CyLFClk.c ****     * Note:
 353:.\Generated_Source\PSoC4/CyLFClk.c ****     *  The WCO Low power mode is not applicable for the PSoC 4100M/PSoC 4200M
 354:.\Generated_Source\PSoC4/CyLFClk.c ****     *  devices.
 355:.\Generated_Source\PSoC4/CyLFClk.c ****     *
 356:.\Generated_Source\PSoC4/CyLFClk.c ****     *******************************************************************************/
 357:.\Generated_Source\PSoC4/CyLFClk.c ****     uint32 CySysClkWcoSetPowerMode(uint32 mode)
 358:.\Generated_Source\PSoC4/CyLFClk.c ****     {
 524              		.loc 2 358 0
 525              		.cfi_startproc
 526 0000 80B5     		push	{r7, lr}
 527              		.cfi_def_cfa_offset 8
 528              		.cfi_offset 7, -8
 529              		.cfi_offset 14, -4
 530 0002 84B0     		sub	sp, sp, #16
 531              		.cfi_def_cfa_offset 24
 532 0004 00AF     		add	r7, sp, #0
 533              		.cfi_def_cfa_register 7
 534 0006 7860     		str	r0, [r7, #4]
ARM GAS  C:\Users\passw\AppData\Local\Temp\ccYGIhwR.s 			page 23


 359:.\Generated_Source\PSoC4/CyLFClk.c ****         uint32 status;
 360:.\Generated_Source\PSoC4/CyLFClk.c **** 
 361:.\Generated_Source\PSoC4/CyLFClk.c ****         status = CY_SYS_CLK_WCO_CONFIG_REG & CY_SYS_CLK_WCO_CONFIG_LPM_EN;
 535              		.loc 2 361 0
 536 0008 094B     		ldr	r3, .L46
 537 000a 1B68     		ldr	r3, [r3]
 538 000c 0122     		mov	r2, #1
 539 000e 1340     		and	r3, r2
 540 0010 FB60     		str	r3, [r7, #12]
 362:.\Generated_Source\PSoC4/CyLFClk.c **** 
 363:.\Generated_Source\PSoC4/CyLFClk.c ****         switch(mode)
 541              		.loc 2 363 0
 542 0012 7B68     		ldr	r3, [r7, #4]
 543 0014 002B     		cmp	r3, #0
 544 0016 02D1     		bne	.L45
 364:.\Generated_Source\PSoC4/CyLFClk.c ****         {
 365:.\Generated_Source\PSoC4/CyLFClk.c ****         case CY_SYS_CLK_WCO_HPM:
 366:.\Generated_Source\PSoC4/CyLFClk.c ****                 CySysClkWcoSetHighPowerMode();
 545              		.loc 2 366 0
 546 0018 FFF7FEFF 		bl	CySysClkWcoSetHighPowerMode
 367:.\Generated_Source\PSoC4/CyLFClk.c ****             break;
 547              		.loc 2 367 0
 548 001c 03E0     		b	.L43
 549              	.L45:
 368:.\Generated_Source\PSoC4/CyLFClk.c **** 
 369:.\Generated_Source\PSoC4/CyLFClk.c ****         #if(!CY_PSOC4_4100M && !CY_PSOC4_4200M)
 370:.\Generated_Source\PSoC4/CyLFClk.c ****             case CY_SYS_CLK_WCO_LPM:
 371:.\Generated_Source\PSoC4/CyLFClk.c ****                     CySysClkWcoSetLowPowerMode();
 372:.\Generated_Source\PSoC4/CyLFClk.c ****                 break;
 373:.\Generated_Source\PSoC4/CyLFClk.c ****         #endif /* (!CY_PSOC4_4100M && !CY_PSOC4_4200M) */
 374:.\Generated_Source\PSoC4/CyLFClk.c **** 
 375:.\Generated_Source\PSoC4/CyLFClk.c ****         default:
 376:.\Generated_Source\PSoC4/CyLFClk.c ****             CYASSERT(0u != 0u);
 550              		.loc 2 376 0
 551 001e 0020     		mov	r0, #0
 552 0020 FFF7FEFF 		bl	CyHalt
 377:.\Generated_Source\PSoC4/CyLFClk.c ****             break;
 553              		.loc 2 377 0
 554 0024 C046     		mov	r8, r8
 555              	.L43:
 378:.\Generated_Source\PSoC4/CyLFClk.c ****         }
 379:.\Generated_Source\PSoC4/CyLFClk.c **** 
 380:.\Generated_Source\PSoC4/CyLFClk.c ****         return (status);
 556              		.loc 2 380 0
 557 0026 FB68     		ldr	r3, [r7, #12]
 381:.\Generated_Source\PSoC4/CyLFClk.c ****     }
 558              		.loc 2 381 0
 559 0028 181C     		mov	r0, r3
 560 002a BD46     		mov	sp, r7
 561 002c 04B0     		add	sp, sp, #16
 562              		@ sp needed
 563 002e 80BD     		pop	{r7, pc}
 564              	.L47:
 565              		.align	2
 566              	.L46:
 567 0030 00002240 		.word	1075970048
 568              		.cfi_endproc
ARM GAS  C:\Users\passw\AppData\Local\Temp\ccYGIhwR.s 			page 24


 569              	.LFE9:
 570              		.size	CySysClkWcoSetPowerMode, .-CySysClkWcoSetPowerMode
 571              		.section	.text.CySysWdtLock,"ax",%progbits
 572              		.align	2
 573              		.global	CySysWdtLock
 574              		.code	16
 575              		.thumb_func
 576              		.type	CySysWdtLock, %function
 577              	CySysWdtLock:
 578              	.LFB10:
 382:.\Generated_Source\PSoC4/CyLFClk.c **** 
 383:.\Generated_Source\PSoC4/CyLFClk.c **** #endif  /* (CY_IP_WCO) */
 384:.\Generated_Source\PSoC4/CyLFClk.c **** 
 385:.\Generated_Source\PSoC4/CyLFClk.c **** 
 386:.\Generated_Source\PSoC4/CyLFClk.c **** #if(CY_IP_SRSSV2)
 387:.\Generated_Source\PSoC4/CyLFClk.c **** 
 388:.\Generated_Source\PSoC4/CyLFClk.c **** 
 389:.\Generated_Source\PSoC4/CyLFClk.c ****     /*******************************************************************************
 390:.\Generated_Source\PSoC4/CyLFClk.c ****     * Function Name: CySysWdtLock
 391:.\Generated_Source\PSoC4/CyLFClk.c ****     ********************************************************************************
 392:.\Generated_Source\PSoC4/CyLFClk.c ****     *
 393:.\Generated_Source\PSoC4/CyLFClk.c ****     * Summary:
 394:.\Generated_Source\PSoC4/CyLFClk.c ****     *  Locks out configuration changes to the Watchdog timer registers and ILO
 395:.\Generated_Source\PSoC4/CyLFClk.c ****     *  configuration register.
 396:.\Generated_Source\PSoC4/CyLFClk.c ****     *
 397:.\Generated_Source\PSoC4/CyLFClk.c ****     * Parameters:
 398:.\Generated_Source\PSoC4/CyLFClk.c ****     *  None.
 399:.\Generated_Source\PSoC4/CyLFClk.c ****     *
 400:.\Generated_Source\PSoC4/CyLFClk.c ****     * Return:
 401:.\Generated_Source\PSoC4/CyLFClk.c ****     *  None.
 402:.\Generated_Source\PSoC4/CyLFClk.c ****     *
 403:.\Generated_Source\PSoC4/CyLFClk.c ****     * Side effects:
 404:.\Generated_Source\PSoC4/CyLFClk.c ****     *  After this function is called, ILO clock can't be disabled until
 405:.\Generated_Source\PSoC4/CyLFClk.c ****     *  CySysWdtUnlock() is called.
 406:.\Generated_Source\PSoC4/CyLFClk.c ****     *
 407:.\Generated_Source\PSoC4/CyLFClk.c ****     *******************************************************************************/
 408:.\Generated_Source\PSoC4/CyLFClk.c ****     void CySysWdtLock(void)
 409:.\Generated_Source\PSoC4/CyLFClk.c ****     {
 579              		.loc 2 409 0
 580              		.cfi_startproc
 581 0000 90B5     		push	{r4, r7, lr}
 582              		.cfi_def_cfa_offset 12
 583              		.cfi_offset 4, -12
 584              		.cfi_offset 7, -8
 585              		.cfi_offset 14, -4
 586 0002 83B0     		sub	sp, sp, #12
 587              		.cfi_def_cfa_offset 24
 588 0004 00AF     		add	r7, sp, #0
 589              		.cfi_def_cfa_register 7
 410:.\Generated_Source\PSoC4/CyLFClk.c ****         uint8 interruptState;
 411:.\Generated_Source\PSoC4/CyLFClk.c ****         interruptState = CyEnterCriticalSection();
 590              		.loc 2 411 0
 591 0006 FC1D     		add	r4, r7, #7
 592 0008 FFF7FEFF 		bl	CyEnterCriticalSection
 593 000c 031C     		mov	r3, r0
 594 000e 2370     		strb	r3, [r4]
 412:.\Generated_Source\PSoC4/CyLFClk.c **** 
ARM GAS  C:\Users\passw\AppData\Local\Temp\ccYGIhwR.s 			page 25


 413:.\Generated_Source\PSoC4/CyLFClk.c ****         CY_SYS_CLK_SELECT_REG = (CY_SYS_CLK_SELECT_REG & (uint32)(~CY_SYS_WDT_CLK_LOCK_BITS_MASK)) 
 595              		.loc 2 413 0
 596 0010 074B     		ldr	r3, .L49
 597 0012 074A     		ldr	r2, .L49
 598 0014 1268     		ldr	r2, [r2]
 599 0016 C021     		mov	r1, #192
 600 0018 0902     		lsl	r1, r1, #8
 601 001a 0A43     		orr	r2, r1
 602 001c 1A60     		str	r2, [r3]
 414:.\Generated_Source\PSoC4/CyLFClk.c ****                  CY_SYS_WDT_CLK_LOCK_BITS_MASK;
 415:.\Generated_Source\PSoC4/CyLFClk.c **** 
 416:.\Generated_Source\PSoC4/CyLFClk.c ****         CyExitCriticalSection(interruptState);
 603              		.loc 2 416 0
 604 001e FB1D     		add	r3, r7, #7
 605 0020 1B78     		ldrb	r3, [r3]
 606 0022 181C     		mov	r0, r3
 607 0024 FFF7FEFF 		bl	CyExitCriticalSection
 417:.\Generated_Source\PSoC4/CyLFClk.c ****     }
 608              		.loc 2 417 0
 609 0028 BD46     		mov	sp, r7
 610 002a 03B0     		add	sp, sp, #12
 611              		@ sp needed
 612 002c 90BD     		pop	{r4, r7, pc}
 613              	.L50:
 614 002e C046     		.align	2
 615              	.L49:
 616 0030 00010B40 		.word	1074462976
 617              		.cfi_endproc
 618              	.LFE10:
 619              		.size	CySysWdtLock, .-CySysWdtLock
 620              		.section	.text.CySysWdtLocked,"ax",%progbits
 621              		.align	2
 622              		.code	16
 623              		.thumb_func
 624              		.type	CySysWdtLocked, %function
 625              	CySysWdtLocked:
 626              	.LFB11:
 418:.\Generated_Source\PSoC4/CyLFClk.c **** 
 419:.\Generated_Source\PSoC4/CyLFClk.c **** 
 420:.\Generated_Source\PSoC4/CyLFClk.c ****     /*******************************************************************************
 421:.\Generated_Source\PSoC4/CyLFClk.c ****     * Function Name: CySysWdtLocked
 422:.\Generated_Source\PSoC4/CyLFClk.c ****     ********************************************************************************
 423:.\Generated_Source\PSoC4/CyLFClk.c ****     *
 424:.\Generated_Source\PSoC4/CyLFClk.c ****     * Summary:
 425:.\Generated_Source\PSoC4/CyLFClk.c ****     *  Reports the WDT lock state.
 426:.\Generated_Source\PSoC4/CyLFClk.c ****     *
 427:.\Generated_Source\PSoC4/CyLFClk.c ****     * Parameters:
 428:.\Generated_Source\PSoC4/CyLFClk.c ****     *  None
 429:.\Generated_Source\PSoC4/CyLFClk.c ****     *
 430:.\Generated_Source\PSoC4/CyLFClk.c ****     * Return:
 431:.\Generated_Source\PSoC4/CyLFClk.c ****     *  1 - WDT is locked, and 0 - WDT is unlocked.
 432:.\Generated_Source\PSoC4/CyLFClk.c ****     *
 433:.\Generated_Source\PSoC4/CyLFClk.c ****     *******************************************************************************/
 434:.\Generated_Source\PSoC4/CyLFClk.c ****     static uint32 CySysWdtLocked(void)
 435:.\Generated_Source\PSoC4/CyLFClk.c ****     {
 627              		.loc 2 435 0
 628              		.cfi_startproc
ARM GAS  C:\Users\passw\AppData\Local\Temp\ccYGIhwR.s 			page 26


 629 0000 80B5     		push	{r7, lr}
 630              		.cfi_def_cfa_offset 8
 631              		.cfi_offset 7, -8
 632              		.cfi_offset 14, -4
 633 0002 00AF     		add	r7, sp, #0
 634              		.cfi_def_cfa_register 7
 436:.\Generated_Source\PSoC4/CyLFClk.c ****         /* Prohibits writing to WDT registers and ILO/WCO registers when not equal 0 */
 437:.\Generated_Source\PSoC4/CyLFClk.c ****         return ((0u != (CY_SYS_CLK_SELECT_REG & (uint32)(CY_SYS_WDT_CLK_LOCK_BITS_MASK))) ? (uint32
 635              		.loc 2 437 0
 636 0004 054B     		ldr	r3, .L55
 637 0006 1A68     		ldr	r2, [r3]
 638 0008 C023     		mov	r3, #192
 639 000a 1B02     		lsl	r3, r3, #8
 640 000c 1340     		and	r3, r2
 641 000e 01D0     		beq	.L52
 642              		.loc 2 437 0 is_stmt 0 discriminator 1
 643 0010 0123     		mov	r3, #1
 644 0012 00E0     		b	.L53
 645              	.L52:
 646              		.loc 2 437 0 discriminator 2
 647 0014 0023     		mov	r3, #0
 648              	.L53:
 438:.\Generated_Source\PSoC4/CyLFClk.c ****     }
 649              		.loc 2 438 0 is_stmt 1 discriminator 4
 650 0016 181C     		mov	r0, r3
 651 0018 BD46     		mov	sp, r7
 652              		@ sp needed
 653 001a 80BD     		pop	{r7, pc}
 654              	.L56:
 655              		.align	2
 656              	.L55:
 657 001c 00010B40 		.word	1074462976
 658              		.cfi_endproc
 659              	.LFE11:
 660              		.size	CySysWdtLocked, .-CySysWdtLocked
 661              		.section	.text.CySysWdtUnlock,"ax",%progbits
 662              		.align	2
 663              		.global	CySysWdtUnlock
 664              		.code	16
 665              		.thumb_func
 666              		.type	CySysWdtUnlock, %function
 667              	CySysWdtUnlock:
 668              	.LFB12:
 439:.\Generated_Source\PSoC4/CyLFClk.c **** 
 440:.\Generated_Source\PSoC4/CyLFClk.c **** 
 441:.\Generated_Source\PSoC4/CyLFClk.c ****     /*******************************************************************************
 442:.\Generated_Source\PSoC4/CyLFClk.c ****     * Function Name: CySysWdtUnlock
 443:.\Generated_Source\PSoC4/CyLFClk.c ****     ********************************************************************************
 444:.\Generated_Source\PSoC4/CyLFClk.c ****     *
 445:.\Generated_Source\PSoC4/CyLFClk.c ****     * Summary:
 446:.\Generated_Source\PSoC4/CyLFClk.c ****     *  Unlocks the Watchdog Timer configuration register.
 447:.\Generated_Source\PSoC4/CyLFClk.c ****     *
 448:.\Generated_Source\PSoC4/CyLFClk.c ****     * Parameters:
 449:.\Generated_Source\PSoC4/CyLFClk.c ****     *  None.
 450:.\Generated_Source\PSoC4/CyLFClk.c ****     *
 451:.\Generated_Source\PSoC4/CyLFClk.c ****     * Return:
 452:.\Generated_Source\PSoC4/CyLFClk.c ****     *  None.
ARM GAS  C:\Users\passw\AppData\Local\Temp\ccYGIhwR.s 			page 27


 453:.\Generated_Source\PSoC4/CyLFClk.c ****     *
 454:.\Generated_Source\PSoC4/CyLFClk.c ****     *******************************************************************************/
 455:.\Generated_Source\PSoC4/CyLFClk.c ****     void CySysWdtUnlock(void)
 456:.\Generated_Source\PSoC4/CyLFClk.c ****     {
 669              		.loc 2 456 0
 670              		.cfi_startproc
 671 0000 90B5     		push	{r4, r7, lr}
 672              		.cfi_def_cfa_offset 12
 673              		.cfi_offset 4, -12
 674              		.cfi_offset 7, -8
 675              		.cfi_offset 14, -4
 676 0002 83B0     		sub	sp, sp, #12
 677              		.cfi_def_cfa_offset 24
 678 0004 00AF     		add	r7, sp, #0
 679              		.cfi_def_cfa_register 7
 457:.\Generated_Source\PSoC4/CyLFClk.c ****         uint8 interruptState;
 458:.\Generated_Source\PSoC4/CyLFClk.c ****         interruptState = CyEnterCriticalSection();
 680              		.loc 2 458 0
 681 0006 FC1D     		add	r4, r7, #7
 682 0008 FFF7FEFF 		bl	CyEnterCriticalSection
 683 000c 031C     		mov	r3, r0
 684 000e 2370     		strb	r3, [r4]
 459:.\Generated_Source\PSoC4/CyLFClk.c **** 
 460:.\Generated_Source\PSoC4/CyLFClk.c ****         /* Removing WDT lock requires two writes */
 461:.\Generated_Source\PSoC4/CyLFClk.c ****         CY_SYS_CLK_SELECT_REG = ((CY_SYS_CLK_SELECT_REG & (uint32)(~CY_SYS_WDT_CLK_LOCK_BITS_MASK))
 685              		.loc 2 461 0
 686 0010 0C4B     		ldr	r3, .L58
 687 0012 0C4A     		ldr	r2, .L58
 688 0014 1268     		ldr	r2, [r2]
 689 0016 0C49     		ldr	r1, .L58+4
 690 0018 0A40     		and	r2, r1
 691 001a 8021     		mov	r1, #128
 692 001c C901     		lsl	r1, r1, #7
 693 001e 0A43     		orr	r2, r1
 694 0020 1A60     		str	r2, [r3]
 462:.\Generated_Source\PSoC4/CyLFClk.c ****                 CY_SYS_WDT_CLK_LOCK_BIT0);
 463:.\Generated_Source\PSoC4/CyLFClk.c **** 
 464:.\Generated_Source\PSoC4/CyLFClk.c ****         CY_SYS_CLK_SELECT_REG = ((CY_SYS_CLK_SELECT_REG & (uint32)(~CY_SYS_WDT_CLK_LOCK_BITS_MASK))
 695              		.loc 2 464 0
 696 0022 084B     		ldr	r3, .L58
 697 0024 074A     		ldr	r2, .L58
 698 0026 1268     		ldr	r2, [r2]
 699 0028 0749     		ldr	r1, .L58+4
 700 002a 0A40     		and	r2, r1
 701 002c 8021     		mov	r1, #128
 702 002e 0902     		lsl	r1, r1, #8
 703 0030 0A43     		orr	r2, r1
 704 0032 1A60     		str	r2, [r3]
 465:.\Generated_Source\PSoC4/CyLFClk.c ****                 CY_SYS_WDT_CLK_LOCK_BIT1);
 466:.\Generated_Source\PSoC4/CyLFClk.c **** 
 467:.\Generated_Source\PSoC4/CyLFClk.c ****         CyExitCriticalSection(interruptState);
 705              		.loc 2 467 0
 706 0034 FB1D     		add	r3, r7, #7
 707 0036 1B78     		ldrb	r3, [r3]
 708 0038 181C     		mov	r0, r3
 709 003a FFF7FEFF 		bl	CyExitCriticalSection
 468:.\Generated_Source\PSoC4/CyLFClk.c ****     }
ARM GAS  C:\Users\passw\AppData\Local\Temp\ccYGIhwR.s 			page 28


 710              		.loc 2 468 0
 711 003e BD46     		mov	sp, r7
 712 0040 03B0     		add	sp, sp, #12
 713              		@ sp needed
 714 0042 90BD     		pop	{r4, r7, pc}
 715              	.L59:
 716              		.align	2
 717              	.L58:
 718 0044 00010B40 		.word	1074462976
 719 0048 FF3FFFFF 		.word	-49153
 720              		.cfi_endproc
 721              	.LFE12:
 722              		.size	CySysWdtUnlock, .-CySysWdtUnlock
 723              		.section	.text.CySysWdtGetEnabledStatus,"ax",%progbits
 724              		.align	2
 725              		.global	CySysWdtGetEnabledStatus
 726              		.code	16
 727              		.thumb_func
 728              		.type	CySysWdtGetEnabledStatus, %function
 729              	CySysWdtGetEnabledStatus:
 730              	.LFB13:
 469:.\Generated_Source\PSoC4/CyLFClk.c **** 
 470:.\Generated_Source\PSoC4/CyLFClk.c **** 
 471:.\Generated_Source\PSoC4/CyLFClk.c ****     /*******************************************************************************
 472:.\Generated_Source\PSoC4/CyLFClk.c ****     * Function Name: CySysWdtGetEnabledStatus
 473:.\Generated_Source\PSoC4/CyLFClk.c ****     ********************************************************************************
 474:.\Generated_Source\PSoC4/CyLFClk.c ****     *
 475:.\Generated_Source\PSoC4/CyLFClk.c ****     * Summary:
 476:.\Generated_Source\PSoC4/CyLFClk.c ****     *  Reads the enabled status of one of the three WDT counters.
 477:.\Generated_Source\PSoC4/CyLFClk.c ****     *
 478:.\Generated_Source\PSoC4/CyLFClk.c ****     * Parameters:
 479:.\Generated_Source\PSoC4/CyLFClk.c ****     *  counterNum: Valid range [0-2].  the number of the WDT counter.
 480:.\Generated_Source\PSoC4/CyLFClk.c ****     *
 481:.\Generated_Source\PSoC4/CyLFClk.c ****     * Return:
 482:.\Generated_Source\PSoC4/CyLFClk.c ****     *  The status of the WDT counter:
 483:.\Generated_Source\PSoC4/CyLFClk.c ****     *   0 - The counter is disabled.
 484:.\Generated_Source\PSoC4/CyLFClk.c ****     *   1 - The counter is enabled.
 485:.\Generated_Source\PSoC4/CyLFClk.c ****     *
 486:.\Generated_Source\PSoC4/CyLFClk.c ****     * Side Effects:
 487:.\Generated_Source\PSoC4/CyLFClk.c ****     *  This function returns an actual WDT counter status from the status register. It may
 488:.\Generated_Source\PSoC4/CyLFClk.c ****     *  take up to 3 LFCLK cycles for the WDT status register to contain actual data
 489:.\Generated_Source\PSoC4/CyLFClk.c ****     *  after the WDT counter is enabled.
 490:.\Generated_Source\PSoC4/CyLFClk.c ****     *
 491:.\Generated_Source\PSoC4/CyLFClk.c ****     *
 492:.\Generated_Source\PSoC4/CyLFClk.c ****     *******************************************************************************/
 493:.\Generated_Source\PSoC4/CyLFClk.c ****     uint32 CySysWdtGetEnabledStatus(uint32 counterNum)
 494:.\Generated_Source\PSoC4/CyLFClk.c ****     {
 731              		.loc 2 494 0
 732              		.cfi_startproc
 733 0000 80B5     		push	{r7, lr}
 734              		.cfi_def_cfa_offset 8
 735              		.cfi_offset 7, -8
 736              		.cfi_offset 14, -4
 737 0002 82B0     		sub	sp, sp, #8
 738              		.cfi_def_cfa_offset 16
 739 0004 00AF     		add	r7, sp, #0
 740              		.cfi_def_cfa_register 7
ARM GAS  C:\Users\passw\AppData\Local\Temp\ccYGIhwR.s 			page 29


 741 0006 7860     		str	r0, [r7, #4]
 495:.\Generated_Source\PSoC4/CyLFClk.c ****         CYASSERT(counterNum < CY_SYS_WDT_COUNTERS_MAX);
 742              		.loc 2 495 0
 743 0008 7B68     		ldr	r3, [r7, #4]
 744 000a 022B     		cmp	r3, #2
 745 000c 02D9     		bls	.L61
 746              		.loc 2 495 0 is_stmt 0 discriminator 1
 747 000e 0020     		mov	r0, #0
 748 0010 FFF7FEFF 		bl	CyHalt
 749              	.L61:
 496:.\Generated_Source\PSoC4/CyLFClk.c ****         return ((CY_SYS_WDT_CONTROL_REG >> ((CY_SYS_WDT_CNT_SHIFT * counterNum) + CY_SYS_WDT_CNT_ST
 750              		.loc 2 496 0 is_stmt 1
 751 0014 054B     		ldr	r3, .L63
 752 0016 1B68     		ldr	r3, [r3]
 753 0018 7A68     		ldr	r2, [r7, #4]
 754 001a D200     		lsl	r2, r2, #3
 755 001c 0132     		add	r2, r2, #1
 756 001e D340     		lsr	r3, r3, r2
 757 0020 0122     		mov	r2, #1
 758 0022 1340     		and	r3, r2
 497:.\Generated_Source\PSoC4/CyLFClk.c ****     }
 759              		.loc 2 497 0
 760 0024 181C     		mov	r0, r3
 761 0026 BD46     		mov	sp, r7
 762 0028 02B0     		add	sp, sp, #8
 763              		@ sp needed
 764 002a 80BD     		pop	{r7, pc}
 765              	.L64:
 766              		.align	2
 767              	.L63:
 768 002c 10020B40 		.word	1074463248
 769              		.cfi_endproc
 770              	.LFE13:
 771              		.size	CySysWdtGetEnabledStatus, .-CySysWdtGetEnabledStatus
 772              		.section	.text.CySysWdtSetMode,"ax",%progbits
 773              		.align	2
 774              		.global	CySysWdtSetMode
 775              		.code	16
 776              		.thumb_func
 777              		.type	CySysWdtSetMode, %function
 778              	CySysWdtSetMode:
 779              	.LFB14:
 498:.\Generated_Source\PSoC4/CyLFClk.c **** 
 499:.\Generated_Source\PSoC4/CyLFClk.c **** 
 500:.\Generated_Source\PSoC4/CyLFClk.c ****     /*******************************************************************************
 501:.\Generated_Source\PSoC4/CyLFClk.c ****     * Function Name: CySysWdtSetMode
 502:.\Generated_Source\PSoC4/CyLFClk.c ****     ********************************************************************************
 503:.\Generated_Source\PSoC4/CyLFClk.c ****     *
 504:.\Generated_Source\PSoC4/CyLFClk.c ****     * Summary:
 505:.\Generated_Source\PSoC4/CyLFClk.c ****     *   Writes the mode of one of the three WDT counters.
 506:.\Generated_Source\PSoC4/CyLFClk.c ****     *
 507:.\Generated_Source\PSoC4/CyLFClk.c ****     * Parameters:
 508:.\Generated_Source\PSoC4/CyLFClk.c ****     *   counterNum: Valid range [0-2].  The number of the WDT counter.
 509:.\Generated_Source\PSoC4/CyLFClk.c ****     *   mode:       Mode of operation for the counter.
 510:.\Generated_Source\PSoC4/CyLFClk.c ****     *       Define                     Mode
 511:.\Generated_Source\PSoC4/CyLFClk.c ****     *        CY_SYS_WDT_MODE_NONE       Free running
 512:.\Generated_Source\PSoC4/CyLFClk.c ****     *        CY_SYS_WDT_MODE_INT        The interrupt generated on match for counter 0
ARM GAS  C:\Users\passw\AppData\Local\Temp\ccYGIhwR.s 			page 30


 513:.\Generated_Source\PSoC4/CyLFClk.c ****     *                                   and 1, and on bit toggle for counter 2.
 514:.\Generated_Source\PSoC4/CyLFClk.c ****     *        CY_SYS_WDT_MODE_RESET      Reset on match (valid for counter 0 and 1
 515:.\Generated_Source\PSoC4/CyLFClk.c ****     *                                   only)
 516:.\Generated_Source\PSoC4/CyLFClk.c ****     *        CY_SYS_WDT_MODE_INT_RESET  Generate an interrupt.  Generate a reset on
 517:.\Generated_Source\PSoC4/CyLFClk.c ****     *                                   the 3rd non-handled interrupt.
 518:.\Generated_Source\PSoC4/CyLFClk.c ****     *                                   (valid for counter 0 and 1 only)
 519:.\Generated_Source\PSoC4/CyLFClk.c ****     * Return:
 520:.\Generated_Source\PSoC4/CyLFClk.c ****     *   None.
 521:.\Generated_Source\PSoC4/CyLFClk.c ****     *
 522:.\Generated_Source\PSoC4/CyLFClk.c ****     * Side Effects:
 523:.\Generated_Source\PSoC4/CyLFClk.c ****     *   WDT counter counterNum should be disabled to set a mode. Otherwise, this
 524:.\Generated_Source\PSoC4/CyLFClk.c ****     *   function call has no effect. If the specified counter is enabled,
 525:.\Generated_Source\PSoC4/CyLFClk.c ****     *   call the CySysWdtDisable() function with the corresponding parameter to
 526:.\Generated_Source\PSoC4/CyLFClk.c ****     *   disable the specified counter and wait for it to stop.
 527:.\Generated_Source\PSoC4/CyLFClk.c ****     *
 528:.\Generated_Source\PSoC4/CyLFClk.c ****     *******************************************************************************/
 529:.\Generated_Source\PSoC4/CyLFClk.c ****     void CySysWdtSetMode(uint32 counterNum, uint32 mode)
 530:.\Generated_Source\PSoC4/CyLFClk.c ****     {
 780              		.loc 2 530 0
 781              		.cfi_startproc
 782 0000 80B5     		push	{r7, lr}
 783              		.cfi_def_cfa_offset 8
 784              		.cfi_offset 7, -8
 785              		.cfi_offset 14, -4
 786 0002 84B0     		sub	sp, sp, #16
 787              		.cfi_def_cfa_offset 24
 788 0004 00AF     		add	r7, sp, #0
 789              		.cfi_def_cfa_register 7
 790 0006 7860     		str	r0, [r7, #4]
 791 0008 3960     		str	r1, [r7]
 531:.\Generated_Source\PSoC4/CyLFClk.c ****         uint32 configRegValue;
 532:.\Generated_Source\PSoC4/CyLFClk.c **** 
 533:.\Generated_Source\PSoC4/CyLFClk.c ****         CYASSERT(counterNum < CY_SYS_WDT_COUNTERS_MAX);
 792              		.loc 2 533 0
 793 000a 7B68     		ldr	r3, [r7, #4]
 794 000c 022B     		cmp	r3, #2
 795 000e 02D9     		bls	.L66
 796              		.loc 2 533 0 is_stmt 0 discriminator 1
 797 0010 0020     		mov	r0, #0
 798 0012 FFF7FEFF 		bl	CyHalt
 799              	.L66:
 534:.\Generated_Source\PSoC4/CyLFClk.c **** 
 535:.\Generated_Source\PSoC4/CyLFClk.c ****         if(0u == CySysWdtGetEnabledStatus(counterNum))
 800              		.loc 2 535 0 is_stmt 1
 801 0016 7B68     		ldr	r3, [r7, #4]
 802 0018 181C     		mov	r0, r3
 803 001a FFF7FEFF 		bl	CySysWdtGetEnabledStatus
 804 001e 031E     		sub	r3, r0, #0
 805 0020 15D1     		bne	.L65
 536:.\Generated_Source\PSoC4/CyLFClk.c ****         {
 537:.\Generated_Source\PSoC4/CyLFClk.c ****             configRegValue = CY_SYS_WDT_CONFIG_REG &
 806              		.loc 2 537 0
 807 0022 0C4B     		ldr	r3, .L68
 808 0024 1B68     		ldr	r3, [r3]
 538:.\Generated_Source\PSoC4/CyLFClk.c ****                                 (uint32)~((uint32)(CY_SYS_WDT_MODE_MASK << (counterNum * CY_SYS_WDT
 809              		.loc 2 538 0
 810 0026 7A68     		ldr	r2, [r7, #4]
ARM GAS  C:\Users\passw\AppData\Local\Temp\ccYGIhwR.s 			page 31


 811 0028 D200     		lsl	r2, r2, #3
 812 002a 111C     		mov	r1, r2
 813 002c 0322     		mov	r2, #3
 814 002e 8A40     		lsl	r2, r2, r1
 815 0030 D243     		mvn	r2, r2
 537:.\Generated_Source\PSoC4/CyLFClk.c ****                                 (uint32)~((uint32)(CY_SYS_WDT_MODE_MASK << (counterNum * CY_SYS_WDT
 816              		.loc 2 537 0
 817 0032 1340     		and	r3, r2
 818 0034 FB60     		str	r3, [r7, #12]
 539:.\Generated_Source\PSoC4/CyLFClk.c ****             configRegValue |= (uint32)((mode & CY_SYS_WDT_MODE_MASK) << (counterNum * CY_SYS_WDT_CN
 819              		.loc 2 539 0
 820 0036 3B68     		ldr	r3, [r7]
 821 0038 0322     		mov	r2, #3
 822 003a 1340     		and	r3, r2
 823 003c 7A68     		ldr	r2, [r7, #4]
 824 003e D200     		lsl	r2, r2, #3
 825 0040 9340     		lsl	r3, r3, r2
 826 0042 FA68     		ldr	r2, [r7, #12]
 827 0044 1343     		orr	r3, r2
 828 0046 FB60     		str	r3, [r7, #12]
 540:.\Generated_Source\PSoC4/CyLFClk.c ****             CY_SYS_WDT_CONFIG_REG = configRegValue;
 829              		.loc 2 540 0
 830 0048 024B     		ldr	r3, .L68
 831 004a FA68     		ldr	r2, [r7, #12]
 832 004c 1A60     		str	r2, [r3]
 833              	.L65:
 541:.\Generated_Source\PSoC4/CyLFClk.c ****         }
 542:.\Generated_Source\PSoC4/CyLFClk.c ****     }
 834              		.loc 2 542 0
 835 004e BD46     		mov	sp, r7
 836 0050 04B0     		add	sp, sp, #16
 837              		@ sp needed
 838 0052 80BD     		pop	{r7, pc}
 839              	.L69:
 840              		.align	2
 841              	.L68:
 842 0054 0C020B40 		.word	1074463244
 843              		.cfi_endproc
 844              	.LFE14:
 845              		.size	CySysWdtSetMode, .-CySysWdtSetMode
 846              		.section	.text.CySysWdtGetMode,"ax",%progbits
 847              		.align	2
 848              		.global	CySysWdtGetMode
 849              		.code	16
 850              		.thumb_func
 851              		.type	CySysWdtGetMode, %function
 852              	CySysWdtGetMode:
 853              	.LFB15:
 543:.\Generated_Source\PSoC4/CyLFClk.c **** 
 544:.\Generated_Source\PSoC4/CyLFClk.c **** 
 545:.\Generated_Source\PSoC4/CyLFClk.c ****     /*******************************************************************************
 546:.\Generated_Source\PSoC4/CyLFClk.c ****     * Function Name: CySysWdtGetMode
 547:.\Generated_Source\PSoC4/CyLFClk.c ****     ********************************************************************************
 548:.\Generated_Source\PSoC4/CyLFClk.c ****     *
 549:.\Generated_Source\PSoC4/CyLFClk.c ****     * Summary:
 550:.\Generated_Source\PSoC4/CyLFClk.c ****     *  Reads the mode of one of the three WDT counters.
 551:.\Generated_Source\PSoC4/CyLFClk.c ****     *
ARM GAS  C:\Users\passw\AppData\Local\Temp\ccYGIhwR.s 			page 32


 552:.\Generated_Source\PSoC4/CyLFClk.c ****     * Parameters:
 553:.\Generated_Source\PSoC4/CyLFClk.c ****     *  counterNum: Valid range [0-2].  The number of the WDT counter.
 554:.\Generated_Source\PSoC4/CyLFClk.c ****     *
 555:.\Generated_Source\PSoC4/CyLFClk.c ****     * Return:
 556:.\Generated_Source\PSoC4/CyLFClk.c ****     *  The mode of the counter.  The same enumerated values as the mode parameter used in
 557:.\Generated_Source\PSoC4/CyLFClk.c ****     *  CySysWdtSetMode().
 558:.\Generated_Source\PSoC4/CyLFClk.c ****     *
 559:.\Generated_Source\PSoC4/CyLFClk.c ****     *******************************************************************************/
 560:.\Generated_Source\PSoC4/CyLFClk.c ****     uint32 CySysWdtGetMode(uint32 counterNum)
 561:.\Generated_Source\PSoC4/CyLFClk.c ****     {
 854              		.loc 2 561 0
 855              		.cfi_startproc
 856 0000 80B5     		push	{r7, lr}
 857              		.cfi_def_cfa_offset 8
 858              		.cfi_offset 7, -8
 859              		.cfi_offset 14, -4
 860 0002 82B0     		sub	sp, sp, #8
 861              		.cfi_def_cfa_offset 16
 862 0004 00AF     		add	r7, sp, #0
 863              		.cfi_def_cfa_register 7
 864 0006 7860     		str	r0, [r7, #4]
 562:.\Generated_Source\PSoC4/CyLFClk.c ****         return ((CY_SYS_WDT_CONFIG_REG >> (counterNum * CY_SYS_WDT_CNT_SHIFT)) & CY_SYS_WDT_MODE_MA
 865              		.loc 2 562 0
 866 0008 054B     		ldr	r3, .L72
 867 000a 1B68     		ldr	r3, [r3]
 868 000c 7A68     		ldr	r2, [r7, #4]
 869 000e D200     		lsl	r2, r2, #3
 870 0010 D340     		lsr	r3, r3, r2
 871 0012 0322     		mov	r2, #3
 872 0014 1340     		and	r3, r2
 563:.\Generated_Source\PSoC4/CyLFClk.c ****     }
 873              		.loc 2 563 0
 874 0016 181C     		mov	r0, r3
 875 0018 BD46     		mov	sp, r7
 876 001a 02B0     		add	sp, sp, #8
 877              		@ sp needed
 878 001c 80BD     		pop	{r7, pc}
 879              	.L73:
 880 001e C046     		.align	2
 881              	.L72:
 882 0020 0C020B40 		.word	1074463244
 883              		.cfi_endproc
 884              	.LFE15:
 885              		.size	CySysWdtGetMode, .-CySysWdtGetMode
 886              		.section	.text.CySysWdtSetClearOnMatch,"ax",%progbits
 887              		.align	2
 888              		.global	CySysWdtSetClearOnMatch
 889              		.code	16
 890              		.thumb_func
 891              		.type	CySysWdtSetClearOnMatch, %function
 892              	CySysWdtSetClearOnMatch:
 893              	.LFB16:
 564:.\Generated_Source\PSoC4/CyLFClk.c **** 
 565:.\Generated_Source\PSoC4/CyLFClk.c **** 
 566:.\Generated_Source\PSoC4/CyLFClk.c ****     /*******************************************************************************
 567:.\Generated_Source\PSoC4/CyLFClk.c ****     * Function Name: CySysWdtSetClearOnMatch
 568:.\Generated_Source\PSoC4/CyLFClk.c ****     ********************************************************************************
ARM GAS  C:\Users\passw\AppData\Local\Temp\ccYGIhwR.s 			page 33


 569:.\Generated_Source\PSoC4/CyLFClk.c ****     *
 570:.\Generated_Source\PSoC4/CyLFClk.c ****     * Summary:
 571:.\Generated_Source\PSoC4/CyLFClk.c ****     *  Configures the WDT counter "clear on match" setting.  If configured to "clear
 572:.\Generated_Source\PSoC4/CyLFClk.c ****     *  on match", the counter counts from 0 to MatchValue giving it a
 573:.\Generated_Source\PSoC4/CyLFClk.c ****     *  period of (MatchValue + 1).
 574:.\Generated_Source\PSoC4/CyLFClk.c ****     *
 575:.\Generated_Source\PSoC4/CyLFClk.c ****     * Parameters:
 576:.\Generated_Source\PSoC4/CyLFClk.c ****     *  counterNum:
 577:.\Generated_Source\PSoC4/CyLFClk.c ****     *   Valid range [0-1].  The number of the WDT counter.  The match values are not
 578:.\Generated_Source\PSoC4/CyLFClk.c ****     *   supported by counter 2.
 579:.\Generated_Source\PSoC4/CyLFClk.c ****     *
 580:.\Generated_Source\PSoC4/CyLFClk.c ****     * enable:
 581:.\Generated_Source\PSoC4/CyLFClk.c ****     *   0 to disable, 1 to enable
 582:.\Generated_Source\PSoC4/CyLFClk.c ****     *
 583:.\Generated_Source\PSoC4/CyLFClk.c ****     * Return:
 584:.\Generated_Source\PSoC4/CyLFClk.c ****     *   None.
 585:.\Generated_Source\PSoC4/CyLFClk.c ****     *
 586:.\Generated_Source\PSoC4/CyLFClk.c ****     * Side Effects:
 587:.\Generated_Source\PSoC4/CyLFClk.c ****     *   WDT counter counterNum should be disabled. Otherwise this function call
 588:.\Generated_Source\PSoC4/CyLFClk.c ****     *   has no effect. If the specified counter is enabled, call the CySysWdtDisable()
 589:.\Generated_Source\PSoC4/CyLFClk.c ****     *   function with the corresponding parameter to disable the specified counter and
 590:.\Generated_Source\PSoC4/CyLFClk.c ****     *   wait for it to stop. This may take up to three LFCLK cycles.
 591:.\Generated_Source\PSoC4/CyLFClk.c ****     *
 592:.\Generated_Source\PSoC4/CyLFClk.c ****     *******************************************************************************/
 593:.\Generated_Source\PSoC4/CyLFClk.c ****     void CySysWdtSetClearOnMatch(uint32 counterNum, uint32 enable)
 594:.\Generated_Source\PSoC4/CyLFClk.c ****     {
 894              		.loc 2 594 0
 895              		.cfi_startproc
 896 0000 80B5     		push	{r7, lr}
 897              		.cfi_def_cfa_offset 8
 898              		.cfi_offset 7, -8
 899              		.cfi_offset 14, -4
 900 0002 84B0     		sub	sp, sp, #16
 901              		.cfi_def_cfa_offset 24
 902 0004 00AF     		add	r7, sp, #0
 903              		.cfi_def_cfa_register 7
 904 0006 7860     		str	r0, [r7, #4]
 905 0008 3960     		str	r1, [r7]
 595:.\Generated_Source\PSoC4/CyLFClk.c ****         uint32 configRegValue;
 596:.\Generated_Source\PSoC4/CyLFClk.c **** 
 597:.\Generated_Source\PSoC4/CyLFClk.c ****         CYASSERT((counterNum == CY_SYS_WDT_COUNTER0) ||
 906              		.loc 2 597 0
 907 000a 7B68     		ldr	r3, [r7, #4]
 908 000c 002B     		cmp	r3, #0
 909 000e 02D0     		beq	.L75
 910              		.loc 2 597 0 is_stmt 0 discriminator 2
 911 0010 7B68     		ldr	r3, [r7, #4]
 912 0012 012B     		cmp	r3, #1
 913 0014 01D1     		bne	.L76
 914              	.L75:
 915              		.loc 2 597 0 discriminator 3
 916 0016 0123     		mov	r3, #1
 917 0018 00E0     		b	.L77
 918              	.L76:
 919              		.loc 2 597 0 discriminator 4
 920 001a 0023     		mov	r3, #0
 921              	.L77:
ARM GAS  C:\Users\passw\AppData\Local\Temp\ccYGIhwR.s 			page 34


 922              		.loc 2 597 0 discriminator 6
 923 001c 002B     		cmp	r3, #0
 924 001e 02D1     		bne	.L78
 925              		.loc 2 597 0 discriminator 7
 926 0020 0020     		mov	r0, #0
 927 0022 FFF7FEFF 		bl	CyHalt
 928              	.L78:
 598:.\Generated_Source\PSoC4/CyLFClk.c ****                  (counterNum == CY_SYS_WDT_COUNTER1));
 599:.\Generated_Source\PSoC4/CyLFClk.c **** 
 600:.\Generated_Source\PSoC4/CyLFClk.c ****         if(0u == CySysWdtGetEnabledStatus(counterNum))
 929              		.loc 2 600 0 is_stmt 1
 930 0026 7B68     		ldr	r3, [r7, #4]
 931 0028 181C     		mov	r0, r3
 932 002a FFF7FEFF 		bl	CySysWdtGetEnabledStatus
 933 002e 031E     		sub	r3, r0, #0
 934 0030 16D1     		bne	.L74
 601:.\Generated_Source\PSoC4/CyLFClk.c ****         {
 602:.\Generated_Source\PSoC4/CyLFClk.c ****             configRegValue = CY_SYS_WDT_CONFIG_REG &
 935              		.loc 2 602 0
 936 0032 0D4B     		ldr	r3, .L80
 937 0034 1B68     		ldr	r3, [r3]
 603:.\Generated_Source\PSoC4/CyLFClk.c ****                 (uint32)~((uint32)((uint32)1u << ((counterNum * CY_SYS_WDT_CNT_SHIFT) + CY_SYS_WDT_
 938              		.loc 2 603 0
 939 0036 7A68     		ldr	r2, [r7, #4]
 940 0038 D200     		lsl	r2, r2, #3
 941 003a 0232     		add	r2, r2, #2
 942 003c 111C     		mov	r1, r2
 943 003e 0122     		mov	r2, #1
 944 0040 8A40     		lsl	r2, r2, r1
 945 0042 D243     		mvn	r2, r2
 602:.\Generated_Source\PSoC4/CyLFClk.c ****                 (uint32)~((uint32)((uint32)1u << ((counterNum * CY_SYS_WDT_CNT_SHIFT) + CY_SYS_WDT_
 946              		.loc 2 602 0
 947 0044 1340     		and	r3, r2
 948 0046 FB60     		str	r3, [r7, #12]
 604:.\Generated_Source\PSoC4/CyLFClk.c **** 
 605:.\Generated_Source\PSoC4/CyLFClk.c ****             configRegValue
 606:.\Generated_Source\PSoC4/CyLFClk.c ****                 |= (uint32)(enable << ((counterNum * CY_SYS_WDT_CNT_SHIFT) + CY_SYS_WDT_CNT_MATCH_C
 949              		.loc 2 606 0
 950 0048 7B68     		ldr	r3, [r7, #4]
 951 004a DB00     		lsl	r3, r3, #3
 952 004c 0233     		add	r3, r3, #2
 953 004e 1A1C     		mov	r2, r3
 954 0050 3B68     		ldr	r3, [r7]
 955 0052 9340     		lsl	r3, r3, r2
 956 0054 FA68     		ldr	r2, [r7, #12]
 957 0056 1343     		orr	r3, r2
 958 0058 FB60     		str	r3, [r7, #12]
 607:.\Generated_Source\PSoC4/CyLFClk.c **** 
 608:.\Generated_Source\PSoC4/CyLFClk.c ****             CY_SYS_WDT_CONFIG_REG = configRegValue;
 959              		.loc 2 608 0
 960 005a 034B     		ldr	r3, .L80
 961 005c FA68     		ldr	r2, [r7, #12]
 962 005e 1A60     		str	r2, [r3]
 963              	.L74:
 609:.\Generated_Source\PSoC4/CyLFClk.c ****         }
 610:.\Generated_Source\PSoC4/CyLFClk.c ****     }
 964              		.loc 2 610 0
ARM GAS  C:\Users\passw\AppData\Local\Temp\ccYGIhwR.s 			page 35


 965 0060 BD46     		mov	sp, r7
 966 0062 04B0     		add	sp, sp, #16
 967              		@ sp needed
 968 0064 80BD     		pop	{r7, pc}
 969              	.L81:
 970 0066 C046     		.align	2
 971              	.L80:
 972 0068 0C020B40 		.word	1074463244
 973              		.cfi_endproc
 974              	.LFE16:
 975              		.size	CySysWdtSetClearOnMatch, .-CySysWdtSetClearOnMatch
 976              		.section	.text.CySysWdtGetClearOnMatch,"ax",%progbits
 977              		.align	2
 978              		.global	CySysWdtGetClearOnMatch
 979              		.code	16
 980              		.thumb_func
 981              		.type	CySysWdtGetClearOnMatch, %function
 982              	CySysWdtGetClearOnMatch:
 983              	.LFB17:
 611:.\Generated_Source\PSoC4/CyLFClk.c **** 
 612:.\Generated_Source\PSoC4/CyLFClk.c **** 
 613:.\Generated_Source\PSoC4/CyLFClk.c ****     /*******************************************************************************
 614:.\Generated_Source\PSoC4/CyLFClk.c ****     * Function Name: CySysWdtGetClearOnMatch
 615:.\Generated_Source\PSoC4/CyLFClk.c ****     ********************************************************************************
 616:.\Generated_Source\PSoC4/CyLFClk.c ****     *
 617:.\Generated_Source\PSoC4/CyLFClk.c ****     * Summary:
 618:.\Generated_Source\PSoC4/CyLFClk.c ****     *  Reads the "clear on match" setting for the specified counter.
 619:.\Generated_Source\PSoC4/CyLFClk.c ****     *
 620:.\Generated_Source\PSoC4/CyLFClk.c ****     * Parameters:
 621:.\Generated_Source\PSoC4/CyLFClk.c ****     *   counterNum: Valid range [0-1].  The number of the WDT counter.  The match values are
 622:.\Generated_Source\PSoC4/CyLFClk.c ****     *               not supported by counter 2.
 623:.\Generated_Source\PSoC4/CyLFClk.c ****     *
 624:.\Generated_Source\PSoC4/CyLFClk.c ****     * Return:
 625:.\Generated_Source\PSoC4/CyLFClk.c ****     *   The "clear on match" status: 1 if enabled, 0 if disabled
 626:.\Generated_Source\PSoC4/CyLFClk.c ****     *
 627:.\Generated_Source\PSoC4/CyLFClk.c ****     *******************************************************************************/
 628:.\Generated_Source\PSoC4/CyLFClk.c ****     uint32 CySysWdtGetClearOnMatch(uint32 counterNum)
 629:.\Generated_Source\PSoC4/CyLFClk.c ****     {
 984              		.loc 2 629 0
 985              		.cfi_startproc
 986 0000 80B5     		push	{r7, lr}
 987              		.cfi_def_cfa_offset 8
 988              		.cfi_offset 7, -8
 989              		.cfi_offset 14, -4
 990 0002 82B0     		sub	sp, sp, #8
 991              		.cfi_def_cfa_offset 16
 992 0004 00AF     		add	r7, sp, #0
 993              		.cfi_def_cfa_register 7
 994 0006 7860     		str	r0, [r7, #4]
 630:.\Generated_Source\PSoC4/CyLFClk.c ****         CYASSERT((counterNum == CY_SYS_WDT_COUNTER0) ||
 995              		.loc 2 630 0
 996 0008 7B68     		ldr	r3, [r7, #4]
 997 000a 002B     		cmp	r3, #0
 998 000c 02D0     		beq	.L83
 999              		.loc 2 630 0 is_stmt 0 discriminator 2
 1000 000e 7B68     		ldr	r3, [r7, #4]
 1001 0010 012B     		cmp	r3, #1
ARM GAS  C:\Users\passw\AppData\Local\Temp\ccYGIhwR.s 			page 36


 1002 0012 01D1     		bne	.L84
 1003              	.L83:
 1004              		.loc 2 630 0 discriminator 3
 1005 0014 0123     		mov	r3, #1
 1006 0016 00E0     		b	.L85
 1007              	.L84:
 1008              		.loc 2 630 0 discriminator 4
 1009 0018 0023     		mov	r3, #0
 1010              	.L85:
 1011              		.loc 2 630 0 discriminator 6
 1012 001a 002B     		cmp	r3, #0
 1013 001c 02D1     		bne	.L86
 1014              		.loc 2 630 0 discriminator 7
 1015 001e 0020     		mov	r0, #0
 1016 0020 FFF7FEFF 		bl	CyHalt
 1017              	.L86:
 631:.\Generated_Source\PSoC4/CyLFClk.c ****                  (counterNum == CY_SYS_WDT_COUNTER1));
 632:.\Generated_Source\PSoC4/CyLFClk.c **** 
 633:.\Generated_Source\PSoC4/CyLFClk.c ****         return (uint32)((CY_SYS_WDT_CONFIG_REG >>
 1018              		.loc 2 633 0 is_stmt 1
 1019 0024 054B     		ldr	r3, .L88
 1020 0026 1B68     		ldr	r3, [r3]
 634:.\Generated_Source\PSoC4/CyLFClk.c ****                         ((counterNum * CY_SYS_WDT_CNT_SHIFT) + CY_SYS_WDT_CNT_MATCH_CLR_SHIFT)) & 0
 1021              		.loc 2 634 0
 1022 0028 7A68     		ldr	r2, [r7, #4]
 1023 002a D200     		lsl	r2, r2, #3
 1024 002c 0232     		add	r2, r2, #2
 633:.\Generated_Source\PSoC4/CyLFClk.c ****                         ((counterNum * CY_SYS_WDT_CNT_SHIFT) + CY_SYS_WDT_CNT_MATCH_CLR_SHIFT)) & 0
 1025              		.loc 2 633 0
 1026 002e D340     		lsr	r3, r3, r2
 1027 0030 0122     		mov	r2, #1
 1028 0032 1340     		and	r3, r2
 635:.\Generated_Source\PSoC4/CyLFClk.c ****     }
 1029              		.loc 2 635 0
 1030 0034 181C     		mov	r0, r3
 1031 0036 BD46     		mov	sp, r7
 1032 0038 02B0     		add	sp, sp, #8
 1033              		@ sp needed
 1034 003a 80BD     		pop	{r7, pc}
 1035              	.L89:
 1036              		.align	2
 1037              	.L88:
 1038 003c 0C020B40 		.word	1074463244
 1039              		.cfi_endproc
 1040              	.LFE17:
 1041              		.size	CySysWdtGetClearOnMatch, .-CySysWdtGetClearOnMatch
 1042              		.section	.text.CySysWdtEnable,"ax",%progbits
 1043              		.align	2
 1044              		.global	CySysWdtEnable
 1045              		.code	16
 1046              		.thumb_func
 1047              		.type	CySysWdtEnable, %function
 1048              	CySysWdtEnable:
 1049              	.LFB18:
 636:.\Generated_Source\PSoC4/CyLFClk.c **** 
 637:.\Generated_Source\PSoC4/CyLFClk.c **** 
 638:.\Generated_Source\PSoC4/CyLFClk.c ****     /*******************************************************************************
ARM GAS  C:\Users\passw\AppData\Local\Temp\ccYGIhwR.s 			page 37


 639:.\Generated_Source\PSoC4/CyLFClk.c ****     * Function Name: CySysWdtEnable
 640:.\Generated_Source\PSoC4/CyLFClk.c ****     ********************************************************************************
 641:.\Generated_Source\PSoC4/CyLFClk.c ****     *
 642:.\Generated_Source\PSoC4/CyLFClk.c ****     * Summary:
 643:.\Generated_Source\PSoC4/CyLFClk.c ****     *  Enables the specified WDT counters.  All the counters specified in the mask
 644:.\Generated_Source\PSoC4/CyLFClk.c ****     *  are enabled.
 645:.\Generated_Source\PSoC4/CyLFClk.c ****     *
 646:.\Generated_Source\PSoC4/CyLFClk.c ****     * Parameters:
 647:.\Generated_Source\PSoC4/CyLFClk.c ****     *  counterMask: The mask of all counters to enable.
 648:.\Generated_Source\PSoC4/CyLFClk.c ****     *       Define                       Counter
 649:.\Generated_Source\PSoC4/CyLFClk.c ****     *      CY_SYS_WDT_COUNTER0_MASK      0
 650:.\Generated_Source\PSoC4/CyLFClk.c ****     *      CY_SYS_WDT_COUNTER1_MASK      1
 651:.\Generated_Source\PSoC4/CyLFClk.c ****     *      CY_SYS_WDT_COUNTER2_MASK      2
 652:.\Generated_Source\PSoC4/CyLFClk.c ****     *
 653:.\Generated_Source\PSoC4/CyLFClk.c ****     * Return:
 654:.\Generated_Source\PSoC4/CyLFClk.c ****     *  None
 655:.\Generated_Source\PSoC4/CyLFClk.c ****     *
 656:.\Generated_Source\PSoC4/CyLFClk.c ****     * Side Effects:
 657:.\Generated_Source\PSoC4/CyLFClk.c ****     *  Enabling or disabling WDT requires 3 LFCLK cycles to come into effect.
 658:.\Generated_Source\PSoC4/CyLFClk.c ****     *  Therefore, the WDT enable state must not be changed more than once in
 659:.\Generated_Source\PSoC4/CyLFClk.c ****     *  that period.
 660:.\Generated_Source\PSoC4/CyLFClk.c ****     *
 661:.\Generated_Source\PSoC4/CyLFClk.c ****     *  After WDT is enabled, it is illegal to write WDT configuration (WDT_CONFIG)
 662:.\Generated_Source\PSoC4/CyLFClk.c ****     *  and control (WDT_CONTROL) registers. This means that all WDT functions that
 663:.\Generated_Source\PSoC4/CyLFClk.c ****     *  contain 'write' in the name (with the exception of CySysWdtSetMatch()
 664:.\Generated_Source\PSoC4/CyLFClk.c ****     *  function) are illegal to call once WDT enabled.
 665:.\Generated_Source\PSoC4/CyLFClk.c ****     *
 666:.\Generated_Source\PSoC4/CyLFClk.c ****     *  PSoC 4100 / PSoC 4200:
 667:.\Generated_Source\PSoC4/CyLFClk.c ****     *  This function enables ILO.
 668:.\Generated_Source\PSoC4/CyLFClk.c ****     *
 669:.\Generated_Source\PSoC4/CyLFClk.c ****     *  PSoC 4100-BL / PSoC 4200-BL and PSoC 4100M / PSoC 4200M:
 670:.\Generated_Source\PSoC4/CyLFClk.c ****     *  LFLCK should be configured before calling this function. The desired
 671:.\Generated_Source\PSoC4/CyLFClk.c ****     *  source should be enabled and configured to be the source for LFCLK.
 672:.\Generated_Source\PSoC4/CyLFClk.c ****     *
 673:.\Generated_Source\PSoC4/CyLFClk.c ****     *******************************************************************************/
 674:.\Generated_Source\PSoC4/CyLFClk.c ****     void CySysWdtEnable(uint32 counterMask)
 675:.\Generated_Source\PSoC4/CyLFClk.c ****     {
 1050              		.loc 2 675 0
 1051              		.cfi_startproc
 1052 0000 80B5     		push	{r7, lr}
 1053              		.cfi_def_cfa_offset 8
 1054              		.cfi_offset 7, -8
 1055              		.cfi_offset 14, -4
 1056 0002 82B0     		sub	sp, sp, #8
 1057              		.cfi_def_cfa_offset 16
 1058 0004 00AF     		add	r7, sp, #0
 1059              		.cfi_def_cfa_register 7
 1060 0006 7860     		str	r0, [r7, #4]
 676:.\Generated_Source\PSoC4/CyLFClk.c ****         #if (!CY_IP_WCO)
 677:.\Generated_Source\PSoC4/CyLFClk.c ****             CySysClkIloStart();
 678:.\Generated_Source\PSoC4/CyLFClk.c ****         #endif /* (!CY_IP_WCO) */
 679:.\Generated_Source\PSoC4/CyLFClk.c **** 
 680:.\Generated_Source\PSoC4/CyLFClk.c ****         CY_SYS_WDT_CONTROL_REG |= counterMask;
 1061              		.loc 2 680 0
 1062 0008 144B     		ldr	r3, .L97
 1063 000a 144A     		ldr	r2, .L97
 1064 000c 1168     		ldr	r1, [r2]
ARM GAS  C:\Users\passw\AppData\Local\Temp\ccYGIhwR.s 			page 38


 1065 000e 7A68     		ldr	r2, [r7, #4]
 1066 0010 0A43     		orr	r2, r1
 1067 0012 1A60     		str	r2, [r3]
 681:.\Generated_Source\PSoC4/CyLFClk.c **** 
 682:.\Generated_Source\PSoC4/CyLFClk.c ****         if(0u != (counterMask & CY_SYS_WDT_COUNTER0_MASK))
 1068              		.loc 2 682 0
 1069 0014 7B68     		ldr	r3, [r7, #4]
 1070 0016 0122     		mov	r2, #1
 1071 0018 1340     		and	r3, r2
 1072 001a 05D0     		beq	.L91
 683:.\Generated_Source\PSoC4/CyLFClk.c ****         {
 684:.\Generated_Source\PSoC4/CyLFClk.c ****             while (0u == CySysWdtGetEnabledStatus(CY_SYS_WDT_COUNTER0))
 1073              		.loc 2 684 0
 1074 001c C046     		mov	r8, r8
 1075              	.L92:
 1076              		.loc 2 684 0 is_stmt 0 discriminator 1
 1077 001e 0020     		mov	r0, #0
 1078 0020 FFF7FEFF 		bl	CySysWdtGetEnabledStatus
 1079 0024 031E     		sub	r3, r0, #0
 1080 0026 FAD0     		beq	.L92
 1081              	.L91:
 685:.\Generated_Source\PSoC4/CyLFClk.c ****             {
 686:.\Generated_Source\PSoC4/CyLFClk.c ****                 /* Wait for changes to come into effect */
 687:.\Generated_Source\PSoC4/CyLFClk.c ****             }
 688:.\Generated_Source\PSoC4/CyLFClk.c ****         }
 689:.\Generated_Source\PSoC4/CyLFClk.c **** 
 690:.\Generated_Source\PSoC4/CyLFClk.c ****         if(0u != (counterMask & CY_SYS_WDT_COUNTER1_MASK))
 1082              		.loc 2 690 0 is_stmt 1
 1083 0028 7A68     		ldr	r2, [r7, #4]
 1084 002a 8023     		mov	r3, #128
 1085 002c 5B00     		lsl	r3, r3, #1
 1086 002e 1340     		and	r3, r2
 1087 0030 05D0     		beq	.L93
 691:.\Generated_Source\PSoC4/CyLFClk.c ****         {
 692:.\Generated_Source\PSoC4/CyLFClk.c ****             while (0u == CySysWdtGetEnabledStatus(CY_SYS_WDT_COUNTER1))
 1088              		.loc 2 692 0
 1089 0032 C046     		mov	r8, r8
 1090              	.L94:
 1091              		.loc 2 692 0 is_stmt 0 discriminator 1
 1092 0034 0120     		mov	r0, #1
 1093 0036 FFF7FEFF 		bl	CySysWdtGetEnabledStatus
 1094 003a 031E     		sub	r3, r0, #0
 1095 003c FAD0     		beq	.L94
 1096              	.L93:
 693:.\Generated_Source\PSoC4/CyLFClk.c ****             {
 694:.\Generated_Source\PSoC4/CyLFClk.c ****                 /* Wait for changes to come into effect */
 695:.\Generated_Source\PSoC4/CyLFClk.c ****             }
 696:.\Generated_Source\PSoC4/CyLFClk.c ****         }
 697:.\Generated_Source\PSoC4/CyLFClk.c **** 
 698:.\Generated_Source\PSoC4/CyLFClk.c ****         if(0u != (counterMask & CY_SYS_WDT_COUNTER2_MASK))
 1097              		.loc 2 698 0 is_stmt 1
 1098 003e 7A68     		ldr	r2, [r7, #4]
 1099 0040 8023     		mov	r3, #128
 1100 0042 5B02     		lsl	r3, r3, #9
 1101 0044 1340     		and	r3, r2
 1102 0046 05D0     		beq	.L90
 699:.\Generated_Source\PSoC4/CyLFClk.c ****         {
ARM GAS  C:\Users\passw\AppData\Local\Temp\ccYGIhwR.s 			page 39


 700:.\Generated_Source\PSoC4/CyLFClk.c ****             while (0u == CySysWdtGetEnabledStatus(CY_SYS_WDT_COUNTER2))
 1103              		.loc 2 700 0
 1104 0048 C046     		mov	r8, r8
 1105              	.L96:
 1106              		.loc 2 700 0 is_stmt 0 discriminator 1
 1107 004a 0220     		mov	r0, #2
 1108 004c FFF7FEFF 		bl	CySysWdtGetEnabledStatus
 1109 0050 031E     		sub	r3, r0, #0
 1110 0052 FAD0     		beq	.L96
 1111              	.L90:
 701:.\Generated_Source\PSoC4/CyLFClk.c ****             {
 702:.\Generated_Source\PSoC4/CyLFClk.c ****                 /* Wait for changes to come into effect */
 703:.\Generated_Source\PSoC4/CyLFClk.c ****             }
 704:.\Generated_Source\PSoC4/CyLFClk.c ****         }
 705:.\Generated_Source\PSoC4/CyLFClk.c ****     }
 1112              		.loc 2 705 0 is_stmt 1
 1113 0054 BD46     		mov	sp, r7
 1114 0056 02B0     		add	sp, sp, #8
 1115              		@ sp needed
 1116 0058 80BD     		pop	{r7, pc}
 1117              	.L98:
 1118 005a C046     		.align	2
 1119              	.L97:
 1120 005c 10020B40 		.word	1074463248
 1121              		.cfi_endproc
 1122              	.LFE18:
 1123              		.size	CySysWdtEnable, .-CySysWdtEnable
 1124              		.section	.text.CySysWdtDisable,"ax",%progbits
 1125              		.align	2
 1126              		.global	CySysWdtDisable
 1127              		.code	16
 1128              		.thumb_func
 1129              		.type	CySysWdtDisable, %function
 1130              	CySysWdtDisable:
 1131              	.LFB19:
 706:.\Generated_Source\PSoC4/CyLFClk.c **** 
 707:.\Generated_Source\PSoC4/CyLFClk.c **** 
 708:.\Generated_Source\PSoC4/CyLFClk.c ****     /*******************************************************************************
 709:.\Generated_Source\PSoC4/CyLFClk.c ****     * Function Name: CySysWdtDisable
 710:.\Generated_Source\PSoC4/CyLFClk.c ****     ********************************************************************************
 711:.\Generated_Source\PSoC4/CyLFClk.c ****     *
 712:.\Generated_Source\PSoC4/CyLFClk.c ****     * Summary:
 713:.\Generated_Source\PSoC4/CyLFClk.c ****     *  Disables the specified WDT counters. All the counters specified in the mask
 714:.\Generated_Source\PSoC4/CyLFClk.c ****     *  are disabled. The function waits for the changes to come into effect.
 715:.\Generated_Source\PSoC4/CyLFClk.c ****     *
 716:.\Generated_Source\PSoC4/CyLFClk.c ****     * Parameters:
 717:.\Generated_Source\PSoC4/CyLFClk.c ****     *  uint32 counterMask: The mask of all counters to disable
 718:.\Generated_Source\PSoC4/CyLFClk.c ****     *    Define                       Counter
 719:.\Generated_Source\PSoC4/CyLFClk.c ****     *   CY_SYS_WDT_COUNTER0_MASK      0
 720:.\Generated_Source\PSoC4/CyLFClk.c ****     *   CY_SYS_WDT_COUNTER1_MASK      1
 721:.\Generated_Source\PSoC4/CyLFClk.c ****     *   CY_SYS_WDT_COUNTER2_MASK      2
 722:.\Generated_Source\PSoC4/CyLFClk.c ****     *
 723:.\Generated_Source\PSoC4/CyLFClk.c ****     * Return:
 724:.\Generated_Source\PSoC4/CyLFClk.c ****     *   None.
 725:.\Generated_Source\PSoC4/CyLFClk.c ****     *
 726:.\Generated_Source\PSoC4/CyLFClk.c ****     *******************************************************************************/
 727:.\Generated_Source\PSoC4/CyLFClk.c ****     void CySysWdtDisable(uint32 counterMask)
ARM GAS  C:\Users\passw\AppData\Local\Temp\ccYGIhwR.s 			page 40


 728:.\Generated_Source\PSoC4/CyLFClk.c ****     {
 1132              		.loc 2 728 0
 1133              		.cfi_startproc
 1134 0000 80B5     		push	{r7, lr}
 1135              		.cfi_def_cfa_offset 8
 1136              		.cfi_offset 7, -8
 1137              		.cfi_offset 14, -4
 1138 0002 82B0     		sub	sp, sp, #8
 1139              		.cfi_def_cfa_offset 16
 1140 0004 00AF     		add	r7, sp, #0
 1141              		.cfi_def_cfa_register 7
 1142 0006 7860     		str	r0, [r7, #4]
 729:.\Generated_Source\PSoC4/CyLFClk.c ****         if (0uL == CySysWdtLocked())
 1143              		.loc 2 729 0
 1144 0008 FFF7FEFF 		bl	CySysWdtLocked
 1145 000c 031E     		sub	r3, r0, #0
 1146 000e 26D1     		bne	.L99
 730:.\Generated_Source\PSoC4/CyLFClk.c ****         {
 731:.\Generated_Source\PSoC4/CyLFClk.c ****             CY_SYS_WDT_CONTROL_REG &= ~counterMask;
 1147              		.loc 2 731 0
 1148 0010 144B     		ldr	r3, .L106
 1149 0012 144A     		ldr	r2, .L106
 1150 0014 1268     		ldr	r2, [r2]
 1151 0016 7968     		ldr	r1, [r7, #4]
 1152 0018 C943     		mvn	r1, r1
 1153 001a 0A40     		and	r2, r1
 1154 001c 1A60     		str	r2, [r3]
 732:.\Generated_Source\PSoC4/CyLFClk.c **** 
 733:.\Generated_Source\PSoC4/CyLFClk.c ****             if(0u != (counterMask & CY_SYS_WDT_COUNTER0_MASK))
 1155              		.loc 2 733 0
 1156 001e 7B68     		ldr	r3, [r7, #4]
 1157 0020 0122     		mov	r2, #1
 1158 0022 1340     		and	r3, r2
 1159 0024 05D0     		beq	.L101
 734:.\Generated_Source\PSoC4/CyLFClk.c ****             {
 735:.\Generated_Source\PSoC4/CyLFClk.c ****                 while (0u != CySysWdtGetEnabledStatus(CY_SYS_WDT_COUNTER0))
 1160              		.loc 2 735 0
 1161 0026 C046     		mov	r8, r8
 1162              	.L102:
 1163              		.loc 2 735 0 is_stmt 0 discriminator 1
 1164 0028 0020     		mov	r0, #0
 1165 002a FFF7FEFF 		bl	CySysWdtGetEnabledStatus
 1166 002e 031E     		sub	r3, r0, #0
 1167 0030 FAD1     		bne	.L102
 1168              	.L101:
 736:.\Generated_Source\PSoC4/CyLFClk.c ****                 {
 737:.\Generated_Source\PSoC4/CyLFClk.c ****                     /* Wait for changes to come into effect */
 738:.\Generated_Source\PSoC4/CyLFClk.c ****                 }
 739:.\Generated_Source\PSoC4/CyLFClk.c ****             }
 740:.\Generated_Source\PSoC4/CyLFClk.c **** 
 741:.\Generated_Source\PSoC4/CyLFClk.c ****             if(0u != (counterMask & CY_SYS_WDT_COUNTER1_MASK))
 1169              		.loc 2 741 0 is_stmt 1
 1170 0032 7A68     		ldr	r2, [r7, #4]
 1171 0034 8023     		mov	r3, #128
 1172 0036 5B00     		lsl	r3, r3, #1
 1173 0038 1340     		and	r3, r2
 1174 003a 05D0     		beq	.L103
ARM GAS  C:\Users\passw\AppData\Local\Temp\ccYGIhwR.s 			page 41


 742:.\Generated_Source\PSoC4/CyLFClk.c ****             {
 743:.\Generated_Source\PSoC4/CyLFClk.c ****                 while (0u != CySysWdtGetEnabledStatus(CY_SYS_WDT_COUNTER1))
 1175              		.loc 2 743 0
 1176 003c C046     		mov	r8, r8
 1177              	.L104:
 1178              		.loc 2 743 0 is_stmt 0 discriminator 1
 1179 003e 0120     		mov	r0, #1
 1180 0040 FFF7FEFF 		bl	CySysWdtGetEnabledStatus
 1181 0044 031E     		sub	r3, r0, #0
 1182 0046 FAD1     		bne	.L104
 1183              	.L103:
 744:.\Generated_Source\PSoC4/CyLFClk.c ****                 {
 745:.\Generated_Source\PSoC4/CyLFClk.c ****                     /* Wait for changes to come into effect */
 746:.\Generated_Source\PSoC4/CyLFClk.c ****                 }
 747:.\Generated_Source\PSoC4/CyLFClk.c ****             }
 748:.\Generated_Source\PSoC4/CyLFClk.c **** 
 749:.\Generated_Source\PSoC4/CyLFClk.c ****             if(0u != (counterMask & CY_SYS_WDT_COUNTER2_MASK))
 1184              		.loc 2 749 0 is_stmt 1
 1185 0048 7A68     		ldr	r2, [r7, #4]
 1186 004a 8023     		mov	r3, #128
 1187 004c 5B02     		lsl	r3, r3, #9
 1188 004e 1340     		and	r3, r2
 1189 0050 05D0     		beq	.L99
 750:.\Generated_Source\PSoC4/CyLFClk.c ****             {
 751:.\Generated_Source\PSoC4/CyLFClk.c ****                 while (0u != CySysWdtGetEnabledStatus(CY_SYS_WDT_COUNTER2))
 1190              		.loc 2 751 0
 1191 0052 C046     		mov	r8, r8
 1192              	.L105:
 1193              		.loc 2 751 0 is_stmt 0 discriminator 1
 1194 0054 0220     		mov	r0, #2
 1195 0056 FFF7FEFF 		bl	CySysWdtGetEnabledStatus
 1196 005a 031E     		sub	r3, r0, #0
 1197 005c FAD1     		bne	.L105
 1198              	.L99:
 752:.\Generated_Source\PSoC4/CyLFClk.c ****                 {
 753:.\Generated_Source\PSoC4/CyLFClk.c ****                     /* Wait for changes to come into effect */
 754:.\Generated_Source\PSoC4/CyLFClk.c ****                 }
 755:.\Generated_Source\PSoC4/CyLFClk.c ****             }
 756:.\Generated_Source\PSoC4/CyLFClk.c ****         }
 757:.\Generated_Source\PSoC4/CyLFClk.c ****     }
 1199              		.loc 2 757 0 is_stmt 1
 1200 005e BD46     		mov	sp, r7
 1201 0060 02B0     		add	sp, sp, #8
 1202              		@ sp needed
 1203 0062 80BD     		pop	{r7, pc}
 1204              	.L107:
 1205              		.align	2
 1206              	.L106:
 1207 0064 10020B40 		.word	1074463248
 1208              		.cfi_endproc
 1209              	.LFE19:
 1210              		.size	CySysWdtDisable, .-CySysWdtDisable
 1211              		.section	.text.CySysWdtSetCascade,"ax",%progbits
 1212              		.align	2
 1213              		.global	CySysWdtSetCascade
 1214              		.code	16
 1215              		.thumb_func
ARM GAS  C:\Users\passw\AppData\Local\Temp\ccYGIhwR.s 			page 42


 1216              		.type	CySysWdtSetCascade, %function
 1217              	CySysWdtSetCascade:
 1218              	.LFB20:
 758:.\Generated_Source\PSoC4/CyLFClk.c **** 
 759:.\Generated_Source\PSoC4/CyLFClk.c **** 
 760:.\Generated_Source\PSoC4/CyLFClk.c ****     /*******************************************************************************
 761:.\Generated_Source\PSoC4/CyLFClk.c ****     * Function Name: CySysWdtSetCascade
 762:.\Generated_Source\PSoC4/CyLFClk.c ****     ********************************************************************************
 763:.\Generated_Source\PSoC4/CyLFClk.c ****     *
 764:.\Generated_Source\PSoC4/CyLFClk.c ****     * Summary:
 765:.\Generated_Source\PSoC4/CyLFClk.c ****     *   Writes the two WDT cascade values based on the combination of mask values
 766:.\Generated_Source\PSoC4/CyLFClk.c ****     *   specified.
 767:.\Generated_Source\PSoC4/CyLFClk.c ****     *
 768:.\Generated_Source\PSoC4/CyLFClk.c ****     * Parameters:
 769:.\Generated_Source\PSoC4/CyLFClk.c ****     *   cascadeMask: The mask value used to set or clear the cascade values.
 770:.\Generated_Source\PSoC4/CyLFClk.c ****     *   Define                     Cascade
 771:.\Generated_Source\PSoC4/CyLFClk.c ****     *   CY_SYS_WDT_CASCADE_NONE    Neither
 772:.\Generated_Source\PSoC4/CyLFClk.c ****     *   CY_SYS_WDT_CASCADE_01      Cascade 01
 773:.\Generated_Source\PSoC4/CyLFClk.c ****     *   CY_SYS_WDT_CASCADE_12      Cascade 12
 774:.\Generated_Source\PSoC4/CyLFClk.c ****     *
 775:.\Generated_Source\PSoC4/CyLFClk.c ****     *   To set both cascade modes, two defines should be ORed:
 776:.\Generated_Source\PSoC4/CyLFClk.c ****     *   (CY_SYS_WDT_CASCADE_01 | CY_SYS_WDT_CASCADE_12)
 777:.\Generated_Source\PSoC4/CyLFClk.c ****     *
 778:.\Generated_Source\PSoC4/CyLFClk.c ****     * Return:
 779:.\Generated_Source\PSoC4/CyLFClk.c ****     *   None.
 780:.\Generated_Source\PSoC4/CyLFClk.c ****     *
 781:.\Generated_Source\PSoC4/CyLFClk.c ****     * Side effects:
 782:.\Generated_Source\PSoC4/CyLFClk.c ****     *   If only one cascade mask is specified, the second cascade is disabled.
 783:.\Generated_Source\PSoC4/CyLFClk.c ****     *   To set both cascade modes, two defines should be ORed:
 784:.\Generated_Source\PSoC4/CyLFClk.c ****     *    (CY_SYS_WDT_CASCADE_01 | CY_SYS_WDT_CASCADE_12).
 785:.\Generated_Source\PSoC4/CyLFClk.c ****     *
 786:.\Generated_Source\PSoC4/CyLFClk.c ****     *   WDT counters that are part of the specified cascade should be disabled.
 787:.\Generated_Source\PSoC4/CyLFClk.c ****     *   Otherwise this function call has no effect. If the specified
 788:.\Generated_Source\PSoC4/CyLFClk.c ****     *   counter is enabled, call CySysWdtDisable() function with the corresponding
 789:.\Generated_Source\PSoC4/CyLFClk.c ****     *   parameter to disable the specified counter and wait for it to stop. This may
 790:.\Generated_Source\PSoC4/CyLFClk.c ****     *   take up to 3 LFCLK cycles.
 791:.\Generated_Source\PSoC4/CyLFClk.c ****     *
 792:.\Generated_Source\PSoC4/CyLFClk.c ****     *******************************************************************************/
 793:.\Generated_Source\PSoC4/CyLFClk.c ****     void CySysWdtSetCascade(uint32 cascadeMask)
 794:.\Generated_Source\PSoC4/CyLFClk.c ****     {
 1219              		.loc 2 794 0
 1220              		.cfi_startproc
 1221 0000 90B5     		push	{r4, r7, lr}
 1222              		.cfi_def_cfa_offset 12
 1223              		.cfi_offset 4, -12
 1224              		.cfi_offset 7, -8
 1225              		.cfi_offset 14, -4
 1226 0002 85B0     		sub	sp, sp, #20
 1227              		.cfi_def_cfa_offset 32
 1228 0004 00AF     		add	r7, sp, #0
 1229              		.cfi_def_cfa_register 7
 1230 0006 7860     		str	r0, [r7, #4]
 795:.\Generated_Source\PSoC4/CyLFClk.c ****         uint32 configRegValue;
 796:.\Generated_Source\PSoC4/CyLFClk.c ****         uint32 countersEnableStatus;
 797:.\Generated_Source\PSoC4/CyLFClk.c **** 
 798:.\Generated_Source\PSoC4/CyLFClk.c ****         countersEnableStatus = CySysWdtGetEnabledStatus(CY_SYS_WDT_COUNTER0) |
 1231              		.loc 2 798 0
ARM GAS  C:\Users\passw\AppData\Local\Temp\ccYGIhwR.s 			page 43


 1232 0008 0020     		mov	r0, #0
 1233 000a FFF7FEFF 		bl	CySysWdtGetEnabledStatus
 1234 000e 041C     		mov	r4, r0
 799:.\Generated_Source\PSoC4/CyLFClk.c ****                             CySysWdtGetEnabledStatus(CY_SYS_WDT_COUNTER1) |
 1235              		.loc 2 799 0
 1236 0010 0120     		mov	r0, #1
 1237 0012 FFF7FEFF 		bl	CySysWdtGetEnabledStatus
 1238 0016 031C     		mov	r3, r0
 798:.\Generated_Source\PSoC4/CyLFClk.c ****                             CySysWdtGetEnabledStatus(CY_SYS_WDT_COUNTER1) |
 1239              		.loc 2 798 0
 1240 0018 1C43     		orr	r4, r3
 800:.\Generated_Source\PSoC4/CyLFClk.c ****                             CySysWdtGetEnabledStatus(CY_SYS_WDT_COUNTER2);
 1241              		.loc 2 800 0
 1242 001a 0220     		mov	r0, #2
 1243 001c FFF7FEFF 		bl	CySysWdtGetEnabledStatus
 1244 0020 031C     		mov	r3, r0
 798:.\Generated_Source\PSoC4/CyLFClk.c ****                             CySysWdtGetEnabledStatus(CY_SYS_WDT_COUNTER1) |
 1245              		.loc 2 798 0
 1246 0022 2343     		orr	r3, r4
 1247 0024 FB60     		str	r3, [r7, #12]
 801:.\Generated_Source\PSoC4/CyLFClk.c **** 
 802:.\Generated_Source\PSoC4/CyLFClk.c ****         if (0u == countersEnableStatus)
 1248              		.loc 2 802 0
 1249 0026 FB68     		ldr	r3, [r7, #12]
 1250 0028 002B     		cmp	r3, #0
 1251 002a 0DD1     		bne	.L108
 803:.\Generated_Source\PSoC4/CyLFClk.c ****         {
 804:.\Generated_Source\PSoC4/CyLFClk.c ****             configRegValue = CY_SYS_WDT_CONFIG_REG;
 1252              		.loc 2 804 0
 1253 002c 084B     		ldr	r3, .L110
 1254 002e 1B68     		ldr	r3, [r3]
 1255 0030 BB60     		str	r3, [r7, #8]
 805:.\Generated_Source\PSoC4/CyLFClk.c ****             configRegValue &= ((uint32)(~(CY_SYS_WDT_CASCADE_01|CY_SYS_WDT_CASCADE_12)));
 1256              		.loc 2 805 0
 1257 0032 BB68     		ldr	r3, [r7, #8]
 1258 0034 074A     		ldr	r2, .L110+4
 1259 0036 1340     		and	r3, r2
 1260 0038 BB60     		str	r3, [r7, #8]
 806:.\Generated_Source\PSoC4/CyLFClk.c ****             configRegValue |= cascadeMask;
 1261              		.loc 2 806 0
 1262 003a BA68     		ldr	r2, [r7, #8]
 1263 003c 7B68     		ldr	r3, [r7, #4]
 1264 003e 1343     		orr	r3, r2
 1265 0040 BB60     		str	r3, [r7, #8]
 807:.\Generated_Source\PSoC4/CyLFClk.c ****             CY_SYS_WDT_CONFIG_REG = configRegValue;
 1266              		.loc 2 807 0
 1267 0042 034B     		ldr	r3, .L110
 1268 0044 BA68     		ldr	r2, [r7, #8]
 1269 0046 1A60     		str	r2, [r3]
 1270              	.L108:
 808:.\Generated_Source\PSoC4/CyLFClk.c ****         }
 809:.\Generated_Source\PSoC4/CyLFClk.c ****     }
 1271              		.loc 2 809 0
 1272 0048 BD46     		mov	sp, r7
 1273 004a 05B0     		add	sp, sp, #20
 1274              		@ sp needed
 1275 004c 90BD     		pop	{r4, r7, pc}
ARM GAS  C:\Users\passw\AppData\Local\Temp\ccYGIhwR.s 			page 44


 1276              	.L111:
 1277 004e C046     		.align	2
 1278              	.L110:
 1279 0050 0C020B40 		.word	1074463244
 1280 0054 F7F7FFFF 		.word	-2057
 1281              		.cfi_endproc
 1282              	.LFE20:
 1283              		.size	CySysWdtSetCascade, .-CySysWdtSetCascade
 1284              		.section	.text.CySysWdtGetCascade,"ax",%progbits
 1285              		.align	2
 1286              		.global	CySysWdtGetCascade
 1287              		.code	16
 1288              		.thumb_func
 1289              		.type	CySysWdtGetCascade, %function
 1290              	CySysWdtGetCascade:
 1291              	.LFB21:
 810:.\Generated_Source\PSoC4/CyLFClk.c **** 
 811:.\Generated_Source\PSoC4/CyLFClk.c **** 
 812:.\Generated_Source\PSoC4/CyLFClk.c ****     /*******************************************************************************
 813:.\Generated_Source\PSoC4/CyLFClk.c ****     * Function Name: CySysWdtGetCascade
 814:.\Generated_Source\PSoC4/CyLFClk.c ****     ********************************************************************************
 815:.\Generated_Source\PSoC4/CyLFClk.c ****     *
 816:.\Generated_Source\PSoC4/CyLFClk.c ****     * Summary:
 817:.\Generated_Source\PSoC4/CyLFClk.c ****     *   Reads the two WDT cascade values returning a mask of the bits set.
 818:.\Generated_Source\PSoC4/CyLFClk.c ****     *
 819:.\Generated_Source\PSoC4/CyLFClk.c ****     * Parameters:
 820:.\Generated_Source\PSoC4/CyLFClk.c ****     *   None.
 821:.\Generated_Source\PSoC4/CyLFClk.c ****     *
 822:.\Generated_Source\PSoC4/CyLFClk.c ****     * Return:
 823:.\Generated_Source\PSoC4/CyLFClk.c ****     *   The mask of the cascade values set.
 824:.\Generated_Source\PSoC4/CyLFClk.c ****     *   Define                     Cascade
 825:.\Generated_Source\PSoC4/CyLFClk.c ****     *   CY_SYS_WDT_CASCADE_NONE    Neither
 826:.\Generated_Source\PSoC4/CyLFClk.c ****     *   CY_SYS_WDT_CASCADE_01      Cascade 01
 827:.\Generated_Source\PSoC4/CyLFClk.c ****     *   CY_SYS_WDT_CASCADE_12      Cascade 12
 828:.\Generated_Source\PSoC4/CyLFClk.c ****     *
 829:.\Generated_Source\PSoC4/CyLFClk.c ****     *******************************************************************************/
 830:.\Generated_Source\PSoC4/CyLFClk.c ****     uint32 CySysWdtGetCascade(void)
 831:.\Generated_Source\PSoC4/CyLFClk.c ****     {
 1292              		.loc 2 831 0
 1293              		.cfi_startproc
 1294 0000 80B5     		push	{r7, lr}
 1295              		.cfi_def_cfa_offset 8
 1296              		.cfi_offset 7, -8
 1297              		.cfi_offset 14, -4
 1298 0002 00AF     		add	r7, sp, #0
 1299              		.cfi_def_cfa_register 7
 832:.\Generated_Source\PSoC4/CyLFClk.c ****         return (CY_SYS_WDT_CONFIG_REG & (CY_SYS_WDT_CASCADE_01 | CY_SYS_WDT_CASCADE_12));
 1300              		.loc 2 832 0
 1301 0004 034B     		ldr	r3, .L114
 1302 0006 1B68     		ldr	r3, [r3]
 1303 0008 034A     		ldr	r2, .L114+4
 1304 000a 1340     		and	r3, r2
 833:.\Generated_Source\PSoC4/CyLFClk.c ****     }
 1305              		.loc 2 833 0
 1306 000c 181C     		mov	r0, r3
 1307 000e BD46     		mov	sp, r7
 1308              		@ sp needed
ARM GAS  C:\Users\passw\AppData\Local\Temp\ccYGIhwR.s 			page 45


 1309 0010 80BD     		pop	{r7, pc}
 1310              	.L115:
 1311 0012 C046     		.align	2
 1312              	.L114:
 1313 0014 0C020B40 		.word	1074463244
 1314 0018 08080000 		.word	2056
 1315              		.cfi_endproc
 1316              	.LFE21:
 1317              		.size	CySysWdtGetCascade, .-CySysWdtGetCascade
 1318              		.section	.text.CySysWdtSetMatch,"ax",%progbits
 1319              		.align	2
 1320              		.global	CySysWdtSetMatch
 1321              		.code	16
 1322              		.thumb_func
 1323              		.type	CySysWdtSetMatch, %function
 1324              	CySysWdtSetMatch:
 1325              	.LFB22:
 834:.\Generated_Source\PSoC4/CyLFClk.c **** 
 835:.\Generated_Source\PSoC4/CyLFClk.c **** 
 836:.\Generated_Source\PSoC4/CyLFClk.c ****     /*******************************************************************************
 837:.\Generated_Source\PSoC4/CyLFClk.c ****     * Function Name: CySysWdtSetMatch
 838:.\Generated_Source\PSoC4/CyLFClk.c ****     ********************************************************************************
 839:.\Generated_Source\PSoC4/CyLFClk.c ****     *
 840:.\Generated_Source\PSoC4/CyLFClk.c ****     * Summary:
 841:.\Generated_Source\PSoC4/CyLFClk.c ****     *  Configures the WDT counter match comparison value.
 842:.\Generated_Source\PSoC4/CyLFClk.c ****     *
 843:.\Generated_Source\PSoC4/CyLFClk.c ****     * Parameters:
 844:.\Generated_Source\PSoC4/CyLFClk.c ****     *  counterNum:
 845:.\Generated_Source\PSoC4/CyLFClk.c ****     *   Valid range [0-1]. The number of the WDT counter. The match values are not
 846:.\Generated_Source\PSoC4/CyLFClk.c ****     *   supported by counter 2.
 847:.\Generated_Source\PSoC4/CyLFClk.c ****     *
 848:.\Generated_Source\PSoC4/CyLFClk.c ****     *  match:
 849:.\Generated_Source\PSoC4/CyLFClk.c ****     *   Valid range [0-65535]. The value to be used to match against the counter.
 850:.\Generated_Source\PSoC4/CyLFClk.c ****     *
 851:.\Generated_Source\PSoC4/CyLFClk.c ****     * Return:
 852:.\Generated_Source\PSoC4/CyLFClk.c ****     *   None.
 853:.\Generated_Source\PSoC4/CyLFClk.c ****     *
 854:.\Generated_Source\PSoC4/CyLFClk.c ****     *******************************************************************************/
 855:.\Generated_Source\PSoC4/CyLFClk.c ****     void CySysWdtSetMatch(uint32 counterNum, uint32 match)
 856:.\Generated_Source\PSoC4/CyLFClk.c ****     {
 1326              		.loc 2 856 0
 1327              		.cfi_startproc
 1328 0000 80B5     		push	{r7, lr}
 1329              		.cfi_def_cfa_offset 8
 1330              		.cfi_offset 7, -8
 1331              		.cfi_offset 14, -4
 1332 0002 84B0     		sub	sp, sp, #16
 1333              		.cfi_def_cfa_offset 24
 1334 0004 00AF     		add	r7, sp, #0
 1335              		.cfi_def_cfa_register 7
 1336 0006 7860     		str	r0, [r7, #4]
 1337 0008 3960     		str	r1, [r7]
 857:.\Generated_Source\PSoC4/CyLFClk.c ****         uint32 regValue;
 858:.\Generated_Source\PSoC4/CyLFClk.c **** 
 859:.\Generated_Source\PSoC4/CyLFClk.c ****         CYASSERT((counterNum == CY_SYS_WDT_COUNTER0) ||
 1338              		.loc 2 859 0
 1339 000a 7B68     		ldr	r3, [r7, #4]
ARM GAS  C:\Users\passw\AppData\Local\Temp\ccYGIhwR.s 			page 46


 1340 000c 002B     		cmp	r3, #0
 1341 000e 02D0     		beq	.L117
 1342              		.loc 2 859 0 is_stmt 0 discriminator 2
 1343 0010 7B68     		ldr	r3, [r7, #4]
 1344 0012 012B     		cmp	r3, #1
 1345 0014 01D1     		bne	.L118
 1346              	.L117:
 1347              		.loc 2 859 0 discriminator 3
 1348 0016 0123     		mov	r3, #1
 1349 0018 00E0     		b	.L119
 1350              	.L118:
 1351              		.loc 2 859 0 discriminator 4
 1352 001a 0023     		mov	r3, #0
 1353              	.L119:
 1354              		.loc 2 859 0 discriminator 6
 1355 001c 002B     		cmp	r3, #0
 1356 001e 02D1     		bne	.L120
 1357              		.loc 2 859 0 discriminator 7
 1358 0020 0020     		mov	r0, #0
 1359 0022 FFF7FEFF 		bl	CyHalt
 1360              	.L120:
 860:.\Generated_Source\PSoC4/CyLFClk.c ****                  (counterNum == CY_SYS_WDT_COUNTER1));
 861:.\Generated_Source\PSoC4/CyLFClk.c **** 
 862:.\Generated_Source\PSoC4/CyLFClk.c ****         /* Wait for previous changes to come into effect */
 863:.\Generated_Source\PSoC4/CyLFClk.c ****         CyDelayUs(CY_SYS_WDT_3LFCLK_DELAY_US);
 1361              		.loc 2 863 0 is_stmt 1
 1362 0026 174B     		ldr	r3, .L125
 1363 0028 1B68     		ldr	r3, [r3]
 1364 002a 9B0F     		lsr	r3, r3, #30
 1365 002c 9B07     		lsl	r3, r3, #30
 1366 002e 01D1     		bne	.L121
 1367              		.loc 2 863 0 is_stmt 0 discriminator 1
 1368 0030 C923     		mov	r3, #201
 1369 0032 00E0     		b	.L122
 1370              	.L121:
 1371              		.loc 2 863 0 discriminator 2
 1372 0034 5D23     		mov	r3, #93
 1373              	.L122:
 1374              		.loc 2 863 0 discriminator 4
 1375 0036 181C     		mov	r0, r3
 1376 0038 FFF7FEFF 		bl	CyDelayUs
 864:.\Generated_Source\PSoC4/CyLFClk.c **** 
 865:.\Generated_Source\PSoC4/CyLFClk.c ****         regValue = CY_SYS_WDT_MATCH_REG;
 1377              		.loc 2 865 0 is_stmt 1 discriminator 4
 1378 003c 124B     		ldr	r3, .L125+4
 1379 003e 1B68     		ldr	r3, [r3]
 1380 0040 FB60     		str	r3, [r7, #12]
 866:.\Generated_Source\PSoC4/CyLFClk.c ****         regValue &= (uint32)~((uint32)(CY_SYS_WDT_LOWER_16BITS_MASK << (counterNum * CY_SYS_WDT_CNT
 1381              		.loc 2 866 0 discriminator 4
 1382 0042 7B68     		ldr	r3, [r7, #4]
 1383 0044 1B01     		lsl	r3, r3, #4
 1384 0046 1A1C     		mov	r2, r3
 1385 0048 104B     		ldr	r3, .L125+8
 1386 004a 9340     		lsl	r3, r3, r2
 1387 004c DA43     		mvn	r2, r3
 1388 004e FB68     		ldr	r3, [r7, #12]
 1389 0050 1340     		and	r3, r2
ARM GAS  C:\Users\passw\AppData\Local\Temp\ccYGIhwR.s 			page 47


 1390 0052 FB60     		str	r3, [r7, #12]
 867:.\Generated_Source\PSoC4/CyLFClk.c ****         CY_SYS_WDT_MATCH_REG = (regValue | (match << (counterNum * CY_SYS_WDT_CNT_MATCH_SHIFT)));
 1391              		.loc 2 867 0 discriminator 4
 1392 0054 0C4B     		ldr	r3, .L125+4
 1393 0056 7A68     		ldr	r2, [r7, #4]
 1394 0058 1201     		lsl	r2, r2, #4
 1395 005a 111C     		mov	r1, r2
 1396 005c 3A68     		ldr	r2, [r7]
 1397 005e 8A40     		lsl	r2, r2, r1
 1398 0060 111C     		mov	r1, r2
 1399 0062 FA68     		ldr	r2, [r7, #12]
 1400 0064 0A43     		orr	r2, r1
 1401 0066 1A60     		str	r2, [r3]
 868:.\Generated_Source\PSoC4/CyLFClk.c **** 
 869:.\Generated_Source\PSoC4/CyLFClk.c ****         /* Make sure match synchronization has started */
 870:.\Generated_Source\PSoC4/CyLFClk.c ****         CyDelayUs(CY_SYS_WDT_1LFCLK_DELAY_US);
 1402              		.loc 2 870 0 discriminator 4
 1403 0068 064B     		ldr	r3, .L125
 1404 006a 1B68     		ldr	r3, [r3]
 1405 006c 9B0F     		lsr	r3, r3, #30
 1406 006e 9B07     		lsl	r3, r3, #30
 1407 0070 01D1     		bne	.L123
 1408              		.loc 2 870 0 is_stmt 0 discriminator 1
 1409 0072 4323     		mov	r3, #67
 1410 0074 00E0     		b	.L124
 1411              	.L123:
 1412              		.loc 2 870 0 discriminator 2
 1413 0076 1F23     		mov	r3, #31
 1414              	.L124:
 1415              		.loc 2 870 0 discriminator 4
 1416 0078 181C     		mov	r0, r3
 1417 007a FFF7FEFF 		bl	CyDelayUs
 871:.\Generated_Source\PSoC4/CyLFClk.c ****     }
 1418              		.loc 2 871 0 is_stmt 1 discriminator 4
 1419 007e BD46     		mov	sp, r7
 1420 0080 04B0     		add	sp, sp, #16
 1421              		@ sp needed
 1422 0082 80BD     		pop	{r7, pc}
 1423              	.L126:
 1424              		.align	2
 1425              	.L125:
 1426 0084 0C020B40 		.word	1074463244
 1427 0088 08020B40 		.word	1074463240
 1428 008c FFFF0000 		.word	65535
 1429              		.cfi_endproc
 1430              	.LFE22:
 1431              		.size	CySysWdtSetMatch, .-CySysWdtSetMatch
 1432              		.section	.text.CySysWdtSetToggleBit,"ax",%progbits
 1433              		.align	2
 1434              		.global	CySysWdtSetToggleBit
 1435              		.code	16
 1436              		.thumb_func
 1437              		.type	CySysWdtSetToggleBit, %function
 1438              	CySysWdtSetToggleBit:
 1439              	.LFB23:
 872:.\Generated_Source\PSoC4/CyLFClk.c **** 
 873:.\Generated_Source\PSoC4/CyLFClk.c **** 
ARM GAS  C:\Users\passw\AppData\Local\Temp\ccYGIhwR.s 			page 48


 874:.\Generated_Source\PSoC4/CyLFClk.c ****     /*******************************************************************************
 875:.\Generated_Source\PSoC4/CyLFClk.c ****     * Function Name: CySysWdtSetToggleBit
 876:.\Generated_Source\PSoC4/CyLFClk.c ****     ********************************************************************************
 877:.\Generated_Source\PSoC4/CyLFClk.c ****     *
 878:.\Generated_Source\PSoC4/CyLFClk.c ****     * Summary:
 879:.\Generated_Source\PSoC4/CyLFClk.c ****     *  Configures which bit in WDT counter 2 to monitor for a toggle. When that
 880:.\Generated_Source\PSoC4/CyLFClk.c ****     *  bit toggles, an interrupt is generated if the mode for counter 2 has
 881:.\Generated_Source\PSoC4/CyLFClk.c ****     *  enabled interrupts.
 882:.\Generated_Source\PSoC4/CyLFClk.c ****     *
 883:.\Generated_Source\PSoC4/CyLFClk.c ****     * Parameters:
 884:.\Generated_Source\PSoC4/CyLFClk.c ****     *  bit:
 885:.\Generated_Source\PSoC4/CyLFClk.c ****     *   Valid range [0-31].  Counter 2 bit to monitor for a toggle.
 886:.\Generated_Source\PSoC4/CyLFClk.c ****     *
 887:.\Generated_Source\PSoC4/CyLFClk.c ****     * Return:
 888:.\Generated_Source\PSoC4/CyLFClk.c ****     *   None.
 889:.\Generated_Source\PSoC4/CyLFClk.c ****     *
 890:.\Generated_Source\PSoC4/CyLFClk.c ****     * Side effects:
 891:.\Generated_Source\PSoC4/CyLFClk.c ****     *   WDT Counter 2 should be disabled. Otherwise this function call has no
 892:.\Generated_Source\PSoC4/CyLFClk.c ****     *   effect.
 893:.\Generated_Source\PSoC4/CyLFClk.c ****     *
 894:.\Generated_Source\PSoC4/CyLFClk.c ****     *   If the specified counter is enabled, call the CySysWdtDisable() function with
 895:.\Generated_Source\PSoC4/CyLFClk.c ****     *   the corresponding parameter to disable the specified counter and wait for it to
 896:.\Generated_Source\PSoC4/CyLFClk.c ****     *   stop. This may take up to 3 LFCLK cycles.
 897:.\Generated_Source\PSoC4/CyLFClk.c ****     *
 898:.\Generated_Source\PSoC4/CyLFClk.c ****     *******************************************************************************/
 899:.\Generated_Source\PSoC4/CyLFClk.c ****     void CySysWdtSetToggleBit(uint32 bits)
 900:.\Generated_Source\PSoC4/CyLFClk.c ****     {
 1440              		.loc 2 900 0
 1441              		.cfi_startproc
 1442 0000 80B5     		push	{r7, lr}
 1443              		.cfi_def_cfa_offset 8
 1444              		.cfi_offset 7, -8
 1445              		.cfi_offset 14, -4
 1446 0002 84B0     		sub	sp, sp, #16
 1447              		.cfi_def_cfa_offset 24
 1448 0004 00AF     		add	r7, sp, #0
 1449              		.cfi_def_cfa_register 7
 1450 0006 7860     		str	r0, [r7, #4]
 901:.\Generated_Source\PSoC4/CyLFClk.c ****         uint32 configRegValue;
 902:.\Generated_Source\PSoC4/CyLFClk.c **** 
 903:.\Generated_Source\PSoC4/CyLFClk.c ****         if (0u == CySysWdtGetEnabledStatus(CY_SYS_WDT_COUNTER2))
 1451              		.loc 2 903 0
 1452 0008 0220     		mov	r0, #2
 1453 000a FFF7FEFF 		bl	CySysWdtGetEnabledStatus
 1454 000e 031E     		sub	r3, r0, #0
 1455 0010 10D1     		bne	.L127
 904:.\Generated_Source\PSoC4/CyLFClk.c ****         {
 905:.\Generated_Source\PSoC4/CyLFClk.c ****             configRegValue = CY_SYS_WDT_CONFIG_REG;
 1456              		.loc 2 905 0
 1457 0012 0A4B     		ldr	r3, .L129
 1458 0014 1B68     		ldr	r3, [r3]
 1459 0016 FB60     		str	r3, [r7, #12]
 906:.\Generated_Source\PSoC4/CyLFClk.c ****             configRegValue &= (uint32)(~((uint32)(CY_SYS_WDT_CONFIG_BITS2_MASK << CY_SYS_WDT_CONFIG
 1460              		.loc 2 906 0
 1461 0018 FB68     		ldr	r3, [r7, #12]
 1462 001a 094A     		ldr	r2, .L129+4
 1463 001c 1340     		and	r3, r2
ARM GAS  C:\Users\passw\AppData\Local\Temp\ccYGIhwR.s 			page 49


 1464 001e FB60     		str	r3, [r7, #12]
 907:.\Generated_Source\PSoC4/CyLFClk.c ****             configRegValue |= ((bits & CY_SYS_WDT_CONFIG_BITS2_MASK) << CY_SYS_WDT_CONFIG_BITS2_POS
 1465              		.loc 2 907 0
 1466 0020 7B68     		ldr	r3, [r7, #4]
 1467 0022 1F22     		mov	r2, #31
 1468 0024 1340     		and	r3, r2
 1469 0026 1B06     		lsl	r3, r3, #24
 1470 0028 FA68     		ldr	r2, [r7, #12]
 1471 002a 1343     		orr	r3, r2
 1472 002c FB60     		str	r3, [r7, #12]
 908:.\Generated_Source\PSoC4/CyLFClk.c ****             CY_SYS_WDT_CONFIG_REG = configRegValue;
 1473              		.loc 2 908 0
 1474 002e 034B     		ldr	r3, .L129
 1475 0030 FA68     		ldr	r2, [r7, #12]
 1476 0032 1A60     		str	r2, [r3]
 1477              	.L127:
 909:.\Generated_Source\PSoC4/CyLFClk.c ****         }
 910:.\Generated_Source\PSoC4/CyLFClk.c ****     }
 1478              		.loc 2 910 0
 1479 0034 BD46     		mov	sp, r7
 1480 0036 04B0     		add	sp, sp, #16
 1481              		@ sp needed
 1482 0038 80BD     		pop	{r7, pc}
 1483              	.L130:
 1484 003a C046     		.align	2
 1485              	.L129:
 1486 003c 0C020B40 		.word	1074463244
 1487 0040 FFFFFFE0 		.word	-520093697
 1488              		.cfi_endproc
 1489              	.LFE23:
 1490              		.size	CySysWdtSetToggleBit, .-CySysWdtSetToggleBit
 1491              		.section	.text.CySysWdtGetToggleBit,"ax",%progbits
 1492              		.align	2
 1493              		.global	CySysWdtGetToggleBit
 1494              		.code	16
 1495              		.thumb_func
 1496              		.type	CySysWdtGetToggleBit, %function
 1497              	CySysWdtGetToggleBit:
 1498              	.LFB24:
 911:.\Generated_Source\PSoC4/CyLFClk.c **** 
 912:.\Generated_Source\PSoC4/CyLFClk.c **** 
 913:.\Generated_Source\PSoC4/CyLFClk.c ****     /*******************************************************************************
 914:.\Generated_Source\PSoC4/CyLFClk.c ****     * Function Name: CySysWdtGetToggleBit
 915:.\Generated_Source\PSoC4/CyLFClk.c ****     ********************************************************************************
 916:.\Generated_Source\PSoC4/CyLFClk.c ****     *
 917:.\Generated_Source\PSoC4/CyLFClk.c ****     * Summary:
 918:.\Generated_Source\PSoC4/CyLFClk.c ****     *  Reads which bit in WDT counter 2 is monitored for a toggle.
 919:.\Generated_Source\PSoC4/CyLFClk.c ****     *
 920:.\Generated_Source\PSoC4/CyLFClk.c ****     * Parameters:
 921:.\Generated_Source\PSoC4/CyLFClk.c ****     *  None.
 922:.\Generated_Source\PSoC4/CyLFClk.c ****     *
 923:.\Generated_Source\PSoC4/CyLFClk.c ****     * Return:
 924:.\Generated_Source\PSoC4/CyLFClk.c ****     *  The bit that is monitored (range of 0 to 31)
 925:.\Generated_Source\PSoC4/CyLFClk.c ****     *
 926:.\Generated_Source\PSoC4/CyLFClk.c ****     *******************************************************************************/
 927:.\Generated_Source\PSoC4/CyLFClk.c ****     uint32 CySysWdtGetToggleBit(void)
 928:.\Generated_Source\PSoC4/CyLFClk.c ****     {
ARM GAS  C:\Users\passw\AppData\Local\Temp\ccYGIhwR.s 			page 50


 1499              		.loc 2 928 0
 1500              		.cfi_startproc
 1501 0000 80B5     		push	{r7, lr}
 1502              		.cfi_def_cfa_offset 8
 1503              		.cfi_offset 7, -8
 1504              		.cfi_offset 14, -4
 1505 0002 00AF     		add	r7, sp, #0
 1506              		.cfi_def_cfa_register 7
 929:.\Generated_Source\PSoC4/CyLFClk.c ****         return ((CY_SYS_WDT_CONFIG_REG >> CY_SYS_WDT_CONFIG_BITS2_POS) & CY_SYS_WDT_CONFIG_BITS2_MA
 1507              		.loc 2 929 0
 1508 0004 034B     		ldr	r3, .L133
 1509 0006 1B68     		ldr	r3, [r3]
 1510 0008 1B0E     		lsr	r3, r3, #24
 1511 000a 1F22     		mov	r2, #31
 1512 000c 1340     		and	r3, r2
 930:.\Generated_Source\PSoC4/CyLFClk.c ****     }
 1513              		.loc 2 930 0
 1514 000e 181C     		mov	r0, r3
 1515 0010 BD46     		mov	sp, r7
 1516              		@ sp needed
 1517 0012 80BD     		pop	{r7, pc}
 1518              	.L134:
 1519              		.align	2
 1520              	.L133:
 1521 0014 0C020B40 		.word	1074463244
 1522              		.cfi_endproc
 1523              	.LFE24:
 1524              		.size	CySysWdtGetToggleBit, .-CySysWdtGetToggleBit
 1525              		.section	.text.CySysWdtGetMatch,"ax",%progbits
 1526              		.align	2
 1527              		.global	CySysWdtGetMatch
 1528              		.code	16
 1529              		.thumb_func
 1530              		.type	CySysWdtGetMatch, %function
 1531              	CySysWdtGetMatch:
 1532              	.LFB25:
 931:.\Generated_Source\PSoC4/CyLFClk.c **** 
 932:.\Generated_Source\PSoC4/CyLFClk.c **** 
 933:.\Generated_Source\PSoC4/CyLFClk.c ****     /*******************************************************************************
 934:.\Generated_Source\PSoC4/CyLFClk.c ****     * Function Name: CySysWdtGetMatch
 935:.\Generated_Source\PSoC4/CyLFClk.c ****     ********************************************************************************
 936:.\Generated_Source\PSoC4/CyLFClk.c ****     *
 937:.\Generated_Source\PSoC4/CyLFClk.c ****     * Summary:
 938:.\Generated_Source\PSoC4/CyLFClk.c ****     *  Reads the WDT counter match comparison value.
 939:.\Generated_Source\PSoC4/CyLFClk.c ****     *
 940:.\Generated_Source\PSoC4/CyLFClk.c ****     * Parameters:
 941:.\Generated_Source\PSoC4/CyLFClk.c ****     *  counterNum: Valid range [0-1].  The number of the WDT counter.  The match values
 942:.\Generated_Source\PSoC4/CyLFClk.c ****     *               are not supported by counter 2.
 943:.\Generated_Source\PSoC4/CyLFClk.c ****     *
 944:.\Generated_Source\PSoC4/CyLFClk.c ****     * Return:
 945:.\Generated_Source\PSoC4/CyLFClk.c ****     *  A 16-bit match value.
 946:.\Generated_Source\PSoC4/CyLFClk.c ****     *
 947:.\Generated_Source\PSoC4/CyLFClk.c ****     *******************************************************************************/
 948:.\Generated_Source\PSoC4/CyLFClk.c ****     uint32 CySysWdtGetMatch(uint32 counterNum)
 949:.\Generated_Source\PSoC4/CyLFClk.c ****     {
 1533              		.loc 2 949 0
 1534              		.cfi_startproc
ARM GAS  C:\Users\passw\AppData\Local\Temp\ccYGIhwR.s 			page 51


 1535 0000 80B5     		push	{r7, lr}
 1536              		.cfi_def_cfa_offset 8
 1537              		.cfi_offset 7, -8
 1538              		.cfi_offset 14, -4
 1539 0002 82B0     		sub	sp, sp, #8
 1540              		.cfi_def_cfa_offset 16
 1541 0004 00AF     		add	r7, sp, #0
 1542              		.cfi_def_cfa_register 7
 1543 0006 7860     		str	r0, [r7, #4]
 950:.\Generated_Source\PSoC4/CyLFClk.c ****         CYASSERT((counterNum == CY_SYS_WDT_COUNTER0) ||
 1544              		.loc 2 950 0
 1545 0008 7B68     		ldr	r3, [r7, #4]
 1546 000a 002B     		cmp	r3, #0
 1547 000c 02D0     		beq	.L136
 1548              		.loc 2 950 0 is_stmt 0 discriminator 2
 1549 000e 7B68     		ldr	r3, [r7, #4]
 1550 0010 012B     		cmp	r3, #1
 1551 0012 01D1     		bne	.L137
 1552              	.L136:
 1553              		.loc 2 950 0 discriminator 3
 1554 0014 0123     		mov	r3, #1
 1555 0016 00E0     		b	.L138
 1556              	.L137:
 1557              		.loc 2 950 0 discriminator 4
 1558 0018 0023     		mov	r3, #0
 1559              	.L138:
 1560              		.loc 2 950 0 discriminator 6
 1561 001a 002B     		cmp	r3, #0
 1562 001c 02D1     		bne	.L139
 1563              		.loc 2 950 0 discriminator 7
 1564 001e 0020     		mov	r0, #0
 1565 0020 FFF7FEFF 		bl	CyHalt
 1566              	.L139:
 951:.\Generated_Source\PSoC4/CyLFClk.c ****                  (counterNum == CY_SYS_WDT_COUNTER1));
 952:.\Generated_Source\PSoC4/CyLFClk.c **** 
 953:.\Generated_Source\PSoC4/CyLFClk.c ****         return ((uint32)(CY_SYS_WDT_MATCH_REG >> (counterNum * CY_SYS_WDT_CNT_MATCH_SHIFT)) & CY_SY
 1567              		.loc 2 953 0 is_stmt 1
 1568 0024 054B     		ldr	r3, .L141
 1569 0026 1B68     		ldr	r3, [r3]
 1570 0028 7A68     		ldr	r2, [r7, #4]
 1571 002a 1201     		lsl	r2, r2, #4
 1572 002c D340     		lsr	r3, r3, r2
 1573 002e 1B04     		lsl	r3, r3, #16
 1574 0030 1B0C     		lsr	r3, r3, #16
 954:.\Generated_Source\PSoC4/CyLFClk.c ****     }
 1575              		.loc 2 954 0
 1576 0032 181C     		mov	r0, r3
 1577 0034 BD46     		mov	sp, r7
 1578 0036 02B0     		add	sp, sp, #8
 1579              		@ sp needed
 1580 0038 80BD     		pop	{r7, pc}
 1581              	.L142:
 1582 003a C046     		.align	2
 1583              	.L141:
 1584 003c 08020B40 		.word	1074463240
 1585              		.cfi_endproc
 1586              	.LFE25:
ARM GAS  C:\Users\passw\AppData\Local\Temp\ccYGIhwR.s 			page 52


 1587              		.size	CySysWdtGetMatch, .-CySysWdtGetMatch
 1588              		.section	.text.CySysWdtGetCount,"ax",%progbits
 1589              		.align	2
 1590              		.global	CySysWdtGetCount
 1591              		.code	16
 1592              		.thumb_func
 1593              		.type	CySysWdtGetCount, %function
 1594              	CySysWdtGetCount:
 1595              	.LFB26:
 955:.\Generated_Source\PSoC4/CyLFClk.c **** 
 956:.\Generated_Source\PSoC4/CyLFClk.c **** 
 957:.\Generated_Source\PSoC4/CyLFClk.c ****     /*******************************************************************************
 958:.\Generated_Source\PSoC4/CyLFClk.c ****     * Function Name: CySysWdtGetCount
 959:.\Generated_Source\PSoC4/CyLFClk.c ****     ********************************************************************************
 960:.\Generated_Source\PSoC4/CyLFClk.c ****     *
 961:.\Generated_Source\PSoC4/CyLFClk.c ****     * Summary:
 962:.\Generated_Source\PSoC4/CyLFClk.c ****     *  Reads the current WDT counter value.
 963:.\Generated_Source\PSoC4/CyLFClk.c ****     *
 964:.\Generated_Source\PSoC4/CyLFClk.c ****     * Parameters:
 965:.\Generated_Source\PSoC4/CyLFClk.c ****     *  counterNum: Valid range [0-2].  The number of the WDT counter.
 966:.\Generated_Source\PSoC4/CyLFClk.c ****     *
 967:.\Generated_Source\PSoC4/CyLFClk.c ****     * Return:
 968:.\Generated_Source\PSoC4/CyLFClk.c ****     *  A live counter value.  Counter 0 and 1 are 16 bit counters and counter
 969:.\Generated_Source\PSoC4/CyLFClk.c ****     *  2 is a 32 bit counter.
 970:.\Generated_Source\PSoC4/CyLFClk.c ****     *
 971:.\Generated_Source\PSoC4/CyLFClk.c ****     *******************************************************************************/
 972:.\Generated_Source\PSoC4/CyLFClk.c ****     uint32 CySysWdtGetCount(uint32 counterNum)
 973:.\Generated_Source\PSoC4/CyLFClk.c ****     {
 1596              		.loc 2 973 0
 1597              		.cfi_startproc
 1598 0000 80B5     		push	{r7, lr}
 1599              		.cfi_def_cfa_offset 8
 1600              		.cfi_offset 7, -8
 1601              		.cfi_offset 14, -4
 1602 0002 84B0     		sub	sp, sp, #16
 1603              		.cfi_def_cfa_offset 24
 1604 0004 00AF     		add	r7, sp, #0
 1605              		.cfi_def_cfa_register 7
 1606 0006 7860     		str	r0, [r7, #4]
 974:.\Generated_Source\PSoC4/CyLFClk.c ****         uint32 regValue = 0u;
 1607              		.loc 2 974 0
 1608 0008 0023     		mov	r3, #0
 1609 000a FB60     		str	r3, [r7, #12]
 975:.\Generated_Source\PSoC4/CyLFClk.c **** 
 976:.\Generated_Source\PSoC4/CyLFClk.c ****         switch(counterNum)
 1610              		.loc 2 976 0
 1611 000c 7B68     		ldr	r3, [r7, #4]
 1612 000e 012B     		cmp	r3, #1
 1613 0010 09D0     		beq	.L145
 1614 0012 02D3     		bcc	.L146
 1615 0014 022B     		cmp	r3, #2
 1616 0016 0BD0     		beq	.L147
 1617 0018 0EE0     		b	.L150
 1618              	.L146:
 977:.\Generated_Source\PSoC4/CyLFClk.c ****         {
 978:.\Generated_Source\PSoC4/CyLFClk.c ****             /* WDT Counter 0 */
 979:.\Generated_Source\PSoC4/CyLFClk.c ****             case 0u:
ARM GAS  C:\Users\passw\AppData\Local\Temp\ccYGIhwR.s 			page 53


 980:.\Generated_Source\PSoC4/CyLFClk.c ****                 regValue = CY_SYS_WDT_CTRLOW_REG & CY_SYS_WDT_LOWER_16BITS_MASK;
 1619              		.loc 2 980 0
 1620 001a 0C4B     		ldr	r3, .L151
 1621 001c 1B68     		ldr	r3, [r3]
 1622 001e 1B04     		lsl	r3, r3, #16
 1623 0020 1B0C     		lsr	r3, r3, #16
 1624 0022 FB60     		str	r3, [r7, #12]
 981:.\Generated_Source\PSoC4/CyLFClk.c ****             break;
 1625              		.loc 2 981 0
 1626 0024 0CE0     		b	.L148
 1627              	.L145:
 982:.\Generated_Source\PSoC4/CyLFClk.c **** 
 983:.\Generated_Source\PSoC4/CyLFClk.c ****             /* WDT Counter 1 */
 984:.\Generated_Source\PSoC4/CyLFClk.c ****             case 1u:
 985:.\Generated_Source\PSoC4/CyLFClk.c ****                 regValue = (CY_SYS_WDT_CTRLOW_REG >> CY_SYS_WDT_CNT_MATCH_SHIFT) & CY_SYS_WDT_LOWER
 1628              		.loc 2 985 0
 1629 0026 094B     		ldr	r3, .L151
 1630 0028 1B68     		ldr	r3, [r3]
 1631 002a 1B0C     		lsr	r3, r3, #16
 1632 002c FB60     		str	r3, [r7, #12]
 986:.\Generated_Source\PSoC4/CyLFClk.c ****             break;
 1633              		.loc 2 986 0
 1634 002e 07E0     		b	.L148
 1635              	.L147:
 987:.\Generated_Source\PSoC4/CyLFClk.c **** 
 988:.\Generated_Source\PSoC4/CyLFClk.c ****             /* WDT Counter 2 */
 989:.\Generated_Source\PSoC4/CyLFClk.c ****             case 2u:
 990:.\Generated_Source\PSoC4/CyLFClk.c ****                 regValue = CY_SYS_WDT_CTRHIGH_REG;
 1636              		.loc 2 990 0
 1637 0030 074B     		ldr	r3, .L151+4
 1638 0032 1B68     		ldr	r3, [r3]
 1639 0034 FB60     		str	r3, [r7, #12]
 991:.\Generated_Source\PSoC4/CyLFClk.c ****             break;
 1640              		.loc 2 991 0
 1641 0036 03E0     		b	.L148
 1642              	.L150:
 992:.\Generated_Source\PSoC4/CyLFClk.c **** 
 993:.\Generated_Source\PSoC4/CyLFClk.c ****             default:
 994:.\Generated_Source\PSoC4/CyLFClk.c ****                 CYASSERT(0u != 0u);
 1643              		.loc 2 994 0
 1644 0038 0020     		mov	r0, #0
 1645 003a FFF7FEFF 		bl	CyHalt
 995:.\Generated_Source\PSoC4/CyLFClk.c ****             break;
 1646              		.loc 2 995 0
 1647 003e C046     		mov	r8, r8
 1648              	.L148:
 996:.\Generated_Source\PSoC4/CyLFClk.c ****         }
 997:.\Generated_Source\PSoC4/CyLFClk.c **** 
 998:.\Generated_Source\PSoC4/CyLFClk.c ****         return (regValue);
 1649              		.loc 2 998 0
 1650 0040 FB68     		ldr	r3, [r7, #12]
 999:.\Generated_Source\PSoC4/CyLFClk.c ****     }
 1651              		.loc 2 999 0
 1652 0042 181C     		mov	r0, r3
 1653 0044 BD46     		mov	sp, r7
 1654 0046 04B0     		add	sp, sp, #16
 1655              		@ sp needed
ARM GAS  C:\Users\passw\AppData\Local\Temp\ccYGIhwR.s 			page 54


 1656 0048 80BD     		pop	{r7, pc}
 1657              	.L152:
 1658 004a C046     		.align	2
 1659              	.L151:
 1660 004c 00020B40 		.word	1074463232
 1661 0050 04020B40 		.word	1074463236
 1662              		.cfi_endproc
 1663              	.LFE26:
 1664              		.size	CySysWdtGetCount, .-CySysWdtGetCount
 1665              		.section	.text.CySysWdtGetInterruptSource,"ax",%progbits
 1666              		.align	2
 1667              		.global	CySysWdtGetInterruptSource
 1668              		.code	16
 1669              		.thumb_func
 1670              		.type	CySysWdtGetInterruptSource, %function
 1671              	CySysWdtGetInterruptSource:
 1672              	.LFB27:
1000:.\Generated_Source\PSoC4/CyLFClk.c **** 
1001:.\Generated_Source\PSoC4/CyLFClk.c **** 
1002:.\Generated_Source\PSoC4/CyLFClk.c ****     /*******************************************************************************
1003:.\Generated_Source\PSoC4/CyLFClk.c ****     * Function Name: CySysWdtGetInterruptSource
1004:.\Generated_Source\PSoC4/CyLFClk.c ****     ********************************************************************************
1005:.\Generated_Source\PSoC4/CyLFClk.c ****     *
1006:.\Generated_Source\PSoC4/CyLFClk.c ****     * Summary:
1007:.\Generated_Source\PSoC4/CyLFClk.c ****     *   Reads a mask containing all the WDT counters interrupts that are currently
1008:.\Generated_Source\PSoC4/CyLFClk.c ****     *   set by the hardware, if a corresponding mode is selected.
1009:.\Generated_Source\PSoC4/CyLFClk.c ****     *
1010:.\Generated_Source\PSoC4/CyLFClk.c ****     * Parameters:
1011:.\Generated_Source\PSoC4/CyLFClk.c ****     *   None.
1012:.\Generated_Source\PSoC4/CyLFClk.c ****     *
1013:.\Generated_Source\PSoC4/CyLFClk.c ****     * Return:
1014:.\Generated_Source\PSoC4/CyLFClk.c ****     *   The mask of interrupts set.
1015:.\Generated_Source\PSoC4/CyLFClk.c ****     *   Define                    Counter
1016:.\Generated_Source\PSoC4/CyLFClk.c ****     *   CY_SYS_WDT_COUNTER0_INT    0
1017:.\Generated_Source\PSoC4/CyLFClk.c ****     *   CY_SYS_WDT_COUNTER1_INT    1
1018:.\Generated_Source\PSoC4/CyLFClk.c ****     *   CY_SYS_WDT_COUNTER2_INT    2
1019:.\Generated_Source\PSoC4/CyLFClk.c ****     *
1020:.\Generated_Source\PSoC4/CyLFClk.c ****     *******************************************************************************/
1021:.\Generated_Source\PSoC4/CyLFClk.c ****     uint32 CySysWdtGetInterruptSource(void)
1022:.\Generated_Source\PSoC4/CyLFClk.c ****     {
 1673              		.loc 2 1022 0
 1674              		.cfi_startproc
 1675 0000 80B5     		push	{r7, lr}
 1676              		.cfi_def_cfa_offset 8
 1677              		.cfi_offset 7, -8
 1678              		.cfi_offset 14, -4
 1679 0002 00AF     		add	r7, sp, #0
 1680              		.cfi_def_cfa_register 7
1023:.\Generated_Source\PSoC4/CyLFClk.c ****         return (CY_SYS_WDT_CONTROL_REG & (CY_SYS_WDT_COUNTER0_INT | CY_SYS_WDT_COUNTER1_INT | CY_SY
 1681              		.loc 2 1023 0
 1682 0004 034B     		ldr	r3, .L155
 1683 0006 1B68     		ldr	r3, [r3]
 1684 0008 034A     		ldr	r2, .L155+4
 1685 000a 1340     		and	r3, r2
1024:.\Generated_Source\PSoC4/CyLFClk.c ****     }
 1686              		.loc 2 1024 0
 1687 000c 181C     		mov	r0, r3
ARM GAS  C:\Users\passw\AppData\Local\Temp\ccYGIhwR.s 			page 55


 1688 000e BD46     		mov	sp, r7
 1689              		@ sp needed
 1690 0010 80BD     		pop	{r7, pc}
 1691              	.L156:
 1692 0012 C046     		.align	2
 1693              	.L155:
 1694 0014 10020B40 		.word	1074463248
 1695 0018 04040400 		.word	263172
 1696              		.cfi_endproc
 1697              	.LFE27:
 1698              		.size	CySysWdtGetInterruptSource, .-CySysWdtGetInterruptSource
 1699              		.section	.text.CySysWdtClearInterrupt,"ax",%progbits
 1700              		.align	2
 1701              		.global	CySysWdtClearInterrupt
 1702              		.code	16
 1703              		.thumb_func
 1704              		.type	CySysWdtClearInterrupt, %function
 1705              	CySysWdtClearInterrupt:
 1706              	.LFB28:
1025:.\Generated_Source\PSoC4/CyLFClk.c **** 
1026:.\Generated_Source\PSoC4/CyLFClk.c **** 
1027:.\Generated_Source\PSoC4/CyLFClk.c ****     /*******************************************************************************
1028:.\Generated_Source\PSoC4/CyLFClk.c ****     * Function Name: CySysWdtClearInterrupt
1029:.\Generated_Source\PSoC4/CyLFClk.c ****     ********************************************************************************
1030:.\Generated_Source\PSoC4/CyLFClk.c ****     *
1031:.\Generated_Source\PSoC4/CyLFClk.c ****     * Summary:
1032:.\Generated_Source\PSoC4/CyLFClk.c ****     *   Clears all the WDT counter interrupts set in the mask. Calling this function
1033:.\Generated_Source\PSoC4/CyLFClk.c ****     *   also prevents from Reset when the counter mode is set to generate
1034:.\Generated_Source\PSoC4/CyLFClk.c ****     *   3 interrupts and then the device resets.
1035:.\Generated_Source\PSoC4/CyLFClk.c ****     *
1036:.\Generated_Source\PSoC4/CyLFClk.c ****     *   All the WDT interrupts are to be cleared by the firmware, otherwise
1037:.\Generated_Source\PSoC4/CyLFClk.c ****     *   interrupts are generated continuously.
1038:.\Generated_Source\PSoC4/CyLFClk.c ****     *
1039:.\Generated_Source\PSoC4/CyLFClk.c ****     * Parameters:
1040:.\Generated_Source\PSoC4/CyLFClk.c ****     *   counterMask: The mask of all the counters to enable.
1041:.\Generated_Source\PSoC4/CyLFClk.c ****     *   Define                    Counter
1042:.\Generated_Source\PSoC4/CyLFClk.c ****     *   CY_SYS_WDT_COUNTER0_INT    0
1043:.\Generated_Source\PSoC4/CyLFClk.c ****     *   CY_SYS_WDT_COUNTER1_INT    1
1044:.\Generated_Source\PSoC4/CyLFClk.c ****     *   CY_SYS_WDT_COUNTER2_INT    2
1045:.\Generated_Source\PSoC4/CyLFClk.c ****     *
1046:.\Generated_Source\PSoC4/CyLFClk.c ****     * Return:
1047:.\Generated_Source\PSoC4/CyLFClk.c ****     *   None
1048:.\Generated_Source\PSoC4/CyLFClk.c ****     *
1049:.\Generated_Source\PSoC4/CyLFClk.c ****     * Side effects:
1050:.\Generated_Source\PSoC4/CyLFClk.c ****     *   This function temporary removes the watchdog lock, if it was set, and
1051:.\Generated_Source\PSoC4/CyLFClk.c ****     *   restores the lock state after cleaning the WDT interrupts that are set in
1052:.\Generated_Source\PSoC4/CyLFClk.c ****     *   a mask.
1053:.\Generated_Source\PSoC4/CyLFClk.c ****     *
1054:.\Generated_Source\PSoC4/CyLFClk.c ****     *******************************************************************************/
1055:.\Generated_Source\PSoC4/CyLFClk.c ****     void CySysWdtClearInterrupt(uint32 counterMask)
1056:.\Generated_Source\PSoC4/CyLFClk.c ****     {
 1707              		.loc 2 1056 0
 1708              		.cfi_startproc
 1709 0000 90B5     		push	{r4, r7, lr}
 1710              		.cfi_def_cfa_offset 12
 1711              		.cfi_offset 4, -12
 1712              		.cfi_offset 7, -8
ARM GAS  C:\Users\passw\AppData\Local\Temp\ccYGIhwR.s 			page 56


 1713              		.cfi_offset 14, -4
 1714 0002 85B0     		sub	sp, sp, #20
 1715              		.cfi_def_cfa_offset 32
 1716 0004 00AF     		add	r7, sp, #0
 1717              		.cfi_def_cfa_register 7
 1718 0006 7860     		str	r0, [r7, #4]
1057:.\Generated_Source\PSoC4/CyLFClk.c ****         uint8 interruptState;
1058:.\Generated_Source\PSoC4/CyLFClk.c ****         uint32 wdtLockState;
1059:.\Generated_Source\PSoC4/CyLFClk.c **** 
1060:.\Generated_Source\PSoC4/CyLFClk.c ****         interruptState = CyEnterCriticalSection();
 1719              		.loc 2 1060 0
 1720 0008 0B23     		mov	r3, #11
 1721 000a FC18     		add	r4, r7, r3
 1722 000c FFF7FEFF 		bl	CyEnterCriticalSection
 1723 0010 031C     		mov	r3, r0
 1724 0012 2370     		strb	r3, [r4]
1061:.\Generated_Source\PSoC4/CyLFClk.c **** 
1062:.\Generated_Source\PSoC4/CyLFClk.c ****         if (0u != CySysWdtLocked())
 1725              		.loc 2 1062 0
 1726 0014 FFF7FEFF 		bl	CySysWdtLocked
 1727 0018 031E     		sub	r3, r0, #0
 1728 001a 04D0     		beq	.L158
1063:.\Generated_Source\PSoC4/CyLFClk.c ****         {
1064:.\Generated_Source\PSoC4/CyLFClk.c ****             wdtLockState = 1u;
 1729              		.loc 2 1064 0
 1730 001c 0123     		mov	r3, #1
 1731 001e FB60     		str	r3, [r7, #12]
1065:.\Generated_Source\PSoC4/CyLFClk.c ****             CySysWdtUnlock();
 1732              		.loc 2 1065 0
 1733 0020 FFF7FEFF 		bl	CySysWdtUnlock
 1734 0024 01E0     		b	.L159
 1735              	.L158:
1066:.\Generated_Source\PSoC4/CyLFClk.c ****         }
1067:.\Generated_Source\PSoC4/CyLFClk.c ****         else
1068:.\Generated_Source\PSoC4/CyLFClk.c ****         {
1069:.\Generated_Source\PSoC4/CyLFClk.c ****             wdtLockState = 0u;
 1736              		.loc 2 1069 0
 1737 0026 0023     		mov	r3, #0
 1738 0028 FB60     		str	r3, [r7, #12]
 1739              	.L159:
1070:.\Generated_Source\PSoC4/CyLFClk.c ****         }
1071:.\Generated_Source\PSoC4/CyLFClk.c **** 
1072:.\Generated_Source\PSoC4/CyLFClk.c ****         /* Set new WDT control register value */
1073:.\Generated_Source\PSoC4/CyLFClk.c ****         counterMask &= (CY_SYS_WDT_COUNTER0_INT |
 1740              		.loc 2 1073 0
 1741 002a 7B68     		ldr	r3, [r7, #4]
 1742 002c 0D4A     		ldr	r2, .L161
 1743 002e 1340     		and	r3, r2
 1744 0030 7B60     		str	r3, [r7, #4]
1074:.\Generated_Source\PSoC4/CyLFClk.c ****                         CY_SYS_WDT_COUNTER1_INT |
1075:.\Generated_Source\PSoC4/CyLFClk.c ****                         CY_SYS_WDT_COUNTER2_INT);
1076:.\Generated_Source\PSoC4/CyLFClk.c **** 
1077:.\Generated_Source\PSoC4/CyLFClk.c ****         CY_SYS_WDT_CONTROL_REG = counterMask | (CY_SYS_WDT_CONTROL_REG & ~(CY_SYS_WDT_COUNTER0_INT 
 1745              		.loc 2 1077 0
 1746 0032 0D4B     		ldr	r3, .L161+4
 1747 0034 0C4A     		ldr	r2, .L161+4
 1748 0036 1268     		ldr	r2, [r2]
ARM GAS  C:\Users\passw\AppData\Local\Temp\ccYGIhwR.s 			page 57


 1749 0038 0C49     		ldr	r1, .L161+8
 1750 003a 1140     		and	r1, r2
 1751 003c 7A68     		ldr	r2, [r7, #4]
 1752 003e 0A43     		orr	r2, r1
 1753 0040 1A60     		str	r2, [r3]
1078:.\Generated_Source\PSoC4/CyLFClk.c ****                                                                            CY_SYS_WDT_COUNTER1_INT 
1079:.\Generated_Source\PSoC4/CyLFClk.c ****                                                                            CY_SYS_WDT_COUNTER2_INT)
1080:.\Generated_Source\PSoC4/CyLFClk.c **** 
1081:.\Generated_Source\PSoC4/CyLFClk.c ****         /* Read the CY_SYS_WDT_CONTROL_REG to clear the interrupt request.
1082:.\Generated_Source\PSoC4/CyLFClk.c ****          * Cypress ID #207093, #206231
1083:.\Generated_Source\PSoC4/CyLFClk.c ****         */
1084:.\Generated_Source\PSoC4/CyLFClk.c ****         (void)CY_SYS_WDT_CONTROL_REG;
 1754              		.loc 2 1084 0
 1755 0042 094B     		ldr	r3, .L161+4
 1756 0044 1B68     		ldr	r3, [r3]
1085:.\Generated_Source\PSoC4/CyLFClk.c **** 
1086:.\Generated_Source\PSoC4/CyLFClk.c ****         if (1u == wdtLockState)
 1757              		.loc 2 1086 0
 1758 0046 FB68     		ldr	r3, [r7, #12]
 1759 0048 012B     		cmp	r3, #1
 1760 004a 01D1     		bne	.L160
1087:.\Generated_Source\PSoC4/CyLFClk.c ****         {
1088:.\Generated_Source\PSoC4/CyLFClk.c ****             CySysWdtLock();
 1761              		.loc 2 1088 0
 1762 004c FFF7FEFF 		bl	CySysWdtLock
 1763              	.L160:
1089:.\Generated_Source\PSoC4/CyLFClk.c ****         }
1090:.\Generated_Source\PSoC4/CyLFClk.c **** 
1091:.\Generated_Source\PSoC4/CyLFClk.c ****         CyExitCriticalSection(interruptState);
 1764              		.loc 2 1091 0
 1765 0050 0B23     		mov	r3, #11
 1766 0052 FB18     		add	r3, r7, r3
 1767 0054 1B78     		ldrb	r3, [r3]
 1768 0056 181C     		mov	r0, r3
 1769 0058 FFF7FEFF 		bl	CyExitCriticalSection
1092:.\Generated_Source\PSoC4/CyLFClk.c ****     }
 1770              		.loc 2 1092 0
 1771 005c BD46     		mov	sp, r7
 1772 005e 05B0     		add	sp, sp, #20
 1773              		@ sp needed
 1774 0060 90BD     		pop	{r4, r7, pc}
 1775              	.L162:
 1776 0062 C046     		.align	2
 1777              	.L161:
 1778 0064 04040400 		.word	263172
 1779 0068 10020B40 		.word	1074463248
 1780 006c FBFBFBFF 		.word	-263173
 1781              		.cfi_endproc
 1782              	.LFE28:
 1783              		.size	CySysWdtClearInterrupt, .-CySysWdtClearInterrupt
 1784              		.section	.text.CySysWdtResetCounters,"ax",%progbits
 1785              		.align	2
 1786              		.global	CySysWdtResetCounters
 1787              		.code	16
 1788              		.thumb_func
 1789              		.type	CySysWdtResetCounters, %function
 1790              	CySysWdtResetCounters:
ARM GAS  C:\Users\passw\AppData\Local\Temp\ccYGIhwR.s 			page 58


 1791              	.LFB29:
1093:.\Generated_Source\PSoC4/CyLFClk.c **** 
1094:.\Generated_Source\PSoC4/CyLFClk.c **** 
1095:.\Generated_Source\PSoC4/CyLFClk.c ****     /*******************************************************************************
1096:.\Generated_Source\PSoC4/CyLFClk.c ****     * Function Name: CySysWdtResetCounters
1097:.\Generated_Source\PSoC4/CyLFClk.c ****     ********************************************************************************
1098:.\Generated_Source\PSoC4/CyLFClk.c ****     *
1099:.\Generated_Source\PSoC4/CyLFClk.c ****     * Summary:
1100:.\Generated_Source\PSoC4/CyLFClk.c ****     *  Resets all the WDT counters set in the mask.
1101:.\Generated_Source\PSoC4/CyLFClk.c ****     *
1102:.\Generated_Source\PSoC4/CyLFClk.c ****     * Parameters:
1103:.\Generated_Source\PSoC4/CyLFClk.c ****     *  counterMask: The mask of all the counters to reset.
1104:.\Generated_Source\PSoC4/CyLFClk.c ****     *   Define                       Counter
1105:.\Generated_Source\PSoC4/CyLFClk.c ****     *   CY_SYS_WDT_COUNTER0_RESET    0
1106:.\Generated_Source\PSoC4/CyLFClk.c ****     *   CY_SYS_WDT_COUNTER1_RESET    1
1107:.\Generated_Source\PSoC4/CyLFClk.c ****     *   CY_SYS_WDT_COUNTER2_RESET    2
1108:.\Generated_Source\PSoC4/CyLFClk.c ****     *
1109:.\Generated_Source\PSoC4/CyLFClk.c ****     * Return:
1110:.\Generated_Source\PSoC4/CyLFClk.c ****     *   None
1111:.\Generated_Source\PSoC4/CyLFClk.c ****     *
1112:.\Generated_Source\PSoC4/CyLFClk.c ****     * Side effects:
1113:.\Generated_Source\PSoC4/CyLFClk.c ****     *   This function does not reset counter values if the Watchdog is locked.
1114:.\Generated_Source\PSoC4/CyLFClk.c ****     *   This function waits while corresponding counters will be reset. This may
1115:.\Generated_Source\PSoC4/CyLFClk.c ****     *   take up to 3 LFCLK cycles.
1116:.\Generated_Source\PSoC4/CyLFClk.c ****     *   The LFCLK source must be enabled. Otherwise, the function will never exit.
1117:.\Generated_Source\PSoC4/CyLFClk.c ****     *
1118:.\Generated_Source\PSoC4/CyLFClk.c ****     *******************************************************************************/
1119:.\Generated_Source\PSoC4/CyLFClk.c ****     void CySysWdtResetCounters(uint32 countersMask)
1120:.\Generated_Source\PSoC4/CyLFClk.c ****     {
 1792              		.loc 2 1120 0
 1793              		.cfi_startproc
 1794 0000 80B5     		push	{r7, lr}
 1795              		.cfi_def_cfa_offset 8
 1796              		.cfi_offset 7, -8
 1797              		.cfi_offset 14, -4
 1798 0002 82B0     		sub	sp, sp, #8
 1799              		.cfi_def_cfa_offset 16
 1800 0004 00AF     		add	r7, sp, #0
 1801              		.cfi_def_cfa_register 7
 1802 0006 7860     		str	r0, [r7, #4]
1121:.\Generated_Source\PSoC4/CyLFClk.c ****         /* Set new WDT reset value */
1122:.\Generated_Source\PSoC4/CyLFClk.c ****         CY_SYS_WDT_CONTROL_REG |= (countersMask & CY_SYS_WDT_COUNTERS_RESET);
 1803              		.loc 2 1122 0
 1804 0008 084B     		ldr	r3, .L165
 1805 000a 084A     		ldr	r2, .L165
 1806 000c 1168     		ldr	r1, [r2]
 1807 000e 7A68     		ldr	r2, [r7, #4]
 1808 0010 0748     		ldr	r0, .L165+4
 1809 0012 0240     		and	r2, r0
 1810 0014 0A43     		orr	r2, r1
 1811 0016 1A60     		str	r2, [r3]
1123:.\Generated_Source\PSoC4/CyLFClk.c **** 
1124:.\Generated_Source\PSoC4/CyLFClk.c ****         while (0uL != (CY_SYS_WDT_CONTROL_REG & CY_SYS_WDT_COUNTERS_RESET))
 1812              		.loc 2 1124 0
 1813 0018 C046     		mov	r8, r8
 1814              	.L164:
 1815              		.loc 2 1124 0 is_stmt 0 discriminator 1
ARM GAS  C:\Users\passw\AppData\Local\Temp\ccYGIhwR.s 			page 59


 1816 001a 044B     		ldr	r3, .L165
 1817 001c 1B68     		ldr	r3, [r3]
 1818 001e 044A     		ldr	r2, .L165+4
 1819 0020 1340     		and	r3, r2
 1820 0022 FAD1     		bne	.L164
1125:.\Generated_Source\PSoC4/CyLFClk.c ****         {
1126:.\Generated_Source\PSoC4/CyLFClk.c ****             /* Wait for reset to come into effect */
1127:.\Generated_Source\PSoC4/CyLFClk.c ****         }
1128:.\Generated_Source\PSoC4/CyLFClk.c ****     }
 1821              		.loc 2 1128 0 is_stmt 1
 1822 0024 BD46     		mov	sp, r7
 1823 0026 02B0     		add	sp, sp, #8
 1824              		@ sp needed
 1825 0028 80BD     		pop	{r7, pc}
 1826              	.L166:
 1827 002a C046     		.align	2
 1828              	.L165:
 1829 002c 10020B40 		.word	1074463248
 1830 0030 08080800 		.word	526344
 1831              		.cfi_endproc
 1832              	.LFE29:
 1833              		.size	CySysWdtResetCounters, .-CySysWdtResetCounters
 1834              		.section	.text.CySysWdtSetInterruptCallback,"ax",%progbits
 1835              		.align	2
 1836              		.global	CySysWdtSetInterruptCallback
 1837              		.code	16
 1838              		.thumb_func
 1839              		.type	CySysWdtSetInterruptCallback, %function
 1840              	CySysWdtSetInterruptCallback:
 1841              	.LFB30:
1129:.\Generated_Source\PSoC4/CyLFClk.c **** 
1130:.\Generated_Source\PSoC4/CyLFClk.c **** 
1131:.\Generated_Source\PSoC4/CyLFClk.c ****     /*******************************************************************************
1132:.\Generated_Source\PSoC4/CyLFClk.c ****     * Function Name: CySysWdtSetInterruptCallback
1133:.\Generated_Source\PSoC4/CyLFClk.c ****     ********************************************************************************
1134:.\Generated_Source\PSoC4/CyLFClk.c ****     *
1135:.\Generated_Source\PSoC4/CyLFClk.c ****     * Summary:
1136:.\Generated_Source\PSoC4/CyLFClk.c ****     *  Sets the ISR callback function for the particular WDT counter.
1137:.\Generated_Source\PSoC4/CyLFClk.c ****     *  These functions are called on the WDT interrupt.
1138:.\Generated_Source\PSoC4/CyLFClk.c ****     *
1139:.\Generated_Source\PSoC4/CyLFClk.c ****     * Parameters:
1140:.\Generated_Source\PSoC4/CyLFClk.c ****     *  counterNum : The number of the WDT counter.
1141:.\Generated_Source\PSoC4/CyLFClk.c ****     *  function   : The pointer to the callback function.
1142:.\Generated_Source\PSoC4/CyLFClk.c ****     *
1143:.\Generated_Source\PSoC4/CyLFClk.c ****     * Return:
1144:.\Generated_Source\PSoC4/CyLFClk.c ****     *  The pointer to the previous callback function.
1145:.\Generated_Source\PSoC4/CyLFClk.c ****     *  NULL is returned if the specified address is not set.
1146:.\Generated_Source\PSoC4/CyLFClk.c ****     *
1147:.\Generated_Source\PSoC4/CyLFClk.c ****     *******************************************************************************/
1148:.\Generated_Source\PSoC4/CyLFClk.c ****     cyWdtCallback CySysWdtSetInterruptCallback(uint32 counterNum, cyWdtCallback function)
1149:.\Generated_Source\PSoC4/CyLFClk.c ****     {
 1842              		.loc 2 1149 0
 1843              		.cfi_startproc
 1844 0000 80B5     		push	{r7, lr}
 1845              		.cfi_def_cfa_offset 8
 1846              		.cfi_offset 7, -8
 1847              		.cfi_offset 14, -4
ARM GAS  C:\Users\passw\AppData\Local\Temp\ccYGIhwR.s 			page 60


 1848 0002 84B0     		sub	sp, sp, #16
 1849              		.cfi_def_cfa_offset 24
 1850 0004 00AF     		add	r7, sp, #0
 1851              		.cfi_def_cfa_register 7
 1852 0006 7860     		str	r0, [r7, #4]
 1853 0008 3960     		str	r1, [r7]
1150:.\Generated_Source\PSoC4/CyLFClk.c ****         cyWdtCallback prevCallback = (void *)0;
 1854              		.loc 2 1150 0
 1855 000a 0023     		mov	r3, #0
 1856 000c FB60     		str	r3, [r7, #12]
1151:.\Generated_Source\PSoC4/CyLFClk.c **** 
1152:.\Generated_Source\PSoC4/CyLFClk.c ****         if(counterNum < CY_WDT_NUM_OF_WDT)
 1857              		.loc 2 1152 0
 1858 000e 7B68     		ldr	r3, [r7, #4]
 1859 0010 022B     		cmp	r3, #2
 1860 0012 0AD8     		bhi	.L168
1153:.\Generated_Source\PSoC4/CyLFClk.c ****         {
1154:.\Generated_Source\PSoC4/CyLFClk.c ****             prevCallback = cySysWdtCallback[counterNum];
 1861              		.loc 2 1154 0
 1862 0014 094B     		ldr	r3, .L171
 1863 0016 7A68     		ldr	r2, [r7, #4]
 1864 0018 9200     		lsl	r2, r2, #2
 1865 001a D358     		ldr	r3, [r2, r3]
 1866 001c FB60     		str	r3, [r7, #12]
1155:.\Generated_Source\PSoC4/CyLFClk.c ****             cySysWdtCallback[counterNum] = function;
 1867              		.loc 2 1155 0
 1868 001e 074B     		ldr	r3, .L171
 1869 0020 7A68     		ldr	r2, [r7, #4]
 1870 0022 9200     		lsl	r2, r2, #2
 1871 0024 3968     		ldr	r1, [r7]
 1872 0026 D150     		str	r1, [r2, r3]
 1873 0028 02E0     		b	.L169
 1874              	.L168:
1156:.\Generated_Source\PSoC4/CyLFClk.c ****         }
1157:.\Generated_Source\PSoC4/CyLFClk.c ****         else
1158:.\Generated_Source\PSoC4/CyLFClk.c ****         {
1159:.\Generated_Source\PSoC4/CyLFClk.c ****             CYASSERT(0u != 0u);
 1875              		.loc 2 1159 0 discriminator 1
 1876 002a 0020     		mov	r0, #0
 1877 002c FFF7FEFF 		bl	CyHalt
 1878              	.L169:
1160:.\Generated_Source\PSoC4/CyLFClk.c ****         }
1161:.\Generated_Source\PSoC4/CyLFClk.c **** 
1162:.\Generated_Source\PSoC4/CyLFClk.c ****         return((cyWdtCallback)prevCallback);
 1879              		.loc 2 1162 0
 1880 0030 FB68     		ldr	r3, [r7, #12]
1163:.\Generated_Source\PSoC4/CyLFClk.c ****     }
 1881              		.loc 2 1163 0
 1882 0032 181C     		mov	r0, r3
 1883 0034 BD46     		mov	sp, r7
 1884 0036 04B0     		add	sp, sp, #16
 1885              		@ sp needed
 1886 0038 80BD     		pop	{r7, pc}
 1887              	.L172:
 1888 003a C046     		.align	2
 1889              	.L171:
 1890 003c 0C000000 		.word	cySysWdtCallback
ARM GAS  C:\Users\passw\AppData\Local\Temp\ccYGIhwR.s 			page 61


 1891              		.cfi_endproc
 1892              	.LFE30:
 1893              		.size	CySysWdtSetInterruptCallback, .-CySysWdtSetInterruptCallback
 1894              		.section	.text.CySysWdtGetInterruptCallback,"ax",%progbits
 1895              		.align	2
 1896              		.global	CySysWdtGetInterruptCallback
 1897              		.code	16
 1898              		.thumb_func
 1899              		.type	CySysWdtGetInterruptCallback, %function
 1900              	CySysWdtGetInterruptCallback:
 1901              	.LFB31:
1164:.\Generated_Source\PSoC4/CyLFClk.c **** 
1165:.\Generated_Source\PSoC4/CyLFClk.c **** 
1166:.\Generated_Source\PSoC4/CyLFClk.c ****     /*******************************************************************************
1167:.\Generated_Source\PSoC4/CyLFClk.c ****     * Function Name: CySysWdtGetInterruptCallback
1168:.\Generated_Source\PSoC4/CyLFClk.c ****     ********************************************************************************
1169:.\Generated_Source\PSoC4/CyLFClk.c ****     *
1170:.\Generated_Source\PSoC4/CyLFClk.c ****     * Summary:
1171:.\Generated_Source\PSoC4/CyLFClk.c ****     *  Gets the ISR callback function for the particular WDT counter.
1172:.\Generated_Source\PSoC4/CyLFClk.c ****     *
1173:.\Generated_Source\PSoC4/CyLFClk.c ****     * Parameters:
1174:.\Generated_Source\PSoC4/CyLFClk.c ****     *  counterNum : The number of the WDT counter.
1175:.\Generated_Source\PSoC4/CyLFClk.c ****     *
1176:.\Generated_Source\PSoC4/CyLFClk.c ****     * Return:
1177:.\Generated_Source\PSoC4/CyLFClk.c ****     *  The pointer to the callback function registered for a particular WDT by
1178:.\Generated_Source\PSoC4/CyLFClk.c ****     *  a particular address that are passed through arguments.
1179:.\Generated_Source\PSoC4/CyLFClk.c ****     *
1180:.\Generated_Source\PSoC4/CyLFClk.c ****     *******************************************************************************/
1181:.\Generated_Source\PSoC4/CyLFClk.c ****     cyWdtCallback CySysWdtGetInterruptCallback(uint32 counterNum)
1182:.\Generated_Source\PSoC4/CyLFClk.c ****     {
 1902              		.loc 2 1182 0
 1903              		.cfi_startproc
 1904 0000 80B5     		push	{r7, lr}
 1905              		.cfi_def_cfa_offset 8
 1906              		.cfi_offset 7, -8
 1907              		.cfi_offset 14, -4
 1908 0002 84B0     		sub	sp, sp, #16
 1909              		.cfi_def_cfa_offset 24
 1910 0004 00AF     		add	r7, sp, #0
 1911              		.cfi_def_cfa_register 7
 1912 0006 7860     		str	r0, [r7, #4]
1183:.\Generated_Source\PSoC4/CyLFClk.c ****         cyWdtCallback retCallback = (void *)0;
 1913              		.loc 2 1183 0
 1914 0008 0023     		mov	r3, #0
 1915 000a FB60     		str	r3, [r7, #12]
1184:.\Generated_Source\PSoC4/CyLFClk.c **** 
1185:.\Generated_Source\PSoC4/CyLFClk.c ****         if(counterNum < CY_WDT_NUM_OF_WDT)
 1916              		.loc 2 1185 0
 1917 000c 7B68     		ldr	r3, [r7, #4]
 1918 000e 022B     		cmp	r3, #2
 1919 0010 05D8     		bhi	.L174
1186:.\Generated_Source\PSoC4/CyLFClk.c ****         {
1187:.\Generated_Source\PSoC4/CyLFClk.c ****             retCallback = (cyWdtCallback)cySysWdtCallback[counterNum];
 1920              		.loc 2 1187 0
 1921 0012 074B     		ldr	r3, .L177
 1922 0014 7A68     		ldr	r2, [r7, #4]
 1923 0016 9200     		lsl	r2, r2, #2
ARM GAS  C:\Users\passw\AppData\Local\Temp\ccYGIhwR.s 			page 62


 1924 0018 D358     		ldr	r3, [r2, r3]
 1925 001a FB60     		str	r3, [r7, #12]
 1926 001c 02E0     		b	.L175
 1927              	.L174:
1188:.\Generated_Source\PSoC4/CyLFClk.c ****         }
1189:.\Generated_Source\PSoC4/CyLFClk.c ****         else
1190:.\Generated_Source\PSoC4/CyLFClk.c ****         {
1191:.\Generated_Source\PSoC4/CyLFClk.c ****             CYASSERT(0u != 0u);
 1928              		.loc 2 1191 0 discriminator 1
 1929 001e 0020     		mov	r0, #0
 1930 0020 FFF7FEFF 		bl	CyHalt
 1931              	.L175:
1192:.\Generated_Source\PSoC4/CyLFClk.c ****         }
1193:.\Generated_Source\PSoC4/CyLFClk.c **** 
1194:.\Generated_Source\PSoC4/CyLFClk.c ****         return(retCallback);
 1932              		.loc 2 1194 0
 1933 0024 FB68     		ldr	r3, [r7, #12]
1195:.\Generated_Source\PSoC4/CyLFClk.c ****     }
 1934              		.loc 2 1195 0
 1935 0026 181C     		mov	r0, r3
 1936 0028 BD46     		mov	sp, r7
 1937 002a 04B0     		add	sp, sp, #16
 1938              		@ sp needed
 1939 002c 80BD     		pop	{r7, pc}
 1940              	.L178:
 1941 002e C046     		.align	2
 1942              	.L177:
 1943 0030 0C000000 		.word	cySysWdtCallback
 1944              		.cfi_endproc
 1945              	.LFE31:
 1946              		.size	CySysWdtGetInterruptCallback, .-CySysWdtGetInterruptCallback
 1947              		.section	.text.CySysWdtEnableCounterIsr,"ax",%progbits
 1948              		.align	2
 1949              		.global	CySysWdtEnableCounterIsr
 1950              		.code	16
 1951              		.thumb_func
 1952              		.type	CySysWdtEnableCounterIsr, %function
 1953              	CySysWdtEnableCounterIsr:
 1954              	.LFB32:
1196:.\Generated_Source\PSoC4/CyLFClk.c **** 
1197:.\Generated_Source\PSoC4/CyLFClk.c **** 
1198:.\Generated_Source\PSoC4/CyLFClk.c ****     /*******************************************************************************
1199:.\Generated_Source\PSoC4/CyLFClk.c ****     * Function Name: CySysWdtEnableCounterIsr
1200:.\Generated_Source\PSoC4/CyLFClk.c ****     ********************************************************************************
1201:.\Generated_Source\PSoC4/CyLFClk.c ****     *
1202:.\Generated_Source\PSoC4/CyLFClk.c ****     * Summary:
1203:.\Generated_Source\PSoC4/CyLFClk.c ****     *  Enables the ISR callback servicing for the particular WDT counter
1204:.\Generated_Source\PSoC4/CyLFClk.c ****     *
1205:.\Generated_Source\PSoC4/CyLFClk.c ****     * Parameters:
1206:.\Generated_Source\PSoC4/CyLFClk.c ****     *  counterNum: Valid range [0-2].  The number of the WDT counter.
1207:.\Generated_Source\PSoC4/CyLFClk.c ****     *
1208:.\Generated_Source\PSoC4/CyLFClk.c ****     *******************************************************************************/
1209:.\Generated_Source\PSoC4/CyLFClk.c ****     void CySysWdtEnableCounterIsr(uint32 counterNum)
1210:.\Generated_Source\PSoC4/CyLFClk.c ****     {
 1955              		.loc 2 1210 0
 1956              		.cfi_startproc
 1957 0000 80B5     		push	{r7, lr}
ARM GAS  C:\Users\passw\AppData\Local\Temp\ccYGIhwR.s 			page 63


 1958              		.cfi_def_cfa_offset 8
 1959              		.cfi_offset 7, -8
 1960              		.cfi_offset 14, -4
 1961 0002 82B0     		sub	sp, sp, #8
 1962              		.cfi_def_cfa_offset 16
 1963 0004 00AF     		add	r7, sp, #0
 1964              		.cfi_def_cfa_register 7
 1965 0006 7860     		str	r0, [r7, #4]
1211:.\Generated_Source\PSoC4/CyLFClk.c ****         if(counterNum <= CY_SYS_WDT_COUNTER2)
 1966              		.loc 2 1211 0
 1967 0008 7B68     		ldr	r3, [r7, #4]
 1968 000a 022B     		cmp	r3, #2
 1969 000c 13D8     		bhi	.L180
1212:.\Generated_Source\PSoC4/CyLFClk.c ****         {
1213:.\Generated_Source\PSoC4/CyLFClk.c ****             disableServicedIsr &= ~counterIntMaskTbl[counterNum];
 1970              		.loc 2 1213 0
 1971 000e 0D4B     		ldr	r3, .L182
 1972 0010 7A68     		ldr	r2, [r7, #4]
 1973 0012 9200     		lsl	r2, r2, #2
 1974 0014 D358     		ldr	r3, [r2, r3]
 1975 0016 DA43     		mvn	r2, r3
 1976 0018 0B4B     		ldr	r3, .L182+4
 1977 001a 1B68     		ldr	r3, [r3]
 1978 001c 1A40     		and	r2, r3
 1979 001e 0A4B     		ldr	r3, .L182+4
 1980 0020 1A60     		str	r2, [r3]
1214:.\Generated_Source\PSoC4/CyLFClk.c ****             wdtIsrMask |= counterIntMaskTbl[counterNum];
 1981              		.loc 2 1214 0
 1982 0022 084B     		ldr	r3, .L182
 1983 0024 7A68     		ldr	r2, [r7, #4]
 1984 0026 9200     		lsl	r2, r2, #2
 1985 0028 D258     		ldr	r2, [r2, r3]
 1986 002a 084B     		ldr	r3, .L182+8
 1987 002c 1B68     		ldr	r3, [r3]
 1988 002e 1A43     		orr	r2, r3
 1989 0030 064B     		ldr	r3, .L182+8
 1990 0032 1A60     		str	r2, [r3]
 1991 0034 02E0     		b	.L179
 1992              	.L180:
1215:.\Generated_Source\PSoC4/CyLFClk.c ****         }
1216:.\Generated_Source\PSoC4/CyLFClk.c ****         else
1217:.\Generated_Source\PSoC4/CyLFClk.c ****         {
1218:.\Generated_Source\PSoC4/CyLFClk.c ****             CYASSERT(0u != 0u);
 1993              		.loc 2 1218 0 discriminator 1
 1994 0036 0020     		mov	r0, #0
 1995 0038 FFF7FEFF 		bl	CyHalt
 1996              	.L179:
1219:.\Generated_Source\PSoC4/CyLFClk.c ****         }
1220:.\Generated_Source\PSoC4/CyLFClk.c ****     }
 1997              		.loc 2 1220 0
 1998 003c BD46     		mov	sp, r7
 1999 003e 02B0     		add	sp, sp, #8
 2000              		@ sp needed
 2001 0040 80BD     		pop	{r7, pc}
 2002              	.L183:
 2003 0042 C046     		.align	2
 2004              	.L182:
ARM GAS  C:\Users\passw\AppData\Local\Temp\ccYGIhwR.s 			page 64


 2005 0044 00000000 		.word	counterIntMaskTbl
 2006 0048 08000000 		.word	disableServicedIsr
 2007 004c 00000000 		.word	wdtIsrMask
 2008              		.cfi_endproc
 2009              	.LFE32:
 2010              		.size	CySysWdtEnableCounterIsr, .-CySysWdtEnableCounterIsr
 2011              		.section	.text.CySysWdtDisableCounterIsr,"ax",%progbits
 2012              		.align	2
 2013              		.global	CySysWdtDisableCounterIsr
 2014              		.code	16
 2015              		.thumb_func
 2016              		.type	CySysWdtDisableCounterIsr, %function
 2017              	CySysWdtDisableCounterIsr:
 2018              	.LFB33:
1221:.\Generated_Source\PSoC4/CyLFClk.c **** 
1222:.\Generated_Source\PSoC4/CyLFClk.c **** 
1223:.\Generated_Source\PSoC4/CyLFClk.c ****     /*******************************************************************************
1224:.\Generated_Source\PSoC4/CyLFClk.c ****     * Function Name: CySysWdtDisableCounterIsr
1225:.\Generated_Source\PSoC4/CyLFClk.c ****     ********************************************************************************
1226:.\Generated_Source\PSoC4/CyLFClk.c ****     *
1227:.\Generated_Source\PSoC4/CyLFClk.c ****     * Summary:
1228:.\Generated_Source\PSoC4/CyLFClk.c ****     *  Disables the ISR callback servicing for the particular WDT counter
1229:.\Generated_Source\PSoC4/CyLFClk.c ****     *
1230:.\Generated_Source\PSoC4/CyLFClk.c ****     * Parameters:
1231:.\Generated_Source\PSoC4/CyLFClk.c ****     *  counterNum: Valid range [0-2].  The number of the WDT counter.
1232:.\Generated_Source\PSoC4/CyLFClk.c ****     *
1233:.\Generated_Source\PSoC4/CyLFClk.c ****     *******************************************************************************/
1234:.\Generated_Source\PSoC4/CyLFClk.c ****     void CySysWdtDisableCounterIsr(uint32 counterNum)
1235:.\Generated_Source\PSoC4/CyLFClk.c ****     {
 2019              		.loc 2 1235 0
 2020              		.cfi_startproc
 2021 0000 80B5     		push	{r7, lr}
 2022              		.cfi_def_cfa_offset 8
 2023              		.cfi_offset 7, -8
 2024              		.cfi_offset 14, -4
 2025 0002 82B0     		sub	sp, sp, #8
 2026              		.cfi_def_cfa_offset 16
 2027 0004 00AF     		add	r7, sp, #0
 2028              		.cfi_def_cfa_register 7
 2029 0006 7860     		str	r0, [r7, #4]
1236:.\Generated_Source\PSoC4/CyLFClk.c ****         if(counterNum <= CY_SYS_WDT_COUNTER2)
 2030              		.loc 2 1236 0
 2031 0008 7B68     		ldr	r3, [r7, #4]
 2032 000a 022B     		cmp	r3, #2
 2033 000c 0AD8     		bhi	.L185
1237:.\Generated_Source\PSoC4/CyLFClk.c ****         {
1238:.\Generated_Source\PSoC4/CyLFClk.c ****             wdtIsrMask &= ~counterIntMaskTbl[counterNum];
 2034              		.loc 2 1238 0
 2035 000e 084B     		ldr	r3, .L187
 2036 0010 7A68     		ldr	r2, [r7, #4]
 2037 0012 9200     		lsl	r2, r2, #2
 2038 0014 D358     		ldr	r3, [r2, r3]
 2039 0016 DA43     		mvn	r2, r3
 2040 0018 064B     		ldr	r3, .L187+4
 2041 001a 1B68     		ldr	r3, [r3]
 2042 001c 1A40     		and	r2, r3
 2043 001e 054B     		ldr	r3, .L187+4
ARM GAS  C:\Users\passw\AppData\Local\Temp\ccYGIhwR.s 			page 65


 2044 0020 1A60     		str	r2, [r3]
 2045 0022 02E0     		b	.L184
 2046              	.L185:
1239:.\Generated_Source\PSoC4/CyLFClk.c ****         }
1240:.\Generated_Source\PSoC4/CyLFClk.c ****         else
1241:.\Generated_Source\PSoC4/CyLFClk.c ****         {
1242:.\Generated_Source\PSoC4/CyLFClk.c ****             CYASSERT(0u != 0u);
 2047              		.loc 2 1242 0 discriminator 1
 2048 0024 0020     		mov	r0, #0
 2049 0026 FFF7FEFF 		bl	CyHalt
 2050              	.L184:
1243:.\Generated_Source\PSoC4/CyLFClk.c ****         }
1244:.\Generated_Source\PSoC4/CyLFClk.c ****     }
 2051              		.loc 2 1244 0
 2052 002a BD46     		mov	sp, r7
 2053 002c 02B0     		add	sp, sp, #8
 2054              		@ sp needed
 2055 002e 80BD     		pop	{r7, pc}
 2056              	.L188:
 2057              		.align	2
 2058              	.L187:
 2059 0030 00000000 		.word	counterIntMaskTbl
 2060 0034 00000000 		.word	wdtIsrMask
 2061              		.cfi_endproc
 2062              	.LFE33:
 2063              		.size	CySysWdtDisableCounterIsr, .-CySysWdtDisableCounterIsr
 2064              		.section	.text.CySysWdtIsr,"ax",%progbits
 2065              		.align	2
 2066              		.global	CySysWdtIsr
 2067              		.code	16
 2068              		.thumb_func
 2069              		.type	CySysWdtIsr, %function
 2070              	CySysWdtIsr:
 2071              	.LFB34:
1245:.\Generated_Source\PSoC4/CyLFClk.c **** 
1246:.\Generated_Source\PSoC4/CyLFClk.c **** 
1247:.\Generated_Source\PSoC4/CyLFClk.c ****     /*******************************************************************************
1248:.\Generated_Source\PSoC4/CyLFClk.c ****     * Function Name: CySysWdtIsr
1249:.\Generated_Source\PSoC4/CyLFClk.c ****     ********************************************************************************
1250:.\Generated_Source\PSoC4/CyLFClk.c ****     *
1251:.\Generated_Source\PSoC4/CyLFClk.c ****     * Summary:
1252:.\Generated_Source\PSoC4/CyLFClk.c ****     *  This is the handler of the WDT interrupt in CPU NVIC. The handler checks
1253:.\Generated_Source\PSoC4/CyLFClk.c ****     *  which WDT triggered in the interrupt and calls the respective callback
1254:.\Generated_Source\PSoC4/CyLFClk.c ****     *  functions configured by the user by using CySysWdtSetIsrCallback() API.
1255:.\Generated_Source\PSoC4/CyLFClk.c ****     *
1256:.\Generated_Source\PSoC4/CyLFClk.c ****     *  The order of the callback execution is incremental. Callback-0 is
1257:.\Generated_Source\PSoC4/CyLFClk.c ****     *  run as the first one and callback-2 is called as the last one.
1258:.\Generated_Source\PSoC4/CyLFClk.c ****     *
1259:.\Generated_Source\PSoC4/CyLFClk.c ****     * Parameters:
1260:.\Generated_Source\PSoC4/CyLFClk.c ****     *  None.
1261:.\Generated_Source\PSoC4/CyLFClk.c ****     *
1262:.\Generated_Source\PSoC4/CyLFClk.c ****     * Return:
1263:.\Generated_Source\PSoC4/CyLFClk.c ****     *  None.
1264:.\Generated_Source\PSoC4/CyLFClk.c ****     *
1265:.\Generated_Source\PSoC4/CyLFClk.c ****     * Side Effects:
1266:.\Generated_Source\PSoC4/CyLFClk.c ****     *  This function clears the WDT interrupt every time when it is called.
1267:.\Generated_Source\PSoC4/CyLFClk.c ****     *  Reset after the 3rd interrupt does not happen if this function is registered
ARM GAS  C:\Users\passw\AppData\Local\Temp\ccYGIhwR.s 			page 66


1268:.\Generated_Source\PSoC4/CyLFClk.c ****     *  as the interrupt handler even if the "Watchdog with Interrupt" mode is
1269:.\Generated_Source\PSoC4/CyLFClk.c ****     *  selected on the "Low Frequency Clocks" tab.
1270:.\Generated_Source\PSoC4/CyLFClk.c ****     *
1271:.\Generated_Source\PSoC4/CyLFClk.c ****     *******************************************************************************/
1272:.\Generated_Source\PSoC4/CyLFClk.c ****     void CySysWdtIsr(void)
1273:.\Generated_Source\PSoC4/CyLFClk.c ****     {
 2072              		.loc 2 1273 0
 2073              		.cfi_startproc
 2074 0000 80B5     		push	{r7, lr}
 2075              		.cfi_def_cfa_offset 8
 2076              		.cfi_offset 7, -8
 2077              		.cfi_offset 14, -4
 2078 0002 00AF     		add	r7, sp, #0
 2079              		.cfi_def_cfa_register 7
1274:.\Generated_Source\PSoC4/CyLFClk.c ****         if(0u != (CY_SYS_WDT_COUNTER0_INT & CY_SYS_WDT_CONTROL_REG))
 2080              		.loc 2 1274 0
 2081 0004 334B     		ldr	r3, .L196
 2082 0006 1B68     		ldr	r3, [r3]
 2083 0008 0422     		mov	r2, #4
 2084 000a 1340     		and	r3, r2
 2085 000c 1FD0     		beq	.L190
1275:.\Generated_Source\PSoC4/CyLFClk.c ****         {
1276:.\Generated_Source\PSoC4/CyLFClk.c ****             if(0u != (CY_SYS_WDT_COUNTER0_INT & wdtIsrMask))
 2086              		.loc 2 1276 0
 2087 000e 324B     		ldr	r3, .L196+4
 2088 0010 1B68     		ldr	r3, [r3]
 2089 0012 0422     		mov	r2, #4
 2090 0014 1340     		and	r3, r2
 2091 0016 17D0     		beq	.L191
1277:.\Generated_Source\PSoC4/CyLFClk.c ****             {
1278:.\Generated_Source\PSoC4/CyLFClk.c ****                 wdtIsrMask &= ~(disableServicedIsr & CY_SYS_WDT_COUNTER0_INT);
 2092              		.loc 2 1278 0
 2093 0018 304B     		ldr	r3, .L196+8
 2094 001a 1B68     		ldr	r3, [r3]
 2095 001c 0422     		mov	r2, #4
 2096 001e 1340     		and	r3, r2
 2097 0020 DA43     		mvn	r2, r3
 2098 0022 2D4B     		ldr	r3, .L196+4
 2099 0024 1B68     		ldr	r3, [r3]
 2100 0026 1A40     		and	r2, r3
 2101 0028 2B4B     		ldr	r3, .L196+4
 2102 002a 1A60     		str	r2, [r3]
1279:.\Generated_Source\PSoC4/CyLFClk.c ****                 disableServicedIsr  &= ~CY_SYS_WDT_COUNTER0_INT;
 2103              		.loc 2 1279 0
 2104 002c 2B4B     		ldr	r3, .L196+8
 2105 002e 1B68     		ldr	r3, [r3]
 2106 0030 0422     		mov	r2, #4
 2107 0032 9343     		bic	r3, r2
 2108 0034 1A1C     		mov	r2, r3
 2109 0036 294B     		ldr	r3, .L196+8
 2110 0038 1A60     		str	r2, [r3]
1280:.\Generated_Source\PSoC4/CyLFClk.c ****                 if(cySysWdtCallback[CY_SYS_WDT_COUNTER0] != (void *) 0)
 2111              		.loc 2 1280 0
 2112 003a 294B     		ldr	r3, .L196+12
 2113 003c 1B68     		ldr	r3, [r3]
 2114 003e 002B     		cmp	r3, #0
 2115 0040 02D0     		beq	.L191
ARM GAS  C:\Users\passw\AppData\Local\Temp\ccYGIhwR.s 			page 67


1281:.\Generated_Source\PSoC4/CyLFClk.c ****                 {
1282:.\Generated_Source\PSoC4/CyLFClk.c ****                     (void)(cySysWdtCallback[CY_SYS_WDT_COUNTER0])();
 2116              		.loc 2 1282 0
 2117 0042 274B     		ldr	r3, .L196+12
 2118 0044 1B68     		ldr	r3, [r3]
 2119 0046 9847     		blx	r3
 2120              	.L191:
1283:.\Generated_Source\PSoC4/CyLFClk.c ****                 }
1284:.\Generated_Source\PSoC4/CyLFClk.c ****             }
1285:.\Generated_Source\PSoC4/CyLFClk.c ****             CySysWdtClearInterrupt(CY_SYS_WDT_COUNTER0_INT);
 2121              		.loc 2 1285 0
 2122 0048 0420     		mov	r0, #4
 2123 004a FFF7FEFF 		bl	CySysWdtClearInterrupt
 2124              	.L190:
1286:.\Generated_Source\PSoC4/CyLFClk.c ****         }
1287:.\Generated_Source\PSoC4/CyLFClk.c **** 
1288:.\Generated_Source\PSoC4/CyLFClk.c ****         if(0u != (CY_SYS_WDT_COUNTER1_INT & CY_SYS_WDT_CONTROL_REG))
 2125              		.loc 2 1288 0
 2126 004e 214B     		ldr	r3, .L196
 2127 0050 1A68     		ldr	r2, [r3]
 2128 0052 8023     		mov	r3, #128
 2129 0054 DB00     		lsl	r3, r3, #3
 2130 0056 1340     		and	r3, r2
 2131 0058 22D0     		beq	.L192
1289:.\Generated_Source\PSoC4/CyLFClk.c ****         {
1290:.\Generated_Source\PSoC4/CyLFClk.c ****             if(0u != (CY_SYS_WDT_COUNTER1_INT & wdtIsrMask))
 2132              		.loc 2 1290 0
 2133 005a 1F4B     		ldr	r3, .L196+4
 2134 005c 1A68     		ldr	r2, [r3]
 2135 005e 8023     		mov	r3, #128
 2136 0060 DB00     		lsl	r3, r3, #3
 2137 0062 1340     		and	r3, r2
 2138 0064 17D0     		beq	.L193
1291:.\Generated_Source\PSoC4/CyLFClk.c ****             {
1292:.\Generated_Source\PSoC4/CyLFClk.c ****                 wdtIsrMask &= ~(disableServicedIsr & CY_SYS_WDT_COUNTER1_INT);
 2139              		.loc 2 1292 0
 2140 0066 1D4B     		ldr	r3, .L196+8
 2141 0068 1A68     		ldr	r2, [r3]
 2142 006a 8023     		mov	r3, #128
 2143 006c DB00     		lsl	r3, r3, #3
 2144 006e 1340     		and	r3, r2
 2145 0070 DA43     		mvn	r2, r3
 2146 0072 194B     		ldr	r3, .L196+4
 2147 0074 1B68     		ldr	r3, [r3]
 2148 0076 1A40     		and	r2, r3
 2149 0078 174B     		ldr	r3, .L196+4
 2150 007a 1A60     		str	r2, [r3]
1293:.\Generated_Source\PSoC4/CyLFClk.c ****                 disableServicedIsr  &= ~CY_SYS_WDT_COUNTER1_INT;
 2151              		.loc 2 1293 0
 2152 007c 174B     		ldr	r3, .L196+8
 2153 007e 1B68     		ldr	r3, [r3]
 2154 0080 184A     		ldr	r2, .L196+16
 2155 0082 1A40     		and	r2, r3
 2156 0084 154B     		ldr	r3, .L196+8
 2157 0086 1A60     		str	r2, [r3]
1294:.\Generated_Source\PSoC4/CyLFClk.c ****                 if(cySysWdtCallback[CY_SYS_WDT_COUNTER1] != (void *) 0)
 2158              		.loc 2 1294 0
ARM GAS  C:\Users\passw\AppData\Local\Temp\ccYGIhwR.s 			page 68


 2159 0088 154B     		ldr	r3, .L196+12
 2160 008a 5B68     		ldr	r3, [r3, #4]
 2161 008c 002B     		cmp	r3, #0
 2162 008e 02D0     		beq	.L193
1295:.\Generated_Source\PSoC4/CyLFClk.c ****                 {
1296:.\Generated_Source\PSoC4/CyLFClk.c ****                     (void)(cySysWdtCallback[CY_SYS_WDT_COUNTER1])();
 2163              		.loc 2 1296 0
 2164 0090 134B     		ldr	r3, .L196+12
 2165 0092 5B68     		ldr	r3, [r3, #4]
 2166 0094 9847     		blx	r3
 2167              	.L193:
1297:.\Generated_Source\PSoC4/CyLFClk.c ****                 }
1298:.\Generated_Source\PSoC4/CyLFClk.c ****             }
1299:.\Generated_Source\PSoC4/CyLFClk.c ****             CySysWdtClearInterrupt(CY_SYS_WDT_COUNTER1_INT);
 2168              		.loc 2 1299 0
 2169 0096 8023     		mov	r3, #128
 2170 0098 DB00     		lsl	r3, r3, #3
 2171 009a 181C     		mov	r0, r3
 2172 009c FFF7FEFF 		bl	CySysWdtClearInterrupt
 2173              	.L192:
1300:.\Generated_Source\PSoC4/CyLFClk.c ****         }
1301:.\Generated_Source\PSoC4/CyLFClk.c **** 
1302:.\Generated_Source\PSoC4/CyLFClk.c ****         if(0u != (CY_SYS_WDT_COUNTER2_INT & CY_SYS_WDT_CONTROL_REG))
 2174              		.loc 2 1302 0
 2175 00a0 0C4B     		ldr	r3, .L196
 2176 00a2 1A68     		ldr	r2, [r3]
 2177 00a4 8023     		mov	r3, #128
 2178 00a6 DB02     		lsl	r3, r3, #11
 2179 00a8 1340     		and	r3, r2
 2180 00aa 11D0     		beq	.L189
1303:.\Generated_Source\PSoC4/CyLFClk.c ****         {
1304:.\Generated_Source\PSoC4/CyLFClk.c ****             if(0u != (CY_SYS_WDT_COUNTER2_INT & wdtIsrMask))
 2181              		.loc 2 1304 0
 2182 00ac 0A4B     		ldr	r3, .L196+4
 2183 00ae 1A68     		ldr	r2, [r3]
 2184 00b0 8023     		mov	r3, #128
 2185 00b2 DB02     		lsl	r3, r3, #11
 2186 00b4 1340     		and	r3, r2
 2187 00b6 06D0     		beq	.L195
1305:.\Generated_Source\PSoC4/CyLFClk.c ****             {
1306:.\Generated_Source\PSoC4/CyLFClk.c ****                 if(cySysWdtCallback[CY_SYS_WDT_COUNTER2] != (void *) 0)
 2188              		.loc 2 1306 0
 2189 00b8 094B     		ldr	r3, .L196+12
 2190 00ba 9B68     		ldr	r3, [r3, #8]
 2191 00bc 002B     		cmp	r3, #0
 2192 00be 02D0     		beq	.L195
1307:.\Generated_Source\PSoC4/CyLFClk.c ****                 {
1308:.\Generated_Source\PSoC4/CyLFClk.c ****                     (void)(cySysWdtCallback[CY_SYS_WDT_COUNTER2])();
 2193              		.loc 2 1308 0
 2194 00c0 074B     		ldr	r3, .L196+12
 2195 00c2 9B68     		ldr	r3, [r3, #8]
 2196 00c4 9847     		blx	r3
 2197              	.L195:
1309:.\Generated_Source\PSoC4/CyLFClk.c ****                 }
1310:.\Generated_Source\PSoC4/CyLFClk.c ****             }
1311:.\Generated_Source\PSoC4/CyLFClk.c ****             CySysWdtClearInterrupt(CY_SYS_WDT_COUNTER2_INT);
 2198              		.loc 2 1311 0
ARM GAS  C:\Users\passw\AppData\Local\Temp\ccYGIhwR.s 			page 69


 2199 00c6 8023     		mov	r3, #128
 2200 00c8 DB02     		lsl	r3, r3, #11
 2201 00ca 181C     		mov	r0, r3
 2202 00cc FFF7FEFF 		bl	CySysWdtClearInterrupt
 2203              	.L189:
1312:.\Generated_Source\PSoC4/CyLFClk.c ****         }
1313:.\Generated_Source\PSoC4/CyLFClk.c ****     }
 2204              		.loc 2 1313 0
 2205 00d0 BD46     		mov	sp, r7
 2206              		@ sp needed
 2207 00d2 80BD     		pop	{r7, pc}
 2208              	.L197:
 2209              		.align	2
 2210              	.L196:
 2211 00d4 10020B40 		.word	1074463248
 2212 00d8 00000000 		.word	wdtIsrMask
 2213 00dc 08000000 		.word	disableServicedIsr
 2214 00e0 0C000000 		.word	cySysWdtCallback
 2215 00e4 FFFBFFFF 		.word	-1025
 2216              		.cfi_endproc
 2217              	.LFE34:
 2218              		.size	CySysWdtIsr, .-CySysWdtIsr
 2219              		.section	.text.CySysTimerDelay,"ax",%progbits
 2220              		.align	2
 2221              		.global	CySysTimerDelay
 2222              		.code	16
 2223              		.thumb_func
 2224              		.type	CySysTimerDelay, %function
 2225              	CySysTimerDelay:
 2226              	.LFB35:
1314:.\Generated_Source\PSoC4/CyLFClk.c **** 
1315:.\Generated_Source\PSoC4/CyLFClk.c **** 
1316:.\Generated_Source\PSoC4/CyLFClk.c ****     /*******************************************************************************
1317:.\Generated_Source\PSoC4/CyLFClk.c ****     * Function Name: CySysTimerDelay
1318:.\Generated_Source\PSoC4/CyLFClk.c ****     ********************************************************************************
1319:.\Generated_Source\PSoC4/CyLFClk.c ****     *
1320:.\Generated_Source\PSoC4/CyLFClk.c ****     * Summary:
1321:.\Generated_Source\PSoC4/CyLFClk.c ****     *  The function implements the delay specified in the LFCLK clock ticks. The
1322:.\Generated_Source\PSoC4/CyLFClk.c ****     *  specified WDT counter should be configured as described below and started.
1323:.\Generated_Source\PSoC4/CyLFClk.c ****     *
1324:.\Generated_Source\PSoC4/CyLFClk.c ****     *  This function can operate in two modes: the "WAIT" and "INTERRUPT" modes. In
1325:.\Generated_Source\PSoC4/CyLFClk.c ****     *  the "WAIT" mode, the function waits for the specified number of ticks. In the
1326:.\Generated_Source\PSoC4/CyLFClk.c ****     *  "INTERRUPT" mode, the interrupt is generated after the specified number of
1327:.\Generated_Source\PSoC4/CyLFClk.c ****     *  ticks.
1328:.\Generated_Source\PSoC4/CyLFClk.c ****     *
1329:.\Generated_Source\PSoC4/CyLFClk.c ****     *  For the correct function operation, the "Clear On Match" option should be
1330:.\Generated_Source\PSoC4/CyLFClk.c ****     *  disabled for the specified WDT counter. Use CySysWdtSetClearOnMatch()
1331:.\Generated_Source\PSoC4/CyLFClk.c ****     *  function with the "enable" parameter equal to zero for the used WDT counter.
1332:.\Generated_Source\PSoC4/CyLFClk.c ****     *
1333:.\Generated_Source\PSoC4/CyLFClk.c ****     *  The corresponding WDT counter should be configured to match the selected
1334:.\Generated_Source\PSoC4/CyLFClk.c ****     *  mode: "Free running Timer" for the "WAIT" mode, and
1335:.\Generated_Source\PSoC4/CyLFClk.c ****     *  "Periodic Timer" / "Watchdog (w/Interrupt)" for the "INTERRUPT" mode.
1336:.\Generated_Source\PSoC4/CyLFClk.c ****     *
1337:.\Generated_Source\PSoC4/CyLFClk.c ****     *  This can be configured in two ways:
1338:.\Generated_Source\PSoC4/CyLFClk.c ****     *  - Through the DWR page. Open the "Clocks" tab, click the "Edit Clocks..."
1339:.\Generated_Source\PSoC4/CyLFClk.c ****     *    button, in the "Configure System Clocks" window click on the
1340:.\Generated_Source\PSoC4/CyLFClk.c ****     *    "Low Frequency Clocks" tab and choose the appropriate option for the used
ARM GAS  C:\Users\passw\AppData\Local\Temp\ccYGIhwR.s 			page 70


1341:.\Generated_Source\PSoC4/CyLFClk.c ****     *    WDT counter.
1342:.\Generated_Source\PSoC4/CyLFClk.c ****     *
1343:.\Generated_Source\PSoC4/CyLFClk.c ****     *  - Through the CySysWdtSetMode() function. Call it with the appropriate mode
1344:.\Generated_Source\PSoC4/CyLFClk.c ****     *    parameter for the used WDT counter.
1345:.\Generated_Source\PSoC4/CyLFClk.c ****     *
1346:.\Generated_Source\PSoC4/CyLFClk.c ****     *  For the "INTERRUPT" mode, the recommended sequence is the following:
1347:.\Generated_Source\PSoC4/CyLFClk.c ****     *  - Call the CySysWdtDisableCounterIsr() function to disable servicing
1348:.\Generated_Source\PSoC4/CyLFClk.c ****     *    interrupts of the specified WDT counter.
1349:.\Generated_Source\PSoC4/CyLFClk.c ****     *
1350:.\Generated_Source\PSoC4/CyLFClk.c ****     *  - Call the CySysWdtSetInterruptCallback() function to register the callback
1351:.\Generated_Source\PSoC4/CyLFClk.c ****     *    function for the corresponding WDT counter.
1352:.\Generated_Source\PSoC4/CyLFClk.c ****     *
1353:.\Generated_Source\PSoC4/CyLFClk.c ****     *  - Call the CySysTimerDelay() function.
1354:.\Generated_Source\PSoC4/CyLFClk.c ****     *
1355:.\Generated_Source\PSoC4/CyLFClk.c ****     * Parameters:
1356:.\Generated_Source\PSoC4/CyLFClk.c ****     *  counterNum: Valid range [0-1]. The number of the WDT counter (WDT0 or WDT1).
1357:.\Generated_Source\PSoC4/CyLFClk.c ****     *  delayType : Defines the operation mode.
1358:.\Generated_Source\PSoC4/CyLFClk.c ****     *               CY_SYS_TIMER_WAIT       "WAIT" mode.
1359:.\Generated_Source\PSoC4/CyLFClk.c ****     *               CY_SYS_TIMER_INTERRUPT  "INTERRUPT" mode.
1360:.\Generated_Source\PSoC4/CyLFClk.c ****     *  delay:  The delay value in the LFCLK ticks (allowable range - 16-bit value).
1361:.\Generated_Source\PSoC4/CyLFClk.c ****     *
1362:.\Generated_Source\PSoC4/CyLFClk.c ****     * Return:
1363:.\Generated_Source\PSoC4/CyLFClk.c ****     *  None
1364:.\Generated_Source\PSoC4/CyLFClk.c ****     *
1365:.\Generated_Source\PSoC4/CyLFClk.c ****     * Side effects:
1366:.\Generated_Source\PSoC4/CyLFClk.c ****     *  In the "INTERRUPT" mode, this function enables ISR callback servicing
1367:.\Generated_Source\PSoC4/CyLFClk.c ****     *  from the corresponding WDT counter. Servicing of this ISR callback will be
1368:.\Generated_Source\PSoC4/CyLFClk.c ****     *  disabled after the expiration of the delay time.
1369:.\Generated_Source\PSoC4/CyLFClk.c ****     *
1370:.\Generated_Source\PSoC4/CyLFClk.c ****     *******************************************************************************/
1371:.\Generated_Source\PSoC4/CyLFClk.c ****     void CySysTimerDelay(uint32 counterNum, cy_sys_timer_delaytype_enum delayType, uint32 delay)
1372:.\Generated_Source\PSoC4/CyLFClk.c ****     {
 2227              		.loc 2 1372 0
 2228              		.cfi_startproc
 2229 0000 80B5     		push	{r7, lr}
 2230              		.cfi_def_cfa_offset 8
 2231              		.cfi_offset 7, -8
 2232              		.cfi_offset 14, -4
 2233 0002 86B0     		sub	sp, sp, #24
 2234              		.cfi_def_cfa_offset 32
 2235 0004 00AF     		add	r7, sp, #0
 2236              		.cfi_def_cfa_register 7
 2237 0006 F860     		str	r0, [r7, #12]
 2238 0008 7A60     		str	r2, [r7, #4]
 2239 000a 0B23     		mov	r3, #11
 2240 000c FB18     		add	r3, r7, r3
 2241 000e 0A1C     		add	r2, r1, #0
 2242 0010 1A70     		strb	r2, [r3]
1373:.\Generated_Source\PSoC4/CyLFClk.c ****         uint32 regValue;
1374:.\Generated_Source\PSoC4/CyLFClk.c ****         uint32 matchValue;
1375:.\Generated_Source\PSoC4/CyLFClk.c **** 
1376:.\Generated_Source\PSoC4/CyLFClk.c ****         if((counterNum < CY_SYS_WDT_COUNTER2) && (0uL == CySysWdtGetClearOnMatch(counterNum)) && (d
 2243              		.loc 2 1376 0
 2244 0012 FB68     		ldr	r3, [r7, #12]
 2245 0014 012B     		cmp	r3, #1
 2246 0016 20D8     		bhi	.L199
 2247              		.loc 2 1376 0 is_stmt 0 discriminator 1
ARM GAS  C:\Users\passw\AppData\Local\Temp\ccYGIhwR.s 			page 71


 2248 0018 FB68     		ldr	r3, [r7, #12]
 2249 001a 181C     		mov	r0, r3
 2250 001c FFF7FEFF 		bl	CySysWdtGetClearOnMatch
 2251 0020 031E     		sub	r3, r0, #0
 2252 0022 1AD1     		bne	.L199
 2253              		.loc 2 1376 0 discriminator 2
 2254 0024 7B68     		ldr	r3, [r7, #4]
 2255 0026 104A     		ldr	r2, .L201
 2256 0028 9342     		cmp	r3, r2
 2257 002a 16D8     		bhi	.L199
1377:.\Generated_Source\PSoC4/CyLFClk.c ****         {
1378:.\Generated_Source\PSoC4/CyLFClk.c ****             regValue   = CySysWdtGetCount(counterNum);
 2258              		.loc 2 1378 0 is_stmt 1
 2259 002c FB68     		ldr	r3, [r7, #12]
 2260 002e 181C     		mov	r0, r3
 2261 0030 FFF7FEFF 		bl	CySysWdtGetCount
 2262 0034 031C     		mov	r3, r0
 2263 0036 7B61     		str	r3, [r7, #20]
1379:.\Generated_Source\PSoC4/CyLFClk.c ****             matchValue = (regValue + delay) & (uint32)UINT16_MAX_VAL;
 2264              		.loc 2 1379 0
 2265 0038 7A69     		ldr	r2, [r7, #20]
 2266 003a 7B68     		ldr	r3, [r7, #4]
 2267 003c D318     		add	r3, r2, r3
 2268 003e 1B04     		lsl	r3, r3, #16
 2269 0040 1B0C     		lsr	r3, r3, #16
 2270 0042 3B61     		str	r3, [r7, #16]
1380:.\Generated_Source\PSoC4/CyLFClk.c **** 
1381:.\Generated_Source\PSoC4/CyLFClk.c ****             CySysTimerDelayUntilMatch(counterNum, delayType, matchValue);
 2271              		.loc 2 1381 0
 2272 0044 F968     		ldr	r1, [r7, #12]
 2273 0046 0B23     		mov	r3, #11
 2274 0048 FB18     		add	r3, r7, r3
 2275 004a 1A78     		ldrb	r2, [r3]
 2276 004c 3B69     		ldr	r3, [r7, #16]
 2277 004e 081C     		mov	r0, r1
 2278 0050 111C     		mov	r1, r2
 2279 0052 1A1C     		mov	r2, r3
 2280 0054 FFF7FEFF 		bl	CySysTimerDelayUntilMatch
 2281 0058 02E0     		b	.L198
 2282              	.L199:
1382:.\Generated_Source\PSoC4/CyLFClk.c ****         }
1383:.\Generated_Source\PSoC4/CyLFClk.c ****         else
1384:.\Generated_Source\PSoC4/CyLFClk.c ****         {
1385:.\Generated_Source\PSoC4/CyLFClk.c ****             CYASSERT(0u != 0u);
 2283              		.loc 2 1385 0 discriminator 1
 2284 005a 0020     		mov	r0, #0
 2285 005c FFF7FEFF 		bl	CyHalt
 2286              	.L198:
1386:.\Generated_Source\PSoC4/CyLFClk.c ****         }
1387:.\Generated_Source\PSoC4/CyLFClk.c ****     }
 2287              		.loc 2 1387 0
 2288 0060 BD46     		mov	sp, r7
 2289 0062 06B0     		add	sp, sp, #24
 2290              		@ sp needed
 2291 0064 80BD     		pop	{r7, pc}
 2292              	.L202:
 2293 0066 C046     		.align	2
ARM GAS  C:\Users\passw\AppData\Local\Temp\ccYGIhwR.s 			page 72


 2294              	.L201:
 2295 0068 FFFF0000 		.word	65535
 2296              		.cfi_endproc
 2297              	.LFE35:
 2298              		.size	CySysTimerDelay, .-CySysTimerDelay
 2299              		.section	.text.CySysTimerDelayUntilMatch,"ax",%progbits
 2300              		.align	2
 2301              		.global	CySysTimerDelayUntilMatch
 2302              		.code	16
 2303              		.thumb_func
 2304              		.type	CySysTimerDelayUntilMatch, %function
 2305              	CySysTimerDelayUntilMatch:
 2306              	.LFB36:
1388:.\Generated_Source\PSoC4/CyLFClk.c **** 
1389:.\Generated_Source\PSoC4/CyLFClk.c **** 
1390:.\Generated_Source\PSoC4/CyLFClk.c ****     /*******************************************************************************
1391:.\Generated_Source\PSoC4/CyLFClk.c ****     * Function Name: CySysTimerDelayUntilMatch
1392:.\Generated_Source\PSoC4/CyLFClk.c ****     ********************************************************************************
1393:.\Generated_Source\PSoC4/CyLFClk.c ****     *
1394:.\Generated_Source\PSoC4/CyLFClk.c ****     * Summary:
1395:.\Generated_Source\PSoC4/CyLFClk.c ****     *  The function implements the delay specified as the number of LFCLK ticks
1396:.\Generated_Source\PSoC4/CyLFClk.c ****     *  between the specified WDT counter's current value and the "match" passed as
1397:.\Generated_Source\PSoC4/CyLFClk.c ****     *  the parameter to this function. The current WDT counter value can be obtained
1398:.\Generated_Source\PSoC4/CyLFClk.c ****     *  using the CySysWdtGetCount() function.
1399:.\Generated_Source\PSoC4/CyLFClk.c ****     *
1400:.\Generated_Source\PSoC4/CyLFClk.c ****     *  This function can operate in two modes: the "WAIT" and "INTERRUPT" mode. In
1401:.\Generated_Source\PSoC4/CyLFClk.c ****     *  the "WAIT" mode, the function waits while the used WDT counter value becomes
1402:.\Generated_Source\PSoC4/CyLFClk.c ****     *  equal to the match value. In the "INTERRUPT" mode, the interrupt is generated
1403:.\Generated_Source\PSoC4/CyLFClk.c ****     *  when the used WDT counter became equal to the "match" value.
1404:.\Generated_Source\PSoC4/CyLFClk.c ****     *
1405:.\Generated_Source\PSoC4/CyLFClk.c ****     *  For the correct function operation, the "Clear On Match" option should be
1406:.\Generated_Source\PSoC4/CyLFClk.c ****     *  disabled for the specified WDT counter. Use CySysWdtSetClearOnMatch()
1407:.\Generated_Source\PSoC4/CyLFClk.c ****     *  function with the "enable" parameter equal to zero for the used WDT counter.
1408:.\Generated_Source\PSoC4/CyLFClk.c ****     *
1409:.\Generated_Source\PSoC4/CyLFClk.c ****     *  The corresponding WDT counter should be configured to match the selected mode:
1410:.\Generated_Source\PSoC4/CyLFClk.c ****     *  "Free running Timer" for the "WAIT" mode, and "Periodic Timer" / "Watchdog
1411:.\Generated_Source\PSoC4/CyLFClk.c ****     *  (w/Interrupt)" for the "INTERRUPT" mode.
1412:.\Generated_Source\PSoC4/CyLFClk.c ****     *
1413:.\Generated_Source\PSoC4/CyLFClk.c ****     *  This can be configured in two ways:
1414:.\Generated_Source\PSoC4/CyLFClk.c ****     *  - Through the DWR page. Open the "Clocks" tab, click the "Edit Clocks..."
1415:.\Generated_Source\PSoC4/CyLFClk.c ****     *    button, in the "Configure System Clocks" window click on the
1416:.\Generated_Source\PSoC4/CyLFClk.c ****     *    "Low Frequency Clocks" tab and choose the appropriate option for the used
1417:.\Generated_Source\PSoC4/CyLFClk.c ****     *    WDT counter.
1418:.\Generated_Source\PSoC4/CyLFClk.c ****     *
1419:.\Generated_Source\PSoC4/CyLFClk.c ****     *  - Through the CySysWdtSetMode() function. Call it with the appropriate "mode"
1420:.\Generated_Source\PSoC4/CyLFClk.c ****     *    parameter for the used WDT counter.
1421:.\Generated_Source\PSoC4/CyLFClk.c ****     *
1422:.\Generated_Source\PSoC4/CyLFClk.c ****     *  For the "INTERRUPT" mode, the recommended sequence is the following:
1423:.\Generated_Source\PSoC4/CyLFClk.c ****     *  - Call the CySysWdtDisableCounterIsr() function to disable servicing
1424:.\Generated_Source\PSoC4/CyLFClk.c ****     *    interrupts of the specified WDT counter.
1425:.\Generated_Source\PSoC4/CyLFClk.c ****     *
1426:.\Generated_Source\PSoC4/CyLFClk.c ****     *  - Call the CySysWdtSetInterruptCallback() function to register the callback
1427:.\Generated_Source\PSoC4/CyLFClk.c ****     *    function for the corresponding WDT counter.
1428:.\Generated_Source\PSoC4/CyLFClk.c ****     *
1429:.\Generated_Source\PSoC4/CyLFClk.c ****     *  - Call the CySysTimerDelay() function.
1430:.\Generated_Source\PSoC4/CyLFClk.c ****     *
1431:.\Generated_Source\PSoC4/CyLFClk.c ****     * Parameters:
ARM GAS  C:\Users\passw\AppData\Local\Temp\ccYGIhwR.s 			page 73


1432:.\Generated_Source\PSoC4/CyLFClk.c ****     *  counterNum: Valid range [0-1]. The number of the WDT counter (WDT0 or WDT1).
1433:.\Generated_Source\PSoC4/CyLFClk.c ****     *  delayType : Defines the operation mode.
1434:.\Generated_Source\PSoC4/CyLFClk.c ****     *               CY_SYS_TIMER_WAIT       "WAIT" mode.
1435:.\Generated_Source\PSoC4/CyLFClk.c ****     *               CY_SYS_TIMER_INTERRUPT  "INTERRUPT" mode.
1436:.\Generated_Source\PSoC4/CyLFClk.c ****     *  delay:  The delay value in the LFCLK ticks (allowable range - 16-bit value).
1437:.\Generated_Source\PSoC4/CyLFClk.c ****     *
1438:.\Generated_Source\PSoC4/CyLFClk.c ****     * Return:
1439:.\Generated_Source\PSoC4/CyLFClk.c ****     *  None
1440:.\Generated_Source\PSoC4/CyLFClk.c ****     *
1441:.\Generated_Source\PSoC4/CyLFClk.c ****     * Side effects:
1442:.\Generated_Source\PSoC4/CyLFClk.c ****     *  In the "INTERRUPT" mode, this function enables ISR callback servicing
1443:.\Generated_Source\PSoC4/CyLFClk.c ****     *  from the corresponding WDT counter. Servicing of this ISR callback will be
1444:.\Generated_Source\PSoC4/CyLFClk.c ****     *  disabled after the expiration of the delay time.
1445:.\Generated_Source\PSoC4/CyLFClk.c ****     *
1446:.\Generated_Source\PSoC4/CyLFClk.c ****     *******************************************************************************/
1447:.\Generated_Source\PSoC4/CyLFClk.c ****     void CySysTimerDelayUntilMatch(uint32 counterNum, cy_sys_timer_delaytype_enum delayType, uint32
1448:.\Generated_Source\PSoC4/CyLFClk.c ****     {
 2307              		.loc 2 1448 0
 2308              		.cfi_startproc
 2309 0000 80B5     		push	{r7, lr}
 2310              		.cfi_def_cfa_offset 8
 2311              		.cfi_offset 7, -8
 2312              		.cfi_offset 14, -4
 2313 0002 86B0     		sub	sp, sp, #24
 2314              		.cfi_def_cfa_offset 32
 2315 0004 00AF     		add	r7, sp, #0
 2316              		.cfi_def_cfa_register 7
 2317 0006 F860     		str	r0, [r7, #12]
 2318 0008 7A60     		str	r2, [r7, #4]
 2319 000a 0B23     		mov	r3, #11
 2320 000c FB18     		add	r3, r7, r3
 2321 000e 0A1C     		add	r2, r1, #0
 2322 0010 1A70     		strb	r2, [r3]
1449:.\Generated_Source\PSoC4/CyLFClk.c ****         uint32 tmpValue;
1450:.\Generated_Source\PSoC4/CyLFClk.c **** 
1451:.\Generated_Source\PSoC4/CyLFClk.c ****         if((counterNum < CY_SYS_WDT_COUNTER2) && (0uL == CySysWdtGetClearOnMatch(counterNum)) && (m
 2323              		.loc 2 1451 0
 2324 0012 FB68     		ldr	r3, [r7, #12]
 2325 0014 012B     		cmp	r3, #1
 2326 0016 3BD8     		bhi	.L204
 2327              		.loc 2 1451 0 is_stmt 0 discriminator 1
 2328 0018 FB68     		ldr	r3, [r7, #12]
 2329 001a 181C     		mov	r0, r3
 2330 001c FFF7FEFF 		bl	CySysWdtGetClearOnMatch
 2331 0020 031E     		sub	r3, r0, #0
 2332 0022 35D1     		bne	.L204
 2333              		.loc 2 1451 0 discriminator 2
 2334 0024 7B68     		ldr	r3, [r7, #4]
 2335 0026 1D4A     		ldr	r2, .L210
 2336 0028 9342     		cmp	r3, r2
 2337 002a 31D8     		bhi	.L204
1452:.\Generated_Source\PSoC4/CyLFClk.c ****         {
1453:.\Generated_Source\PSoC4/CyLFClk.c ****             if(delayType == CY_SYS_TIMER_WAIT)
 2338              		.loc 2 1453 0 is_stmt 1
 2339 002c 0B23     		mov	r3, #11
 2340 002e FB18     		add	r3, r7, r3
 2341 0030 1B78     		ldrb	r3, [r3]
ARM GAS  C:\Users\passw\AppData\Local\Temp\ccYGIhwR.s 			page 74


 2342 0032 002B     		cmp	r3, #0
 2343 0034 14D1     		bne	.L205
 2344              	.L206:
1454:.\Generated_Source\PSoC4/CyLFClk.c ****             {
1455:.\Generated_Source\PSoC4/CyLFClk.c ****                 do
1456:.\Generated_Source\PSoC4/CyLFClk.c ****                 {
1457:.\Generated_Source\PSoC4/CyLFClk.c ****                     tmpValue = CySysWdtGetCount(counterNum);
 2345              		.loc 2 1457 0 discriminator 1
 2346 0036 FB68     		ldr	r3, [r7, #12]
 2347 0038 181C     		mov	r0, r3
 2348 003a FFF7FEFF 		bl	CySysWdtGetCount
 2349 003e 031C     		mov	r3, r0
 2350 0040 7B61     		str	r3, [r7, #20]
1458:.\Generated_Source\PSoC4/CyLFClk.c ****                 }while(tmpValue > match);
 2351              		.loc 2 1458 0 discriminator 1
 2352 0042 7A69     		ldr	r2, [r7, #20]
 2353 0044 7B68     		ldr	r3, [r7, #4]
 2354 0046 9A42     		cmp	r2, r3
 2355 0048 F5D8     		bhi	.L206
 2356              	.L207:
1459:.\Generated_Source\PSoC4/CyLFClk.c **** 
1460:.\Generated_Source\PSoC4/CyLFClk.c ****                 do
1461:.\Generated_Source\PSoC4/CyLFClk.c ****                 {
1462:.\Generated_Source\PSoC4/CyLFClk.c ****                     tmpValue = CySysWdtGetCount(counterNum);
 2357              		.loc 2 1462 0 discriminator 1
 2358 004a FB68     		ldr	r3, [r7, #12]
 2359 004c 181C     		mov	r0, r3
 2360 004e FFF7FEFF 		bl	CySysWdtGetCount
 2361 0052 031C     		mov	r3, r0
 2362 0054 7B61     		str	r3, [r7, #20]
1463:.\Generated_Source\PSoC4/CyLFClk.c ****                 }while(tmpValue < match);
 2363              		.loc 2 1463 0 discriminator 1
 2364 0056 7A69     		ldr	r2, [r7, #20]
 2365 0058 7B68     		ldr	r3, [r7, #4]
 2366 005a 9A42     		cmp	r2, r3
 2367 005c F5D3     		bcc	.L207
1453:.\Generated_Source\PSoC4/CyLFClk.c ****             {
 2368              		.loc 2 1453 0
 2369 005e 1AE0     		b	.L203
 2370              	.L205:
1464:.\Generated_Source\PSoC4/CyLFClk.c ****             }
1465:.\Generated_Source\PSoC4/CyLFClk.c ****             else
1466:.\Generated_Source\PSoC4/CyLFClk.c ****             {
1467:.\Generated_Source\PSoC4/CyLFClk.c ****                 tmpValue = counterIntMaskTbl[counterNum];
 2371              		.loc 2 1467 0
 2372 0060 0F4B     		ldr	r3, .L210+4
 2373 0062 FA68     		ldr	r2, [r7, #12]
 2374 0064 9200     		lsl	r2, r2, #2
 2375 0066 D358     		ldr	r3, [r2, r3]
 2376 0068 7B61     		str	r3, [r7, #20]
1468:.\Generated_Source\PSoC4/CyLFClk.c ****                 CySysWdtSetMatch(counterNum, match);
 2377              		.loc 2 1468 0
 2378 006a FA68     		ldr	r2, [r7, #12]
 2379 006c 7B68     		ldr	r3, [r7, #4]
 2380 006e 101C     		mov	r0, r2
 2381 0070 191C     		mov	r1, r3
 2382 0072 FFF7FEFF 		bl	CySysWdtSetMatch
ARM GAS  C:\Users\passw\AppData\Local\Temp\ccYGIhwR.s 			page 75


1469:.\Generated_Source\PSoC4/CyLFClk.c **** 
1470:.\Generated_Source\PSoC4/CyLFClk.c ****                 disableServicedIsr  |= tmpValue;
 2383              		.loc 2 1470 0
 2384 0076 0B4B     		ldr	r3, .L210+8
 2385 0078 1A68     		ldr	r2, [r3]
 2386 007a 7B69     		ldr	r3, [r7, #20]
 2387 007c 1A43     		orr	r2, r3
 2388 007e 094B     		ldr	r3, .L210+8
 2389 0080 1A60     		str	r2, [r3]
1471:.\Generated_Source\PSoC4/CyLFClk.c ****                 wdtIsrMask |= tmpValue;
 2390              		.loc 2 1471 0
 2391 0082 094B     		ldr	r3, .L210+12
 2392 0084 1A68     		ldr	r2, [r3]
 2393 0086 7B69     		ldr	r3, [r7, #20]
 2394 0088 1A43     		orr	r2, r3
 2395 008a 074B     		ldr	r3, .L210+12
 2396 008c 1A60     		str	r2, [r3]
1453:.\Generated_Source\PSoC4/CyLFClk.c ****             {
 2397              		.loc 2 1453 0
 2398 008e 02E0     		b	.L203
 2399              	.L204:
1472:.\Generated_Source\PSoC4/CyLFClk.c ****             }
1473:.\Generated_Source\PSoC4/CyLFClk.c ****         }
1474:.\Generated_Source\PSoC4/CyLFClk.c ****         else
1475:.\Generated_Source\PSoC4/CyLFClk.c ****         {
1476:.\Generated_Source\PSoC4/CyLFClk.c ****             CYASSERT(0u != 0u);
 2400              		.loc 2 1476 0 discriminator 1
 2401 0090 0020     		mov	r0, #0
 2402 0092 FFF7FEFF 		bl	CyHalt
 2403              	.L203:
1477:.\Generated_Source\PSoC4/CyLFClk.c ****         }
1478:.\Generated_Source\PSoC4/CyLFClk.c ****     }
 2404              		.loc 2 1478 0
 2405 0096 BD46     		mov	sp, r7
 2406 0098 06B0     		add	sp, sp, #24
 2407              		@ sp needed
 2408 009a 80BD     		pop	{r7, pc}
 2409              	.L211:
 2410              		.align	2
 2411              	.L210:
 2412 009c FFFF0000 		.word	65535
 2413 00a0 00000000 		.word	counterIntMaskTbl
 2414 00a4 08000000 		.word	disableServicedIsr
 2415 00a8 00000000 		.word	wdtIsrMask
 2416              		.cfi_endproc
 2417              	.LFE36:
 2418              		.size	CySysTimerDelayUntilMatch, .-CySysTimerDelayUntilMatch
 2419              		.section	.text.CySysWatchdogFeed,"ax",%progbits
 2420              		.align	2
 2421              		.global	CySysWatchdogFeed
 2422              		.code	16
 2423              		.thumb_func
 2424              		.type	CySysWatchdogFeed, %function
 2425              	CySysWatchdogFeed:
 2426              	.LFB37:
1479:.\Generated_Source\PSoC4/CyLFClk.c **** 
1480:.\Generated_Source\PSoC4/CyLFClk.c **** 
ARM GAS  C:\Users\passw\AppData\Local\Temp\ccYGIhwR.s 			page 76


1481:.\Generated_Source\PSoC4/CyLFClk.c ****     /*******************************************************************************
1482:.\Generated_Source\PSoC4/CyLFClk.c ****     * Function Name: CySysWatchdogFeed
1483:.\Generated_Source\PSoC4/CyLFClk.c ****     ********************************************************************************
1484:.\Generated_Source\PSoC4/CyLFClk.c ****     *
1485:.\Generated_Source\PSoC4/CyLFClk.c ****     * Summary:
1486:.\Generated_Source\PSoC4/CyLFClk.c ****     *  Feeds the watchdog counter before it causes the device reset. Supported only
1487:.\Generated_Source\PSoC4/CyLFClk.c ****     *  for WDT0 and WDT1 in the "Watchdog" or "Watchdog w/ Interrupts" modes.
1488:.\Generated_Source\PSoC4/CyLFClk.c ****     *
1489:.\Generated_Source\PSoC4/CyLFClk.c ****     * Parameters:
1490:.\Generated_Source\PSoC4/CyLFClk.c ****     *  counterNum:    The number of the WDT counter.
1491:.\Generated_Source\PSoC4/CyLFClk.c ****     *
1492:.\Generated_Source\PSoC4/CyLFClk.c ****     * Return:
1493:.\Generated_Source\PSoC4/CyLFClk.c ****     *  None.
1494:.\Generated_Source\PSoC4/CyLFClk.c ****     *
1495:.\Generated_Source\PSoC4/CyLFClk.c ****     * Side effects:
1496:.\Generated_Source\PSoC4/CyLFClk.c ****     *  Clears the WDT counter in the "Watchdog" mode or clears the WDT interrupt in
1497:.\Generated_Source\PSoC4/CyLFClk.c ****     *  "Watchdog w/ Interrupts" mode. Does nothing in other modes.
1498:.\Generated_Source\PSoC4/CyLFClk.c ****     *
1499:.\Generated_Source\PSoC4/CyLFClk.c ****     *******************************************************************************/
1500:.\Generated_Source\PSoC4/CyLFClk.c ****     void CySysWatchdogFeed(uint32 counterNum)
1501:.\Generated_Source\PSoC4/CyLFClk.c ****     {
 2427              		.loc 2 1501 0
 2428              		.cfi_startproc
 2429 0000 80B5     		push	{r7, lr}
 2430              		.cfi_def_cfa_offset 8
 2431              		.cfi_offset 7, -8
 2432              		.cfi_offset 14, -4
 2433 0002 82B0     		sub	sp, sp, #8
 2434              		.cfi_def_cfa_offset 16
 2435 0004 00AF     		add	r7, sp, #0
 2436              		.cfi_def_cfa_register 7
 2437 0006 7860     		str	r0, [r7, #4]
1502:.\Generated_Source\PSoC4/CyLFClk.c ****         if(counterNum == CY_SYS_WDT_COUNTER0)
 2438              		.loc 2 1502 0
 2439 0008 7B68     		ldr	r3, [r7, #4]
 2440 000a 002B     		cmp	r3, #0
 2441 000c 18D1     		bne	.L213
1503:.\Generated_Source\PSoC4/CyLFClk.c ****         {
1504:.\Generated_Source\PSoC4/CyLFClk.c ****             if(CY_SYS_WDT_MODE_INT_RESET == CySysWdtGetMode(counterNum))
 2442              		.loc 2 1504 0
 2443 000e 7B68     		ldr	r3, [r7, #4]
 2444 0010 181C     		mov	r0, r3
 2445 0012 FFF7FEFF 		bl	CySysWdtGetMode
 2446 0016 031E     		sub	r3, r0, #0
 2447 0018 032B     		cmp	r3, #3
 2448 001a 03D1     		bne	.L214
1505:.\Generated_Source\PSoC4/CyLFClk.c ****             {
1506:.\Generated_Source\PSoC4/CyLFClk.c ****                 CySysWdtClearInterrupt(CY_SYS_WDT_COUNTER0_MASK);
 2449              		.loc 2 1506 0
 2450 001c 0120     		mov	r0, #1
 2451 001e FFF7FEFF 		bl	CySysWdtClearInterrupt
 2452 0022 2EE0     		b	.L212
 2453              	.L214:
1507:.\Generated_Source\PSoC4/CyLFClk.c ****             }
1508:.\Generated_Source\PSoC4/CyLFClk.c ****             else if(CY_SYS_WDT_MODE_RESET == CySysWdtGetMode(counterNum))
 2454              		.loc 2 1508 0
 2455 0024 7B68     		ldr	r3, [r7, #4]
ARM GAS  C:\Users\passw\AppData\Local\Temp\ccYGIhwR.s 			page 77


 2456 0026 181C     		mov	r0, r3
 2457 0028 FFF7FEFF 		bl	CySysWdtGetMode
 2458 002c 031E     		sub	r3, r0, #0
 2459 002e 022B     		cmp	r3, #2
 2460 0030 27D1     		bne	.L212
1509:.\Generated_Source\PSoC4/CyLFClk.c ****             {
1510:.\Generated_Source\PSoC4/CyLFClk.c ****                 CySysWdtResetCounters(CY_SYS_WDT_COUNTER0_RESET);
 2461              		.loc 2 1510 0
 2462 0032 0820     		mov	r0, #8
 2463 0034 FFF7FEFF 		bl	CySysWdtResetCounters
1511:.\Generated_Source\PSoC4/CyLFClk.c ****                 CySysWdtClearInterrupt(CY_SYS_WDT_COUNTER0_MASK);
 2464              		.loc 2 1511 0
 2465 0038 0120     		mov	r0, #1
 2466 003a FFF7FEFF 		bl	CySysWdtClearInterrupt
 2467 003e 20E0     		b	.L212
 2468              	.L213:
1512:.\Generated_Source\PSoC4/CyLFClk.c ****             }
1513:.\Generated_Source\PSoC4/CyLFClk.c ****             else
1514:.\Generated_Source\PSoC4/CyLFClk.c ****             {
1515:.\Generated_Source\PSoC4/CyLFClk.c ****                 /* Do nothing. */
1516:.\Generated_Source\PSoC4/CyLFClk.c ****             }
1517:.\Generated_Source\PSoC4/CyLFClk.c ****         }
1518:.\Generated_Source\PSoC4/CyLFClk.c ****         else if(counterNum == CY_SYS_WDT_COUNTER1)
 2469              		.loc 2 1518 0
 2470 0040 7B68     		ldr	r3, [r7, #4]
 2471 0042 012B     		cmp	r3, #1
 2472 0044 1DD1     		bne	.L212
1519:.\Generated_Source\PSoC4/CyLFClk.c ****         {
1520:.\Generated_Source\PSoC4/CyLFClk.c ****             if(CY_SYS_WDT_MODE_INT_RESET == CySysWdtGetMode(counterNum))
 2473              		.loc 2 1520 0
 2474 0046 7B68     		ldr	r3, [r7, #4]
 2475 0048 181C     		mov	r0, r3
 2476 004a FFF7FEFF 		bl	CySysWdtGetMode
 2477 004e 031E     		sub	r3, r0, #0
 2478 0050 032B     		cmp	r3, #3
 2479 0052 05D1     		bne	.L216
1521:.\Generated_Source\PSoC4/CyLFClk.c ****             {
1522:.\Generated_Source\PSoC4/CyLFClk.c ****                 CySysWdtClearInterrupt(CY_SYS_WDT_COUNTER1_MASK);
 2480              		.loc 2 1522 0
 2481 0054 8023     		mov	r3, #128
 2482 0056 5B00     		lsl	r3, r3, #1
 2483 0058 181C     		mov	r0, r3
 2484 005a FFF7FEFF 		bl	CySysWdtClearInterrupt
 2485 005e 10E0     		b	.L212
 2486              	.L216:
1523:.\Generated_Source\PSoC4/CyLFClk.c ****             }
1524:.\Generated_Source\PSoC4/CyLFClk.c ****             else if(CY_SYS_WDT_MODE_RESET == CySysWdtGetMode(counterNum))
 2487              		.loc 2 1524 0
 2488 0060 7B68     		ldr	r3, [r7, #4]
 2489 0062 181C     		mov	r0, r3
 2490 0064 FFF7FEFF 		bl	CySysWdtGetMode
 2491 0068 031E     		sub	r3, r0, #0
 2492 006a 022B     		cmp	r3, #2
 2493 006c 09D1     		bne	.L212
1525:.\Generated_Source\PSoC4/CyLFClk.c ****             {
1526:.\Generated_Source\PSoC4/CyLFClk.c ****                 CySysWdtResetCounters(CY_SYS_WDT_COUNTER1_RESET);
 2494              		.loc 2 1526 0
ARM GAS  C:\Users\passw\AppData\Local\Temp\ccYGIhwR.s 			page 78


 2495 006e 8023     		mov	r3, #128
 2496 0070 1B01     		lsl	r3, r3, #4
 2497 0072 181C     		mov	r0, r3
 2498 0074 FFF7FEFF 		bl	CySysWdtResetCounters
1527:.\Generated_Source\PSoC4/CyLFClk.c ****                 CySysWdtClearInterrupt(CY_SYS_WDT_COUNTER1_MASK);
 2499              		.loc 2 1527 0
 2500 0078 8023     		mov	r3, #128
 2501 007a 5B00     		lsl	r3, r3, #1
 2502 007c 181C     		mov	r0, r3
 2503 007e FFF7FEFF 		bl	CySysWdtClearInterrupt
 2504              	.L212:
1528:.\Generated_Source\PSoC4/CyLFClk.c ****             }
1529:.\Generated_Source\PSoC4/CyLFClk.c ****             else
1530:.\Generated_Source\PSoC4/CyLFClk.c ****             {
1531:.\Generated_Source\PSoC4/CyLFClk.c ****                 /* Do nothing. */
1532:.\Generated_Source\PSoC4/CyLFClk.c ****             }
1533:.\Generated_Source\PSoC4/CyLFClk.c ****         }
1534:.\Generated_Source\PSoC4/CyLFClk.c ****         else
1535:.\Generated_Source\PSoC4/CyLFClk.c ****         {
1536:.\Generated_Source\PSoC4/CyLFClk.c ****             /* Do nothing. */
1537:.\Generated_Source\PSoC4/CyLFClk.c ****         }
1538:.\Generated_Source\PSoC4/CyLFClk.c ****     }
 2505              		.loc 2 1538 0
 2506 0082 BD46     		mov	sp, r7
 2507 0084 02B0     		add	sp, sp, #8
 2508              		@ sp needed
 2509 0086 80BD     		pop	{r7, pc}
 2510              		.cfi_endproc
 2511              	.LFE37:
 2512              		.size	CySysWatchdogFeed, .-CySysWatchdogFeed
 2513              		.section	.text.CySysClkLfclkPosedgeCatch,"ax",%progbits
 2514              		.align	2
 2515              		.code	16
 2516              		.thumb_func
 2517              		.type	CySysClkLfclkPosedgeCatch, %function
 2518              	CySysClkLfclkPosedgeCatch:
 2519              	.LFB38:
1539:.\Generated_Source\PSoC4/CyLFClk.c **** 
1540:.\Generated_Source\PSoC4/CyLFClk.c **** 
1541:.\Generated_Source\PSoC4/CyLFClk.c ****     /*******************************************************************************
1542:.\Generated_Source\PSoC4/CyLFClk.c ****     * Function Name: CySysClkLfclkPosedgeCatch
1543:.\Generated_Source\PSoC4/CyLFClk.c ****     ********************************************************************************
1544:.\Generated_Source\PSoC4/CyLFClk.c ****     *
1545:.\Generated_Source\PSoC4/CyLFClk.c ****     * Summary:
1546:.\Generated_Source\PSoC4/CyLFClk.c ****     *  Returns once the LFCLK positive edge occurred.
1547:.\Generated_Source\PSoC4/CyLFClk.c ****     *
1548:.\Generated_Source\PSoC4/CyLFClk.c ****     *  CySysClkLfclkPosedgeRestore() should be called after this function
1549:.\Generated_Source\PSoC4/CyLFClk.c ****     *  to restore the WDT configuration.
1550:.\Generated_Source\PSoC4/CyLFClk.c ****     *
1551:.\Generated_Source\PSoC4/CyLFClk.c ****     *  A pair of the CySysClkLfclkPosedgeCatch() and CySysClkLfclkPosedgeRestore()
1552:.\Generated_Source\PSoC4/CyLFClk.c ****     *  functions is expected to be called inside a critical section.
1553:.\Generated_Source\PSoC4/CyLFClk.c ****     *
1554:.\Generated_Source\PSoC4/CyLFClk.c ****     *  To ensure that the WDT counter value is read until it changes, the enabled
1555:.\Generated_Source\PSoC4/CyLFClk.c ****     *  WDT counter is used. If no counter is enabled, counter 0 is enabled.
1556:.\Generated_Source\PSoC4/CyLFClk.c ****     *  And after the LFCLK source is switched, the counter 0 configuration
1557:.\Generated_Source\PSoC4/CyLFClk.c ****     *  is restored.
1558:.\Generated_Source\PSoC4/CyLFClk.c ****     *
ARM GAS  C:\Users\passw\AppData\Local\Temp\ccYGIhwR.s 			page 79


1559:.\Generated_Source\PSoC4/CyLFClk.c ****     *  Not applicable for the PSoC 4000 devices.
1560:.\Generated_Source\PSoC4/CyLFClk.c ****     *
1561:.\Generated_Source\PSoC4/CyLFClk.c ****     * Parameters:
1562:.\Generated_Source\PSoC4/CyLFClk.c ****     *  None.
1563:.\Generated_Source\PSoC4/CyLFClk.c ****     *
1564:.\Generated_Source\PSoC4/CyLFClk.c ****     * Return:
1565:.\Generated_Source\PSoC4/CyLFClk.c ****     *  None.
1566:.\Generated_Source\PSoC4/CyLFClk.c ****     *
1567:.\Generated_Source\PSoC4/CyLFClk.c ****     * Side Effects:
1568:.\Generated_Source\PSoC4/CyLFClk.c ****     *  This function has no effect if WDT is locked (CySysWdtLock() is
1569:.\Generated_Source\PSoC4/CyLFClk.c ****     *  called). Call CySysWdtUnlock() to unlock WDT.
1570:.\Generated_Source\PSoC4/CyLFClk.c ****     *
1571:.\Generated_Source\PSoC4/CyLFClk.c ****     *******************************************************************************/
1572:.\Generated_Source\PSoC4/CyLFClk.c ****     static void CySysClkLfclkPosedgeCatch(void)
1573:.\Generated_Source\PSoC4/CyLFClk.c ****     {
 2520              		.loc 2 1573 0
 2521              		.cfi_startproc
 2522 0000 80B5     		push	{r7, lr}
 2523              		.cfi_def_cfa_offset 8
 2524              		.cfi_offset 7, -8
 2525              		.cfi_offset 14, -4
 2526 0002 82B0     		sub	sp, sp, #8
 2527              		.cfi_def_cfa_offset 16
 2528 0004 00AF     		add	r7, sp, #0
 2529              		.cfi_def_cfa_register 7
1574:.\Generated_Source\PSoC4/CyLFClk.c ****         uint32 firstCount;
1575:.\Generated_Source\PSoC4/CyLFClk.c ****         static uint32 lfclkPosedgeEnabledWdtCounter = 0u;
1576:.\Generated_Source\PSoC4/CyLFClk.c **** 
1577:.\Generated_Source\PSoC4/CyLFClk.c ****         if (0u != CySysWdtGetEnabledStatus(CY_SYS_WDT_COUNTER0))
 2530              		.loc 2 1577 0
 2531 0006 0020     		mov	r0, #0
 2532 0008 FFF7FEFF 		bl	CySysWdtGetEnabledStatus
 2533 000c 031E     		sub	r3, r0, #0
 2534 000e 03D0     		beq	.L218
1578:.\Generated_Source\PSoC4/CyLFClk.c ****         {
1579:.\Generated_Source\PSoC4/CyLFClk.c ****             lfclkPosedgeEnabledWdtCounter = CY_SYS_WDT_COUNTER0;
 2535              		.loc 2 1579 0
 2536 0010 1E4B     		ldr	r3, .L223
 2537 0012 0022     		mov	r2, #0
 2538 0014 1A60     		str	r2, [r3]
 2539 0016 24E0     		b	.L219
 2540              	.L218:
1580:.\Generated_Source\PSoC4/CyLFClk.c ****         }
1581:.\Generated_Source\PSoC4/CyLFClk.c ****         else if (0u != CySysWdtGetEnabledStatus(CY_SYS_WDT_COUNTER1))
 2541              		.loc 2 1581 0
 2542 0018 0120     		mov	r0, #1
 2543 001a FFF7FEFF 		bl	CySysWdtGetEnabledStatus
 2544 001e 031E     		sub	r3, r0, #0
 2545 0020 03D0     		beq	.L220
1582:.\Generated_Source\PSoC4/CyLFClk.c ****         {
1583:.\Generated_Source\PSoC4/CyLFClk.c ****             lfclkPosedgeEnabledWdtCounter = CY_SYS_WDT_COUNTER1;
 2546              		.loc 2 1583 0
 2547 0022 1A4B     		ldr	r3, .L223
 2548 0024 0122     		mov	r2, #1
 2549 0026 1A60     		str	r2, [r3]
 2550 0028 1BE0     		b	.L219
 2551              	.L220:
ARM GAS  C:\Users\passw\AppData\Local\Temp\ccYGIhwR.s 			page 80


1584:.\Generated_Source\PSoC4/CyLFClk.c ****         }
1585:.\Generated_Source\PSoC4/CyLFClk.c ****         else if (0u != CySysWdtGetEnabledStatus(CY_SYS_WDT_COUNTER2))
 2552              		.loc 2 1585 0
 2553 002a 0220     		mov	r0, #2
 2554 002c FFF7FEFF 		bl	CySysWdtGetEnabledStatus
 2555 0030 031E     		sub	r3, r0, #0
 2556 0032 03D0     		beq	.L221
1586:.\Generated_Source\PSoC4/CyLFClk.c ****         {
1587:.\Generated_Source\PSoC4/CyLFClk.c ****             lfclkPosedgeEnabledWdtCounter = CY_SYS_WDT_COUNTER2;
 2557              		.loc 2 1587 0
 2558 0034 154B     		ldr	r3, .L223
 2559 0036 0222     		mov	r2, #2
 2560 0038 1A60     		str	r2, [r3]
 2561 003a 12E0     		b	.L219
 2562              	.L221:
1588:.\Generated_Source\PSoC4/CyLFClk.c ****         }
1589:.\Generated_Source\PSoC4/CyLFClk.c ****         else /* All WDT counters are disabled */
1590:.\Generated_Source\PSoC4/CyLFClk.c ****         {
1591:.\Generated_Source\PSoC4/CyLFClk.c ****             /* Configure WDT counter # 0 */
1592:.\Generated_Source\PSoC4/CyLFClk.c ****             lfclkPosedgeWdtCounter0Enabled = 1u;
 2563              		.loc 2 1592 0
 2564 003c 144B     		ldr	r3, .L223+4
 2565 003e 0122     		mov	r2, #1
 2566 0040 1A60     		str	r2, [r3]
1593:.\Generated_Source\PSoC4/CyLFClk.c ****             lfclkPosedgeEnabledWdtCounter = CY_SYS_WDT_COUNTER0;
 2567              		.loc 2 1593 0
 2568 0042 124B     		ldr	r3, .L223
 2569 0044 0022     		mov	r2, #0
 2570 0046 1A60     		str	r2, [r3]
1594:.\Generated_Source\PSoC4/CyLFClk.c **** 
1595:.\Generated_Source\PSoC4/CyLFClk.c ****             lfclkPosedgeWdtCounter0Mode = CySysWdtGetMode(CY_SYS_WDT_COUNTER0);
 2571              		.loc 2 1595 0
 2572 0048 0020     		mov	r0, #0
 2573 004a FFF7FEFF 		bl	CySysWdtGetMode
 2574 004e 021C     		mov	r2, r0
 2575 0050 104B     		ldr	r3, .L223+8
 2576 0052 1A60     		str	r2, [r3]
1596:.\Generated_Source\PSoC4/CyLFClk.c ****             CySysWdtSetMode(CY_SYS_WDT_COUNTER0, CY_SYS_WDT_MODE_NONE);
 2577              		.loc 2 1596 0
 2578 0054 0020     		mov	r0, #0
 2579 0056 0021     		mov	r1, #0
 2580 0058 FFF7FEFF 		bl	CySysWdtSetMode
1597:.\Generated_Source\PSoC4/CyLFClk.c ****             CySysWdtEnable(CY_SYS_WDT_COUNTER0_MASK);
 2581              		.loc 2 1597 0
 2582 005c 0120     		mov	r0, #1
 2583 005e FFF7FEFF 		bl	CySysWdtEnable
 2584              	.L219:
1598:.\Generated_Source\PSoC4/CyLFClk.c ****         }
1599:.\Generated_Source\PSoC4/CyLFClk.c **** 
1600:.\Generated_Source\PSoC4/CyLFClk.c ****         firstCount = CySysWdtGetCount(lfclkPosedgeEnabledWdtCounter);
 2585              		.loc 2 1600 0
 2586 0062 0A4B     		ldr	r3, .L223
 2587 0064 1B68     		ldr	r3, [r3]
 2588 0066 181C     		mov	r0, r3
 2589 0068 FFF7FEFF 		bl	CySysWdtGetCount
 2590 006c 031C     		mov	r3, r0
 2591 006e 7B60     		str	r3, [r7, #4]
ARM GAS  C:\Users\passw\AppData\Local\Temp\ccYGIhwR.s 			page 81


1601:.\Generated_Source\PSoC4/CyLFClk.c ****         while (CySysWdtGetCount(lfclkPosedgeEnabledWdtCounter) == firstCount)
 2592              		.loc 2 1601 0
 2593 0070 C046     		mov	r8, r8
 2594              	.L222:
 2595              		.loc 2 1601 0 is_stmt 0 discriminator 1
 2596 0072 064B     		ldr	r3, .L223
 2597 0074 1B68     		ldr	r3, [r3]
 2598 0076 181C     		mov	r0, r3
 2599 0078 FFF7FEFF 		bl	CySysWdtGetCount
 2600 007c 021E     		sub	r2, r0, #0
 2601 007e 7B68     		ldr	r3, [r7, #4]
 2602 0080 9A42     		cmp	r2, r3
 2603 0082 F6D0     		beq	.L222
1602:.\Generated_Source\PSoC4/CyLFClk.c ****         {
1603:.\Generated_Source\PSoC4/CyLFClk.c ****             /* Wait for counter to increment */
1604:.\Generated_Source\PSoC4/CyLFClk.c ****         }
1605:.\Generated_Source\PSoC4/CyLFClk.c ****     }
 2604              		.loc 2 1605 0 is_stmt 1
 2605 0084 BD46     		mov	sp, r7
 2606 0086 02B0     		add	sp, sp, #8
 2607              		@ sp needed
 2608 0088 80BD     		pop	{r7, pc}
 2609              	.L224:
 2610 008a C046     		.align	2
 2611              	.L223:
 2612 008c 18000000 		.word	lfclkPosedgeEnabledWdtCounter.4895
 2613 0090 00000000 		.word	lfclkPosedgeWdtCounter0Enabled
 2614 0094 04000000 		.word	lfclkPosedgeWdtCounter0Mode
 2615              		.cfi_endproc
 2616              	.LFE38:
 2617              		.size	CySysClkLfclkPosedgeCatch, .-CySysClkLfclkPosedgeCatch
 2618              		.section	.text.CySysClkLfclkPosedgeRestore,"ax",%progbits
 2619              		.align	2
 2620              		.code	16
 2621              		.thumb_func
 2622              		.type	CySysClkLfclkPosedgeRestore, %function
 2623              	CySysClkLfclkPosedgeRestore:
 2624              	.LFB39:
1606:.\Generated_Source\PSoC4/CyLFClk.c **** 
1607:.\Generated_Source\PSoC4/CyLFClk.c **** 
1608:.\Generated_Source\PSoC4/CyLFClk.c ****     /*******************************************************************************
1609:.\Generated_Source\PSoC4/CyLFClk.c ****     * Function Name: CySysClkLfclkPosedgeRestore
1610:.\Generated_Source\PSoC4/CyLFClk.c ****     ********************************************************************************
1611:.\Generated_Source\PSoC4/CyLFClk.c ****     *
1612:.\Generated_Source\PSoC4/CyLFClk.c ****     * Summary:
1613:.\Generated_Source\PSoC4/CyLFClk.c ****     *  Restores the WDT configuration after a CySysClkLfclkPosedgeCatch() call.
1614:.\Generated_Source\PSoC4/CyLFClk.c ****     *
1615:.\Generated_Source\PSoC4/CyLFClk.c ****     *  A pair of the CySysClkLfclkPosedgeCatch() and CySysClkLfclkPosedgeRestore()
1616:.\Generated_Source\PSoC4/CyLFClk.c ****     *  functions is expected to be called inside a critical section.
1617:.\Generated_Source\PSoC4/CyLFClk.c ****     *
1618:.\Generated_Source\PSoC4/CyLFClk.c ****     *  Not applicable for the PSoC 4000 devices.
1619:.\Generated_Source\PSoC4/CyLFClk.c ****     *
1620:.\Generated_Source\PSoC4/CyLFClk.c ****     * Parameters:
1621:.\Generated_Source\PSoC4/CyLFClk.c ****     *  None.
1622:.\Generated_Source\PSoC4/CyLFClk.c ****     *
1623:.\Generated_Source\PSoC4/CyLFClk.c ****     * Return:
1624:.\Generated_Source\PSoC4/CyLFClk.c ****     *  None.
ARM GAS  C:\Users\passw\AppData\Local\Temp\ccYGIhwR.s 			page 82


1625:.\Generated_Source\PSoC4/CyLFClk.c ****     *
1626:.\Generated_Source\PSoC4/CyLFClk.c ****     * Side Effects:
1627:.\Generated_Source\PSoC4/CyLFClk.c ****     *  This function has no effect if WDT is locked (CySysWdtLock() is
1628:.\Generated_Source\PSoC4/CyLFClk.c ****     *  called). Call CySysWdtUnlock() to unlock WDT.
1629:.\Generated_Source\PSoC4/CyLFClk.c ****     *
1630:.\Generated_Source\PSoC4/CyLFClk.c ****     *******************************************************************************/
1631:.\Generated_Source\PSoC4/CyLFClk.c ****     static void CySysClkLfclkPosedgeRestore(void)
1632:.\Generated_Source\PSoC4/CyLFClk.c ****     {
 2625              		.loc 2 1632 0
 2626              		.cfi_startproc
 2627 0000 80B5     		push	{r7, lr}
 2628              		.cfi_def_cfa_offset 8
 2629              		.cfi_offset 7, -8
 2630              		.cfi_offset 14, -4
 2631 0002 00AF     		add	r7, sp, #0
 2632              		.cfi_def_cfa_register 7
1633:.\Generated_Source\PSoC4/CyLFClk.c ****         if (lfclkPosedgeWdtCounter0Enabled != 0u)
 2633              		.loc 2 1633 0
 2634 0004 0A4B     		ldr	r3, .L227
 2635 0006 1B68     		ldr	r3, [r3]
 2636 0008 002B     		cmp	r3, #0
 2637 000a 0ED0     		beq	.L225
1634:.\Generated_Source\PSoC4/CyLFClk.c ****         {
1635:.\Generated_Source\PSoC4/CyLFClk.c ****             /* Restore counter # 0 configuration and force its shutdown */
1636:.\Generated_Source\PSoC4/CyLFClk.c ****             CY_SYS_WDT_CONTROL_REG &= (uint32)(~CY_SYS_WDT_COUNTER0_MASK);
 2638              		.loc 2 1636 0
 2639 000c 094B     		ldr	r3, .L227+4
 2640 000e 094A     		ldr	r2, .L227+4
 2641 0010 1268     		ldr	r2, [r2]
 2642 0012 0121     		mov	r1, #1
 2643 0014 8A43     		bic	r2, r1
 2644 0016 1A60     		str	r2, [r3]
1637:.\Generated_Source\PSoC4/CyLFClk.c ****             CySysWdtSetMode(CY_SYS_WDT_COUNTER0, lfclkPosedgeWdtCounter0Mode);
 2645              		.loc 2 1637 0
 2646 0018 074B     		ldr	r3, .L227+8
 2647 001a 1B68     		ldr	r3, [r3]
 2648 001c 0020     		mov	r0, #0
 2649 001e 191C     		mov	r1, r3
 2650 0020 FFF7FEFF 		bl	CySysWdtSetMode
1638:.\Generated_Source\PSoC4/CyLFClk.c ****             lfclkPosedgeWdtCounter0Enabled = 0u;
 2651              		.loc 2 1638 0
 2652 0024 024B     		ldr	r3, .L227
 2653 0026 0022     		mov	r2, #0
 2654 0028 1A60     		str	r2, [r3]
 2655              	.L225:
1639:.\Generated_Source\PSoC4/CyLFClk.c ****         }
1640:.\Generated_Source\PSoC4/CyLFClk.c ****     }
 2656              		.loc 2 1640 0
 2657 002a BD46     		mov	sp, r7
 2658              		@ sp needed
 2659 002c 80BD     		pop	{r7, pc}
 2660              	.L228:
 2661 002e C046     		.align	2
 2662              	.L227:
 2663 0030 00000000 		.word	lfclkPosedgeWdtCounter0Enabled
 2664 0034 10020B40 		.word	1074463248
 2665 0038 04000000 		.word	lfclkPosedgeWdtCounter0Mode
ARM GAS  C:\Users\passw\AppData\Local\Temp\ccYGIhwR.s 			page 83


 2666              		.cfi_endproc
 2667              	.LFE39:
 2668              		.size	CySysClkLfclkPosedgeRestore, .-CySysClkLfclkPosedgeRestore
 2669              		.bss
 2670              		.align	2
 2671              	lfclkPosedgeEnabledWdtCounter.4895:
 2672 0018 00000000 		.space	4
 2673              		.text
 2674              	.Letext0:
 2675              		.file 3 ".\\Generated_Source\\PSoC4\\cytypes.h"
 2676              		.section	.debug_info,"",%progbits
 2677              	.Ldebug_info0:
 2678 0000 37080000 		.4byte	0x837
 2679 0004 0400     		.2byte	0x4
 2680 0006 00000000 		.4byte	.Ldebug_abbrev0
 2681 000a 04       		.byte	0x4
 2682 000b 01       		.uleb128 0x1
 2683 000c 06060000 		.4byte	.LASF90
 2684 0010 01       		.byte	0x1
 2685 0011 97030000 		.4byte	.LASF91
 2686 0015 EC000000 		.4byte	.LASF92
 2687 0019 00000000 		.4byte	.Ldebug_ranges0+0
 2688 001d 00000000 		.4byte	0
 2689 0021 00000000 		.4byte	.Ldebug_line0
 2690 0025 02       		.uleb128 0x2
 2691 0026 01       		.byte	0x1
 2692 0027 06       		.byte	0x6
 2693 0028 64010000 		.4byte	.LASF0
 2694 002c 02       		.uleb128 0x2
 2695 002d 01       		.byte	0x1
 2696 002e 08       		.byte	0x8
 2697 002f 6E040000 		.4byte	.LASF1
 2698 0033 02       		.uleb128 0x2
 2699 0034 02       		.byte	0x2
 2700 0035 05       		.byte	0x5
 2701 0036 A0040000 		.4byte	.LASF2
 2702 003a 02       		.uleb128 0x2
 2703 003b 02       		.byte	0x2
 2704 003c 07       		.byte	0x7
 2705 003d 1C030000 		.4byte	.LASF3
 2706 0041 02       		.uleb128 0x2
 2707 0042 04       		.byte	0x4
 2708 0043 05       		.byte	0x5
 2709 0044 B7010000 		.4byte	.LASF4
 2710 0048 02       		.uleb128 0x2
 2711 0049 04       		.byte	0x4
 2712 004a 07       		.byte	0x7
 2713 004b CA020000 		.4byte	.LASF5
 2714 004f 02       		.uleb128 0x2
 2715 0050 08       		.byte	0x8
 2716 0051 05       		.byte	0x5
 2717 0052 56010000 		.4byte	.LASF6
 2718 0056 02       		.uleb128 0x2
 2719 0057 08       		.byte	0x8
 2720 0058 07       		.byte	0x7
 2721 0059 D5000000 		.4byte	.LASF7
 2722 005d 03       		.uleb128 0x3
ARM GAS  C:\Users\passw\AppData\Local\Temp\ccYGIhwR.s 			page 84


 2723 005e 04       		.byte	0x4
 2724 005f 05       		.byte	0x5
 2725 0060 696E7400 		.ascii	"int\000"
 2726 0064 02       		.uleb128 0x2
 2727 0065 04       		.byte	0x4
 2728 0066 07       		.byte	0x7
 2729 0067 8F020000 		.4byte	.LASF8
 2730 006b 04       		.uleb128 0x4
 2731 006c C9010000 		.4byte	.LASF9
 2732 0070 03       		.byte	0x3
 2733 0071 3801     		.2byte	0x138
 2734 0073 2C000000 		.4byte	0x2c
 2735 0077 04       		.uleb128 0x4
 2736 0078 00000000 		.4byte	.LASF10
 2737 007c 03       		.byte	0x3
 2738 007d 3901     		.2byte	0x139
 2739 007f 3A000000 		.4byte	0x3a
 2740 0083 04       		.uleb128 0x4
 2741 0084 FA010000 		.4byte	.LASF11
 2742 0088 03       		.byte	0x3
 2743 0089 3A01     		.2byte	0x13a
 2744 008b 48000000 		.4byte	0x48
 2745 008f 02       		.uleb128 0x2
 2746 0090 04       		.byte	0x4
 2747 0091 04       		.byte	0x4
 2748 0092 2F040000 		.4byte	.LASF12
 2749 0096 02       		.uleb128 0x2
 2750 0097 08       		.byte	0x8
 2751 0098 04       		.byte	0x4
 2752 0099 D6010000 		.4byte	.LASF13
 2753 009d 02       		.uleb128 0x2
 2754 009e 01       		.byte	0x1
 2755 009f 08       		.byte	0x8
 2756 00a0 34050000 		.4byte	.LASF14
 2757 00a4 04       		.uleb128 0x4
 2758 00a5 BA030000 		.4byte	.LASF15
 2759 00a9 03       		.byte	0x3
 2760 00aa E401     		.2byte	0x1e4
 2761 00ac B0000000 		.4byte	0xb0
 2762 00b0 05       		.uleb128 0x5
 2763 00b1 83000000 		.4byte	0x83
 2764 00b5 06       		.uleb128 0x6
 2765 00b6 04       		.byte	0x4
 2766 00b7 BB000000 		.4byte	0xbb
 2767 00bb 07       		.uleb128 0x7
 2768 00bc 08       		.uleb128 0x8
 2769 00bd 01       		.byte	0x1
 2770 00be 01       		.byte	0x1
 2771 00bf 16       		.byte	0x16
 2772 00c0 D1000000 		.4byte	0xd1
 2773 00c4 09       		.uleb128 0x9
 2774 00c5 F0030000 		.4byte	.LASF16
 2775 00c9 00       		.sleb128 0
 2776 00ca 09       		.uleb128 0x9
 2777 00cb A9060000 		.4byte	.LASF17
 2778 00cf 01       		.sleb128 1
 2779 00d0 00       		.byte	0
ARM GAS  C:\Users\passw\AppData\Local\Temp\ccYGIhwR.s 			page 85


 2780 00d1 0A       		.uleb128 0xa
 2781 00d2 96010000 		.4byte	.LASF18
 2782 00d6 01       		.byte	0x1
 2783 00d7 19       		.byte	0x19
 2784 00d8 BC000000 		.4byte	0xbc
 2785 00dc 0A       		.uleb128 0xa
 2786 00dd 88010000 		.4byte	.LASF19
 2787 00e1 01       		.byte	0x1
 2788 00e2 2D       		.byte	0x2d
 2789 00e3 B5000000 		.4byte	0xb5
 2790 00e7 02       		.uleb128 0x2
 2791 00e8 04       		.byte	0x4
 2792 00e9 07       		.byte	0x7
 2793 00ea D0030000 		.4byte	.LASF20
 2794 00ee 0B       		.uleb128 0xb
 2795 00ef 3A010000 		.4byte	.LASF82
 2796 00f3 01       		.byte	0x1
 2797 00f4 5801     		.2byte	0x158
 2798 00f6 00000000 		.4byte	.LFB0
 2799 00fa 48000000 		.4byte	.LFE0-.LFB0
 2800 00fe 01       		.uleb128 0x1
 2801 00ff 9C       		.byte	0x9c
 2802 0100 0C       		.uleb128 0xc
 2803 0101 71030000 		.4byte	.LASF25
 2804 0105 02       		.byte	0x2
 2805 0106 41       		.byte	0x41
 2806 0107 00000000 		.4byte	.LFB1
 2807 010b 1C000000 		.4byte	.LFE1-.LFB1
 2808 010f 01       		.uleb128 0x1
 2809 0110 9C       		.byte	0x9c
 2810 0111 0D       		.uleb128 0xd
 2811 0112 DD010000 		.4byte	.LASF23
 2812 0116 02       		.byte	0x2
 2813 0117 60       		.byte	0x60
 2814 0118 00000000 		.4byte	.LFB2
 2815 011c 60000000 		.4byte	.LFE2-.LFB2
 2816 0120 01       		.uleb128 0x1
 2817 0121 9C       		.byte	0x9c
 2818 0122 35010000 		.4byte	0x135
 2819 0126 0E       		.uleb128 0xe
 2820 0127 79010000 		.4byte	.LASF21
 2821 012b 02       		.byte	0x2
 2822 012c 63       		.byte	0x63
 2823 012d 6B000000 		.4byte	0x6b
 2824 0131 02       		.uleb128 0x2
 2825 0132 91       		.byte	0x91
 2826 0133 6F       		.sleb128 -17
 2827 0134 00       		.byte	0
 2828 0135 0F       		.uleb128 0xf
 2829 0136 C4040000 		.4byte	.LASF32
 2830 013a 02       		.byte	0x2
 2831 013b 94       		.byte	0x94
 2832 013c 83000000 		.4byte	0x83
 2833 0140 00000000 		.4byte	.LFB3
 2834 0144 1C000000 		.4byte	.LFE3-.LFB3
 2835 0148 01       		.uleb128 0x1
 2836 0149 9C       		.byte	0x9c
ARM GAS  C:\Users\passw\AppData\Local\Temp\ccYGIhwR.s 			page 86


 2837 014a 10       		.uleb128 0x10
 2838 014b 9F000000 		.4byte	.LASF93
 2839 014f 02       		.byte	0x2
 2840 0150 B0       		.byte	0xb0
 2841 0151 83000000 		.4byte	0x83
 2842 0155 00000000 		.4byte	.LFB4
 2843 0159 20000000 		.4byte	.LFE4-.LFB4
 2844 015d 01       		.uleb128 0x1
 2845 015e 9C       		.byte	0x9c
 2846 015f 72010000 		.4byte	0x172
 2847 0163 0E       		.uleb128 0xe
 2848 0164 07000000 		.4byte	.LASF22
 2849 0168 02       		.byte	0x2
 2850 0169 B2       		.byte	0xb2
 2851 016a 83000000 		.4byte	0x83
 2852 016e 02       		.uleb128 0x2
 2853 016f 91       		.byte	0x91
 2854 0170 74       		.sleb128 -12
 2855 0171 00       		.byte	0
 2856 0172 0D       		.uleb128 0xd
 2857 0173 9C020000 		.4byte	.LASF24
 2858 0177 02       		.byte	0x2
 2859 0178 E1       		.byte	0xe1
 2860 0179 00000000 		.4byte	.LFB5
 2861 017d 54000000 		.4byte	.LFE5-.LFB5
 2862 0181 01       		.uleb128 0x1
 2863 0182 9C       		.byte	0x9c
 2864 0183 A4010000 		.4byte	0x1a4
 2865 0187 11       		.uleb128 0x11
 2866 0188 C9030000 		.4byte	.LASF28
 2867 018c 02       		.byte	0x2
 2868 018d E1       		.byte	0xe1
 2869 018e 83000000 		.4byte	0x83
 2870 0192 02       		.uleb128 0x2
 2871 0193 91       		.byte	0x91
 2872 0194 64       		.sleb128 -28
 2873 0195 0E       		.uleb128 0xe
 2874 0196 79010000 		.4byte	.LASF21
 2875 019a 02       		.byte	0x2
 2876 019b E3       		.byte	0xe3
 2877 019c 6B000000 		.4byte	0x6b
 2878 01a0 02       		.uleb128 0x2
 2879 01a1 91       		.byte	0x91
 2880 01a2 6F       		.sleb128 -17
 2881 01a3 00       		.byte	0
 2882 01a4 12       		.uleb128 0x12
 2883 01a5 AA050000 		.4byte	.LASF26
 2884 01a9 02       		.byte	0x2
 2885 01aa 0E01     		.2byte	0x10e
 2886 01ac 00000000 		.4byte	.LFB6
 2887 01b0 20000000 		.4byte	.LFE6-.LFB6
 2888 01b4 01       		.uleb128 0x1
 2889 01b5 9C       		.byte	0x9c
 2890 01b6 13       		.uleb128 0x13
 2891 01b7 F2040000 		.4byte	.LASF27
 2892 01bb 02       		.byte	0x2
 2893 01bc 2301     		.2byte	0x123
ARM GAS  C:\Users\passw\AppData\Local\Temp\ccYGIhwR.s 			page 87


 2894 01be 00000000 		.4byte	.LFB7
 2895 01c2 5C000000 		.4byte	.LFE7-.LFB7
 2896 01c6 01       		.uleb128 0x1
 2897 01c7 9C       		.byte	0x9c
 2898 01c8 DC010000 		.4byte	0x1dc
 2899 01cc 14       		.uleb128 0x14
 2900 01cd 79010000 		.4byte	.LASF21
 2901 01d1 02       		.byte	0x2
 2902 01d2 2501     		.2byte	0x125
 2903 01d4 6B000000 		.4byte	0x6b
 2904 01d8 02       		.uleb128 0x2
 2905 01d9 91       		.byte	0x91
 2906 01da 6F       		.sleb128 -17
 2907 01db 00       		.byte	0
 2908 01dc 15       		.uleb128 0x15
 2909 01dd 27010000 		.4byte	.LASF50
 2910 01e1 02       		.byte	0x2
 2911 01e2 4801     		.2byte	0x148
 2912 01e4 83000000 		.4byte	0x83
 2913 01e8 00000000 		.4byte	.LFB8
 2914 01ec 1C000000 		.4byte	.LFE8-.LFB8
 2915 01f0 01       		.uleb128 0x1
 2916 01f1 9C       		.byte	0x9c
 2917 01f2 16       		.uleb128 0x16
 2918 01f3 02050000 		.4byte	.LASF35
 2919 01f7 02       		.byte	0x2
 2920 01f8 6501     		.2byte	0x165
 2921 01fa 83000000 		.4byte	0x83
 2922 01fe 00000000 		.4byte	.LFB9
 2923 0202 34000000 		.4byte	.LFE9-.LFB9
 2924 0206 01       		.uleb128 0x1
 2925 0207 9C       		.byte	0x9c
 2926 0208 2B020000 		.4byte	0x22b
 2927 020c 17       		.uleb128 0x17
 2928 020d 39050000 		.4byte	.LASF29
 2929 0211 02       		.byte	0x2
 2930 0212 6501     		.2byte	0x165
 2931 0214 83000000 		.4byte	0x83
 2932 0218 02       		.uleb128 0x2
 2933 0219 91       		.byte	0x91
 2934 021a 6C       		.sleb128 -20
 2935 021b 14       		.uleb128 0x14
 2936 021c C8050000 		.4byte	.LASF30
 2937 0220 02       		.byte	0x2
 2938 0221 6701     		.2byte	0x167
 2939 0223 83000000 		.4byte	0x83
 2940 0227 02       		.uleb128 0x2
 2941 0228 91       		.byte	0x91
 2942 0229 74       		.sleb128 -12
 2943 022a 00       		.byte	0
 2944 022b 13       		.uleb128 0x13
 2945 022c 4F050000 		.4byte	.LASF31
 2946 0230 02       		.byte	0x2
 2947 0231 9801     		.2byte	0x198
 2948 0233 00000000 		.4byte	.LFB10
 2949 0237 34000000 		.4byte	.LFE10-.LFB10
 2950 023b 01       		.uleb128 0x1
ARM GAS  C:\Users\passw\AppData\Local\Temp\ccYGIhwR.s 			page 88


 2951 023c 9C       		.byte	0x9c
 2952 023d 51020000 		.4byte	0x251
 2953 0241 14       		.uleb128 0x14
 2954 0242 79010000 		.4byte	.LASF21
 2955 0246 02       		.byte	0x2
 2956 0247 9A01     		.2byte	0x19a
 2957 0249 6B000000 		.4byte	0x6b
 2958 024d 02       		.uleb128 0x2
 2959 024e 91       		.byte	0x91
 2960 024f 6F       		.sleb128 -17
 2961 0250 00       		.byte	0
 2962 0251 18       		.uleb128 0x18
 2963 0252 5F040000 		.4byte	.LASF33
 2964 0256 02       		.byte	0x2
 2965 0257 B201     		.2byte	0x1b2
 2966 0259 83000000 		.4byte	0x83
 2967 025d 00000000 		.4byte	.LFB11
 2968 0261 20000000 		.4byte	.LFE11-.LFB11
 2969 0265 01       		.uleb128 0x1
 2970 0266 9C       		.byte	0x9c
 2971 0267 13       		.uleb128 0x13
 2972 0268 46000000 		.4byte	.LASF34
 2973 026c 02       		.byte	0x2
 2974 026d C701     		.2byte	0x1c7
 2975 026f 00000000 		.4byte	.LFB12
 2976 0273 4C000000 		.4byte	.LFE12-.LFB12
 2977 0277 01       		.uleb128 0x1
 2978 0278 9C       		.byte	0x9c
 2979 0279 8D020000 		.4byte	0x28d
 2980 027d 14       		.uleb128 0x14
 2981 027e 79010000 		.4byte	.LASF21
 2982 0282 02       		.byte	0x2
 2983 0283 C901     		.2byte	0x1c9
 2984 0285 6B000000 		.4byte	0x6b
 2985 0289 02       		.uleb128 0x2
 2986 028a 91       		.byte	0x91
 2987 028b 6F       		.sleb128 -17
 2988 028c 00       		.byte	0
 2989 028d 16       		.uleb128 0x16
 2990 028e 2F030000 		.4byte	.LASF36
 2991 0292 02       		.byte	0x2
 2992 0293 ED01     		.2byte	0x1ed
 2993 0295 83000000 		.4byte	0x83
 2994 0299 00000000 		.4byte	.LFB13
 2995 029d 30000000 		.4byte	.LFE13-.LFB13
 2996 02a1 01       		.uleb128 0x1
 2997 02a2 9C       		.byte	0x9c
 2998 02a3 B7020000 		.4byte	0x2b7
 2999 02a7 17       		.uleb128 0x17
 3000 02a8 67000000 		.4byte	.LASF37
 3001 02ac 02       		.byte	0x2
 3002 02ad ED01     		.2byte	0x1ed
 3003 02af 83000000 		.4byte	0x83
 3004 02b3 02       		.uleb128 0x2
 3005 02b4 91       		.byte	0x91
 3006 02b5 74       		.sleb128 -12
 3007 02b6 00       		.byte	0
ARM GAS  C:\Users\passw\AppData\Local\Temp\ccYGIhwR.s 			page 89


 3008 02b7 13       		.uleb128 0x13
 3009 02b8 36000000 		.4byte	.LASF38
 3010 02bc 02       		.byte	0x2
 3011 02bd 1102     		.2byte	0x211
 3012 02bf 00000000 		.4byte	.LFB14
 3013 02c3 58000000 		.4byte	.LFE14-.LFB14
 3014 02c7 01       		.uleb128 0x1
 3015 02c8 9C       		.byte	0x9c
 3016 02c9 FB020000 		.4byte	0x2fb
 3017 02cd 17       		.uleb128 0x17
 3018 02ce 67000000 		.4byte	.LASF37
 3019 02d2 02       		.byte	0x2
 3020 02d3 1102     		.2byte	0x211
 3021 02d5 83000000 		.4byte	0x83
 3022 02d9 02       		.uleb128 0x2
 3023 02da 91       		.byte	0x91
 3024 02db 6C       		.sleb128 -20
 3025 02dc 17       		.uleb128 0x17
 3026 02dd 39050000 		.4byte	.LASF29
 3027 02e1 02       		.byte	0x2
 3028 02e2 1102     		.2byte	0x211
 3029 02e4 83000000 		.4byte	0x83
 3030 02e8 02       		.uleb128 0x2
 3031 02e9 91       		.byte	0x91
 3032 02ea 68       		.sleb128 -24
 3033 02eb 14       		.uleb128 0x14
 3034 02ec CF050000 		.4byte	.LASF39
 3035 02f0 02       		.byte	0x2
 3036 02f1 1302     		.2byte	0x213
 3037 02f3 83000000 		.4byte	0x83
 3038 02f7 02       		.uleb128 0x2
 3039 02f8 91       		.byte	0x91
 3040 02f9 74       		.sleb128 -12
 3041 02fa 00       		.byte	0
 3042 02fb 19       		.uleb128 0x19
 3043 02fc 9A050000 		.4byte	.LASF40
 3044 0300 02       		.byte	0x2
 3045 0301 3002     		.2byte	0x230
 3046 0303 83000000 		.4byte	0x83
 3047 0307 00000000 		.4byte	.LFB15
 3048 030b 24000000 		.4byte	.LFE15-.LFB15
 3049 030f 01       		.uleb128 0x1
 3050 0310 9C       		.byte	0x9c
 3051 0311 25030000 		.4byte	0x325
 3052 0315 17       		.uleb128 0x17
 3053 0316 67000000 		.4byte	.LASF37
 3054 031a 02       		.byte	0x2
 3055 031b 3002     		.2byte	0x230
 3056 031d 83000000 		.4byte	0x83
 3057 0321 02       		.uleb128 0x2
 3058 0322 91       		.byte	0x91
 3059 0323 74       		.sleb128 -12
 3060 0324 00       		.byte	0
 3061 0325 13       		.uleb128 0x13
 3062 0326 6F050000 		.4byte	.LASF41
 3063 032a 02       		.byte	0x2
 3064 032b 5102     		.2byte	0x251
ARM GAS  C:\Users\passw\AppData\Local\Temp\ccYGIhwR.s 			page 90


 3065 032d 00000000 		.4byte	.LFB16
 3066 0331 6C000000 		.4byte	.LFE16-.LFB16
 3067 0335 01       		.uleb128 0x1
 3068 0336 9C       		.byte	0x9c
 3069 0337 69030000 		.4byte	0x369
 3070 033b 17       		.uleb128 0x17
 3071 033c 67000000 		.4byte	.LASF37
 3072 0340 02       		.byte	0x2
 3073 0341 5102     		.2byte	0x251
 3074 0343 83000000 		.4byte	0x83
 3075 0347 02       		.uleb128 0x2
 3076 0348 91       		.byte	0x91
 3077 0349 6C       		.sleb128 -20
 3078 034a 17       		.uleb128 0x17
 3079 034b CF010000 		.4byte	.LASF42
 3080 034f 02       		.byte	0x2
 3081 0350 5102     		.2byte	0x251
 3082 0352 83000000 		.4byte	0x83
 3083 0356 02       		.uleb128 0x2
 3084 0357 91       		.byte	0x91
 3085 0358 68       		.sleb128 -24
 3086 0359 14       		.uleb128 0x14
 3087 035a CF050000 		.4byte	.LASF39
 3088 035e 02       		.byte	0x2
 3089 035f 5302     		.2byte	0x253
 3090 0361 83000000 		.4byte	0x83
 3091 0365 02       		.uleb128 0x2
 3092 0366 91       		.byte	0x91
 3093 0367 74       		.sleb128 -12
 3094 0368 00       		.byte	0
 3095 0369 16       		.uleb128 0x16
 3096 036a 77020000 		.4byte	.LASF43
 3097 036e 02       		.byte	0x2
 3098 036f 7402     		.2byte	0x274
 3099 0371 83000000 		.4byte	0x83
 3100 0375 00000000 		.4byte	.LFB17
 3101 0379 40000000 		.4byte	.LFE17-.LFB17
 3102 037d 01       		.uleb128 0x1
 3103 037e 9C       		.byte	0x9c
 3104 037f 93030000 		.4byte	0x393
 3105 0383 17       		.uleb128 0x17
 3106 0384 67000000 		.4byte	.LASF37
 3107 0388 02       		.byte	0x2
 3108 0389 7402     		.2byte	0x274
 3109 038b 83000000 		.4byte	0x83
 3110 038f 02       		.uleb128 0x2
 3111 0390 91       		.byte	0x91
 3112 0391 74       		.sleb128 -12
 3113 0392 00       		.byte	0
 3114 0393 13       		.uleb128 0x13
 3115 0394 3F020000 		.4byte	.LASF44
 3116 0398 02       		.byte	0x2
 3117 0399 A202     		.2byte	0x2a2
 3118 039b 00000000 		.4byte	.LFB18
 3119 039f 60000000 		.4byte	.LFE18-.LFB18
 3120 03a3 01       		.uleb128 0x1
 3121 03a4 9C       		.byte	0x9c
ARM GAS  C:\Users\passw\AppData\Local\Temp\ccYGIhwR.s 			page 91


 3122 03a5 B9030000 		.4byte	0x3b9
 3123 03a9 17       		.uleb128 0x17
 3124 03aa 6B020000 		.4byte	.LASF45
 3125 03ae 02       		.byte	0x2
 3126 03af A202     		.2byte	0x2a2
 3127 03b1 83000000 		.4byte	0x83
 3128 03b5 02       		.uleb128 0x2
 3129 03b6 91       		.byte	0x91
 3130 03b7 74       		.sleb128 -12
 3131 03b8 00       		.byte	0
 3132 03b9 13       		.uleb128 0x13
 3133 03ba B4040000 		.4byte	.LASF46
 3134 03be 02       		.byte	0x2
 3135 03bf D702     		.2byte	0x2d7
 3136 03c1 00000000 		.4byte	.LFB19
 3137 03c5 68000000 		.4byte	.LFE19-.LFB19
 3138 03c9 01       		.uleb128 0x1
 3139 03ca 9C       		.byte	0x9c
 3140 03cb DF030000 		.4byte	0x3df
 3141 03cf 17       		.uleb128 0x17
 3142 03d0 6B020000 		.4byte	.LASF45
 3143 03d4 02       		.byte	0x2
 3144 03d5 D702     		.2byte	0x2d7
 3145 03d7 83000000 		.4byte	0x83
 3146 03db 02       		.uleb128 0x2
 3147 03dc 91       		.byte	0x91
 3148 03dd 74       		.sleb128 -12
 3149 03de 00       		.byte	0
 3150 03df 13       		.uleb128 0x13
 3151 03e0 87050000 		.4byte	.LASF47
 3152 03e4 02       		.byte	0x2
 3153 03e5 1903     		.2byte	0x319
 3154 03e7 00000000 		.4byte	.LFB20
 3155 03eb 58000000 		.4byte	.LFE20-.LFB20
 3156 03ef 01       		.uleb128 0x1
 3157 03f0 9C       		.byte	0x9c
 3158 03f1 23040000 		.4byte	0x423
 3159 03f5 17       		.uleb128 0x17
 3160 03f6 FA050000 		.4byte	.LASF48
 3161 03fa 02       		.byte	0x2
 3162 03fb 1903     		.2byte	0x319
 3163 03fd 83000000 		.4byte	0x83
 3164 0401 02       		.uleb128 0x2
 3165 0402 91       		.byte	0x91
 3166 0403 64       		.sleb128 -28
 3167 0404 14       		.uleb128 0x14
 3168 0405 CF050000 		.4byte	.LASF39
 3169 0409 02       		.byte	0x2
 3170 040a 1B03     		.2byte	0x31b
 3171 040c 83000000 		.4byte	0x83
 3172 0410 02       		.uleb128 0x2
 3173 0411 91       		.byte	0x91
 3174 0412 68       		.sleb128 -24
 3175 0413 14       		.uleb128 0x14
 3176 0414 1F020000 		.4byte	.LASF49
 3177 0418 02       		.byte	0x2
 3178 0419 1C03     		.2byte	0x31c
ARM GAS  C:\Users\passw\AppData\Local\Temp\ccYGIhwR.s 			page 92


 3179 041b 83000000 		.4byte	0x83
 3180 041f 02       		.uleb128 0x2
 3181 0420 91       		.byte	0x91
 3182 0421 6C       		.sleb128 -20
 3183 0422 00       		.byte	0
 3184 0423 15       		.uleb128 0x15
 3185 0424 8C000000 		.4byte	.LASF51
 3186 0428 02       		.byte	0x2
 3187 0429 3E03     		.2byte	0x33e
 3188 042b 83000000 		.4byte	0x83
 3189 042f 00000000 		.4byte	.LFB21
 3190 0433 1C000000 		.4byte	.LFE21-.LFB21
 3191 0437 01       		.uleb128 0x1
 3192 0438 9C       		.byte	0x9c
 3193 0439 13       		.uleb128 0x13
 3194 043a 0E020000 		.4byte	.LASF52
 3195 043e 02       		.byte	0x2
 3196 043f 5703     		.2byte	0x357
 3197 0441 00000000 		.4byte	.LFB22
 3198 0445 90000000 		.4byte	.LFE22-.LFB22
 3199 0449 01       		.uleb128 0x1
 3200 044a 9C       		.byte	0x9c
 3201 044b 7D040000 		.4byte	0x47d
 3202 044f 17       		.uleb128 0x17
 3203 0450 67000000 		.4byte	.LASF37
 3204 0454 02       		.byte	0x2
 3205 0455 5703     		.2byte	0x357
 3206 0457 83000000 		.4byte	0x83
 3207 045b 02       		.uleb128 0x2
 3208 045c 91       		.byte	0x91
 3209 045d 6C       		.sleb128 -20
 3210 045e 17       		.uleb128 0x17
 3211 045f EA030000 		.4byte	.LASF53
 3212 0463 02       		.byte	0x2
 3213 0464 5703     		.2byte	0x357
 3214 0466 83000000 		.4byte	0x83
 3215 046a 02       		.uleb128 0x2
 3216 046b 91       		.byte	0x91
 3217 046c 68       		.sleb128 -24
 3218 046d 14       		.uleb128 0x14
 3219 046e C0010000 		.4byte	.LASF54
 3220 0472 02       		.byte	0x2
 3221 0473 5903     		.2byte	0x359
 3222 0475 83000000 		.4byte	0x83
 3223 0479 02       		.uleb128 0x2
 3224 047a 91       		.byte	0x91
 3225 047b 74       		.sleb128 -12
 3226 047c 00       		.byte	0
 3227 047d 13       		.uleb128 0x13
 3228 047e 82030000 		.4byte	.LASF55
 3229 0482 02       		.byte	0x2
 3230 0483 8303     		.2byte	0x383
 3231 0485 00000000 		.4byte	.LFB23
 3232 0489 44000000 		.4byte	.LFE23-.LFB23
 3233 048d 01       		.uleb128 0x1
 3234 048e 9C       		.byte	0x9c
 3235 048f B2040000 		.4byte	0x4b2
ARM GAS  C:\Users\passw\AppData\Local\Temp\ccYGIhwR.s 			page 93


 3236 0493 17       		.uleb128 0x17
 3237 0494 B2010000 		.4byte	.LASF56
 3238 0498 02       		.byte	0x2
 3239 0499 8303     		.2byte	0x383
 3240 049b 83000000 		.4byte	0x83
 3241 049f 02       		.uleb128 0x2
 3242 04a0 91       		.byte	0x91
 3243 04a1 6C       		.sleb128 -20
 3244 04a2 14       		.uleb128 0x14
 3245 04a3 CF050000 		.4byte	.LASF39
 3246 04a7 02       		.byte	0x2
 3247 04a8 8503     		.2byte	0x385
 3248 04aa 83000000 		.4byte	0x83
 3249 04ae 02       		.uleb128 0x2
 3250 04af 91       		.byte	0x91
 3251 04b0 74       		.sleb128 -12
 3252 04b1 00       		.byte	0
 3253 04b2 15       		.uleb128 0x15
 3254 04b3 94060000 		.4byte	.LASF57
 3255 04b7 02       		.byte	0x2
 3256 04b8 9F03     		.2byte	0x39f
 3257 04ba 83000000 		.4byte	0x83
 3258 04be 00000000 		.4byte	.LFB24
 3259 04c2 18000000 		.4byte	.LFE24-.LFB24
 3260 04c6 01       		.uleb128 0x1
 3261 04c7 9C       		.byte	0x9c
 3262 04c8 16       		.uleb128 0x16
 3263 04c9 D9030000 		.4byte	.LASF58
 3264 04cd 02       		.byte	0x2
 3265 04ce B403     		.2byte	0x3b4
 3266 04d0 83000000 		.4byte	0x83
 3267 04d4 00000000 		.4byte	.LFB25
 3268 04d8 40000000 		.4byte	.LFE25-.LFB25
 3269 04dc 01       		.uleb128 0x1
 3270 04dd 9C       		.byte	0x9c
 3271 04de F2040000 		.4byte	0x4f2
 3272 04e2 17       		.uleb128 0x17
 3273 04e3 67000000 		.4byte	.LASF37
 3274 04e7 02       		.byte	0x2
 3275 04e8 B403     		.2byte	0x3b4
 3276 04ea 83000000 		.4byte	0x83
 3277 04ee 02       		.uleb128 0x2
 3278 04ef 91       		.byte	0x91
 3279 04f0 74       		.sleb128 -12
 3280 04f1 00       		.byte	0
 3281 04f2 16       		.uleb128 0x16
 3282 04f3 3E050000 		.4byte	.LASF59
 3283 04f7 02       		.byte	0x2
 3284 04f8 CC03     		.2byte	0x3cc
 3285 04fa 83000000 		.4byte	0x83
 3286 04fe 00000000 		.4byte	.LFB26
 3287 0502 54000000 		.4byte	.LFE26-.LFB26
 3288 0506 01       		.uleb128 0x1
 3289 0507 9C       		.byte	0x9c
 3290 0508 2B050000 		.4byte	0x52b
 3291 050c 17       		.uleb128 0x17
 3292 050d 67000000 		.4byte	.LASF37
ARM GAS  C:\Users\passw\AppData\Local\Temp\ccYGIhwR.s 			page 94


 3293 0511 02       		.byte	0x2
 3294 0512 CC03     		.2byte	0x3cc
 3295 0514 83000000 		.4byte	0x83
 3296 0518 02       		.uleb128 0x2
 3297 0519 91       		.byte	0x91
 3298 051a 6C       		.sleb128 -20
 3299 051b 14       		.uleb128 0x14
 3300 051c C0010000 		.4byte	.LASF54
 3301 0520 02       		.byte	0x2
 3302 0521 CE03     		.2byte	0x3ce
 3303 0523 83000000 		.4byte	0x83
 3304 0527 02       		.uleb128 0x2
 3305 0528 91       		.byte	0x91
 3306 0529 74       		.sleb128 -12
 3307 052a 00       		.byte	0
 3308 052b 15       		.uleb128 0x15
 3309 052c D7040000 		.4byte	.LASF60
 3310 0530 02       		.byte	0x2
 3311 0531 FD03     		.2byte	0x3fd
 3312 0533 83000000 		.4byte	0x83
 3313 0537 00000000 		.4byte	.LFB27
 3314 053b 1C000000 		.4byte	.LFE27-.LFB27
 3315 053f 01       		.uleb128 0x1
 3316 0540 9C       		.byte	0x9c
 3317 0541 13       		.uleb128 0x13
 3318 0542 18040000 		.4byte	.LASF61
 3319 0546 02       		.byte	0x2
 3320 0547 1F04     		.2byte	0x41f
 3321 0549 00000000 		.4byte	.LFB28
 3322 054d 70000000 		.4byte	.LFE28-.LFB28
 3323 0551 01       		.uleb128 0x1
 3324 0552 9C       		.byte	0x9c
 3325 0553 85050000 		.4byte	0x585
 3326 0557 17       		.uleb128 0x17
 3327 0558 6B020000 		.4byte	.LASF45
 3328 055c 02       		.byte	0x2
 3329 055d 1F04     		.2byte	0x41f
 3330 055f 83000000 		.4byte	0x83
 3331 0563 02       		.uleb128 0x2
 3332 0564 91       		.byte	0x91
 3333 0565 64       		.sleb128 -28
 3334 0566 14       		.uleb128 0x14
 3335 0567 79010000 		.4byte	.LASF21
 3336 056b 02       		.byte	0x2
 3337 056c 2104     		.2byte	0x421
 3338 056e 6B000000 		.4byte	0x6b
 3339 0572 02       		.uleb128 0x2
 3340 0573 91       		.byte	0x91
 3341 0574 6B       		.sleb128 -21
 3342 0575 14       		.uleb128 0x14
 3343 0576 BB050000 		.4byte	.LASF62
 3344 057a 02       		.byte	0x2
 3345 057b 2204     		.2byte	0x422
 3346 057d 83000000 		.4byte	0x83
 3347 0581 02       		.uleb128 0x2
 3348 0582 91       		.byte	0x91
 3349 0583 6C       		.sleb128 -20
ARM GAS  C:\Users\passw\AppData\Local\Temp\ccYGIhwR.s 			page 95


 3350 0584 00       		.byte	0
 3351 0585 1A       		.uleb128 0x1a
 3352 0586 02040000 		.4byte	.LASF63
 3353 058a 02       		.byte	0x2
 3354 058b 5F04     		.2byte	0x45f
 3355 058d 00000000 		.4byte	.LFB29
 3356 0591 34000000 		.4byte	.LFE29-.LFB29
 3357 0595 01       		.uleb128 0x1
 3358 0596 9C       		.byte	0x9c
 3359 0597 AB050000 		.4byte	0x5ab
 3360 059b 17       		.uleb128 0x17
 3361 059c ED010000 		.4byte	.LASF64
 3362 05a0 02       		.byte	0x2
 3363 05a1 5F04     		.2byte	0x45f
 3364 05a3 83000000 		.4byte	0x83
 3365 05a7 02       		.uleb128 0x2
 3366 05a8 91       		.byte	0x91
 3367 05a9 74       		.sleb128 -12
 3368 05aa 00       		.byte	0
 3369 05ab 16       		.uleb128 0x16
 3370 05ac 4E020000 		.4byte	.LASF65
 3371 05b0 02       		.byte	0x2
 3372 05b1 7C04     		.2byte	0x47c
 3373 05b3 DC000000 		.4byte	0xdc
 3374 05b7 00000000 		.4byte	.LFB30
 3375 05bb 40000000 		.4byte	.LFE30-.LFB30
 3376 05bf 01       		.uleb128 0x1
 3377 05c0 9C       		.byte	0x9c
 3378 05c1 F3050000 		.4byte	0x5f3
 3379 05c5 17       		.uleb128 0x17
 3380 05c6 67000000 		.4byte	.LASF37
 3381 05ca 02       		.byte	0x2
 3382 05cb 7C04     		.2byte	0x47c
 3383 05cd 83000000 		.4byte	0x83
 3384 05d1 02       		.uleb128 0x2
 3385 05d2 91       		.byte	0x91
 3386 05d3 6C       		.sleb128 -20
 3387 05d4 17       		.uleb128 0x17
 3388 05d5 70010000 		.4byte	.LASF66
 3389 05d9 02       		.byte	0x2
 3390 05da 7C04     		.2byte	0x47c
 3391 05dc DC000000 		.4byte	0xdc
 3392 05e0 02       		.uleb128 0x2
 3393 05e1 91       		.byte	0x91
 3394 05e2 68       		.sleb128 -24
 3395 05e3 14       		.uleb128 0x14
 3396 05e4 01020000 		.4byte	.LASF67
 3397 05e8 02       		.byte	0x2
 3398 05e9 7E04     		.2byte	0x47e
 3399 05eb DC000000 		.4byte	0xdc
 3400 05ef 02       		.uleb128 0x2
 3401 05f0 91       		.byte	0x91
 3402 05f1 74       		.sleb128 -12
 3403 05f2 00       		.byte	0
 3404 05f3 16       		.uleb128 0x16
 3405 05f4 48030000 		.4byte	.LASF68
 3406 05f8 02       		.byte	0x2
ARM GAS  C:\Users\passw\AppData\Local\Temp\ccYGIhwR.s 			page 96


 3407 05f9 9D04     		.2byte	0x49d
 3408 05fb DC000000 		.4byte	0xdc
 3409 05ff 00000000 		.4byte	.LFB31
 3410 0603 34000000 		.4byte	.LFE31-.LFB31
 3411 0607 01       		.uleb128 0x1
 3412 0608 9C       		.byte	0x9c
 3413 0609 2C060000 		.4byte	0x62c
 3414 060d 17       		.uleb128 0x17
 3415 060e 67000000 		.4byte	.LASF37
 3416 0612 02       		.byte	0x2
 3417 0613 9D04     		.2byte	0x49d
 3418 0615 83000000 		.4byte	0x83
 3419 0619 02       		.uleb128 0x2
 3420 061a 91       		.byte	0x91
 3421 061b 6C       		.sleb128 -20
 3422 061c 14       		.uleb128 0x14
 3423 061d BE020000 		.4byte	.LASF69
 3424 0621 02       		.byte	0x2
 3425 0622 9F04     		.2byte	0x49f
 3426 0624 DC000000 		.4byte	0xdc
 3427 0628 02       		.uleb128 0x2
 3428 0629 91       		.byte	0x91
 3429 062a 74       		.sleb128 -12
 3430 062b 00       		.byte	0
 3431 062c 13       		.uleb128 0x13
 3432 062d 03030000 		.4byte	.LASF70
 3433 0631 02       		.byte	0x2
 3434 0632 B904     		.2byte	0x4b9
 3435 0634 00000000 		.4byte	.LFB32
 3436 0638 50000000 		.4byte	.LFE32-.LFB32
 3437 063c 01       		.uleb128 0x1
 3438 063d 9C       		.byte	0x9c
 3439 063e 52060000 		.4byte	0x652
 3440 0642 17       		.uleb128 0x17
 3441 0643 67000000 		.4byte	.LASF37
 3442 0647 02       		.byte	0x2
 3443 0648 B904     		.2byte	0x4b9
 3444 064a 83000000 		.4byte	0x83
 3445 064e 02       		.uleb128 0x2
 3446 064f 91       		.byte	0x91
 3447 0650 74       		.sleb128 -12
 3448 0651 00       		.byte	0
 3449 0652 13       		.uleb128 0x13
 3450 0653 1A050000 		.4byte	.LASF71
 3451 0657 02       		.byte	0x2
 3452 0658 D204     		.2byte	0x4d2
 3453 065a 00000000 		.4byte	.LFB33
 3454 065e 38000000 		.4byte	.LFE33-.LFB33
 3455 0662 01       		.uleb128 0x1
 3456 0663 9C       		.byte	0x9c
 3457 0664 78060000 		.4byte	0x678
 3458 0668 17       		.uleb128 0x17
 3459 0669 67000000 		.4byte	.LASF37
 3460 066d 02       		.byte	0x2
 3461 066e D204     		.2byte	0x4d2
 3462 0670 83000000 		.4byte	0x83
 3463 0674 02       		.uleb128 0x2
ARM GAS  C:\Users\passw\AppData\Local\Temp\ccYGIhwR.s 			page 97


 3464 0675 91       		.byte	0x91
 3465 0676 74       		.sleb128 -12
 3466 0677 00       		.byte	0
 3467 0678 12       		.uleb128 0x12
 3468 0679 65030000 		.4byte	.LASF72
 3469 067d 02       		.byte	0x2
 3470 067e F804     		.2byte	0x4f8
 3471 0680 00000000 		.4byte	.LFB34
 3472 0684 E8000000 		.4byte	.LFE34-.LFB34
 3473 0688 01       		.uleb128 0x1
 3474 0689 9C       		.byte	0x9c
 3475 068a 13       		.uleb128 0x13
 3476 068b 4F040000 		.4byte	.LASF73
 3477 068f 02       		.byte	0x2
 3478 0690 5B05     		.2byte	0x55b
 3479 0692 00000000 		.4byte	.LFB35
 3480 0696 6C000000 		.4byte	.LFE35-.LFB35
 3481 069a 01       		.uleb128 0x1
 3482 069b 9C       		.byte	0x9c
 3483 069c EC060000 		.4byte	0x6ec
 3484 06a0 17       		.uleb128 0x17
 3485 06a1 67000000 		.4byte	.LASF37
 3486 06a5 02       		.byte	0x2
 3487 06a6 5B05     		.2byte	0x55b
 3488 06a8 83000000 		.4byte	0x83
 3489 06ac 02       		.uleb128 0x2
 3490 06ad 91       		.byte	0x91
 3491 06ae 6C       		.sleb128 -20
 3492 06af 17       		.uleb128 0x17
 3493 06b0 AA040000 		.4byte	.LASF74
 3494 06b4 02       		.byte	0x2
 3495 06b5 5B05     		.2byte	0x55b
 3496 06b7 D1000000 		.4byte	0xd1
 3497 06bb 02       		.uleb128 0x2
 3498 06bc 91       		.byte	0x91
 3499 06bd 6B       		.sleb128 -21
 3500 06be 17       		.uleb128 0x17
 3501 06bf 9A040000 		.4byte	.LASF75
 3502 06c3 02       		.byte	0x2
 3503 06c4 5B05     		.2byte	0x55b
 3504 06c6 83000000 		.4byte	0x83
 3505 06ca 02       		.uleb128 0x2
 3506 06cb 91       		.byte	0x91
 3507 06cc 64       		.sleb128 -28
 3508 06cd 14       		.uleb128 0x14
 3509 06ce C0010000 		.4byte	.LASF54
 3510 06d2 02       		.byte	0x2
 3511 06d3 5D05     		.2byte	0x55d
 3512 06d5 83000000 		.4byte	0x83
 3513 06d9 02       		.uleb128 0x2
 3514 06da 91       		.byte	0x91
 3515 06db 74       		.sleb128 -12
 3516 06dc 14       		.uleb128 0x14
 3517 06dd DC020000 		.4byte	.LASF76
 3518 06e1 02       		.byte	0x2
 3519 06e2 5E05     		.2byte	0x55e
 3520 06e4 83000000 		.4byte	0x83
ARM GAS  C:\Users\passw\AppData\Local\Temp\ccYGIhwR.s 			page 98


 3521 06e8 02       		.uleb128 0x2
 3522 06e9 91       		.byte	0x91
 3523 06ea 70       		.sleb128 -16
 3524 06eb 00       		.byte	0
 3525 06ec 13       		.uleb128 0x13
 3526 06ed 35040000 		.4byte	.LASF77
 3527 06f1 02       		.byte	0x2
 3528 06f2 A705     		.2byte	0x5a7
 3529 06f4 00000000 		.4byte	.LFB36
 3530 06f8 AC000000 		.4byte	.LFE36-.LFB36
 3531 06fc 01       		.uleb128 0x1
 3532 06fd 9C       		.byte	0x9c
 3533 06fe 3F070000 		.4byte	0x73f
 3534 0702 17       		.uleb128 0x17
 3535 0703 67000000 		.4byte	.LASF37
 3536 0707 02       		.byte	0x2
 3537 0708 A705     		.2byte	0x5a7
 3538 070a 83000000 		.4byte	0x83
 3539 070e 02       		.uleb128 0x2
 3540 070f 91       		.byte	0x91
 3541 0710 6C       		.sleb128 -20
 3542 0711 17       		.uleb128 0x17
 3543 0712 AA040000 		.4byte	.LASF74
 3544 0716 02       		.byte	0x2
 3545 0717 A705     		.2byte	0x5a7
 3546 0719 D1000000 		.4byte	0xd1
 3547 071d 02       		.uleb128 0x2
 3548 071e 91       		.byte	0x91
 3549 071f 6B       		.sleb128 -21
 3550 0720 17       		.uleb128 0x17
 3551 0721 EA030000 		.4byte	.LASF53
 3552 0725 02       		.byte	0x2
 3553 0726 A705     		.2byte	0x5a7
 3554 0728 83000000 		.4byte	0x83
 3555 072c 02       		.uleb128 0x2
 3556 072d 91       		.byte	0x91
 3557 072e 64       		.sleb128 -28
 3558 072f 14       		.uleb128 0x14
 3559 0730 C0030000 		.4byte	.LASF78
 3560 0734 02       		.byte	0x2
 3561 0735 A905     		.2byte	0x5a9
 3562 0737 83000000 		.4byte	0x83
 3563 073b 02       		.uleb128 0x2
 3564 073c 91       		.byte	0x91
 3565 073d 74       		.sleb128 -12
 3566 073e 00       		.byte	0
 3567 073f 13       		.uleb128 0x13
 3568 0740 55000000 		.4byte	.LASF79
 3569 0744 02       		.byte	0x2
 3570 0745 DC05     		.2byte	0x5dc
 3571 0747 00000000 		.4byte	.LFB37
 3572 074b 88000000 		.4byte	.LFE37-.LFB37
 3573 074f 01       		.uleb128 0x1
 3574 0750 9C       		.byte	0x9c
 3575 0751 65070000 		.4byte	0x765
 3576 0755 17       		.uleb128 0x17
 3577 0756 67000000 		.4byte	.LASF37
ARM GAS  C:\Users\passw\AppData\Local\Temp\ccYGIhwR.s 			page 99


 3578 075a 02       		.byte	0x2
 3579 075b DC05     		.2byte	0x5dc
 3580 075d 83000000 		.4byte	0x83
 3581 0761 02       		.uleb128 0x2
 3582 0762 91       		.byte	0x91
 3583 0763 74       		.sleb128 -12
 3584 0764 00       		.byte	0
 3585 0765 1B       		.uleb128 0x1b
 3586 0766 72000000 		.4byte	.LASF94
 3587 076a 02       		.byte	0x2
 3588 076b 2406     		.2byte	0x624
 3589 076d 00000000 		.4byte	.LFB38
 3590 0771 98000000 		.4byte	.LFE38-.LFB38
 3591 0775 01       		.uleb128 0x1
 3592 0776 9C       		.byte	0x9c
 3593 0777 9D070000 		.4byte	0x79d
 3594 077b 14       		.uleb128 0x14
 3595 077c B3020000 		.4byte	.LASF80
 3596 0780 02       		.byte	0x2
 3597 0781 2606     		.2byte	0x626
 3598 0783 83000000 		.4byte	0x83
 3599 0787 02       		.uleb128 0x2
 3600 0788 91       		.byte	0x91
 3601 0789 74       		.sleb128 -12
 3602 078a 14       		.uleb128 0x14
 3603 078b 7C040000 		.4byte	.LASF81
 3604 078f 02       		.byte	0x2
 3605 0790 2706     		.2byte	0x627
 3606 0792 83000000 		.4byte	0x83
 3607 0796 05       		.uleb128 0x5
 3608 0797 03       		.byte	0x3
 3609 0798 18000000 		.4byte	lfclkPosedgeEnabledWdtCounter.4895
 3610 079c 00       		.byte	0
 3611 079d 1C       		.uleb128 0x1c
 3612 079e E7020000 		.4byte	.LASF83
 3613 07a2 02       		.byte	0x2
 3614 07a3 5F06     		.2byte	0x65f
 3615 07a5 00000000 		.4byte	.LFB39
 3616 07a9 3C000000 		.4byte	.LFE39-.LFB39
 3617 07ad 01       		.uleb128 0x1
 3618 07ae 9C       		.byte	0x9c
 3619 07af 0E       		.uleb128 0xe
 3620 07b0 B6000000 		.4byte	.LASF84
 3621 07b4 02       		.byte	0x2
 3622 07b5 1A       		.byte	0x1a
 3623 07b6 83000000 		.4byte	0x83
 3624 07ba 05       		.uleb128 0x5
 3625 07bb 03       		.byte	0x3
 3626 07bc 00000000 		.4byte	lfclkPosedgeWdtCounter0Enabled
 3627 07c0 0E       		.uleb128 0xe
 3628 07c1 DE050000 		.4byte	.LASF85
 3629 07c5 02       		.byte	0x2
 3630 07c6 1B       		.byte	0x1b
 3631 07c7 83000000 		.4byte	0x83
 3632 07cb 05       		.uleb128 0x5
 3633 07cc 03       		.byte	0x3
 3634 07cd 04000000 		.4byte	lfclkPosedgeWdtCounter0Mode
ARM GAS  C:\Users\passw\AppData\Local\Temp\ccYGIhwR.s 			page 100


 3635 07d1 0E       		.uleb128 0xe
 3636 07d2 5C050000 		.4byte	.LASF86
 3637 07d6 02       		.byte	0x2
 3638 07d7 1D       		.byte	0x1d
 3639 07d8 B0000000 		.4byte	0xb0
 3640 07dc 05       		.uleb128 0x5
 3641 07dd 03       		.byte	0x3
 3642 07de 08000000 		.4byte	disableServicedIsr
 3643 07e2 0E       		.uleb128 0xe
 3644 07e3 34020000 		.4byte	.LASF87
 3645 07e7 02       		.byte	0x2
 3646 07e8 1E       		.byte	0x1e
 3647 07e9 B0000000 		.4byte	0xb0
 3648 07ed 05       		.uleb128 0x5
 3649 07ee 03       		.byte	0x3
 3650 07ef 00000000 		.4byte	wdtIsrMask
 3651 07f3 1D       		.uleb128 0x1d
 3652 07f4 83000000 		.4byte	0x83
 3653 07f8 03080000 		.4byte	0x803
 3654 07fc 1E       		.uleb128 0x1e
 3655 07fd E7000000 		.4byte	0xe7
 3656 0801 02       		.byte	0x2
 3657 0802 00       		.byte	0
 3658 0803 0E       		.uleb128 0xe
 3659 0804 13000000 		.4byte	.LASF88
 3660 0808 02       		.byte	0x2
 3661 0809 22       		.byte	0x22
 3662 080a 14080000 		.4byte	0x814
 3663 080e 05       		.uleb128 0x5
 3664 080f 03       		.byte	0x3
 3665 0810 00000000 		.4byte	counterIntMaskTbl
 3666 0814 1F       		.uleb128 0x1f
 3667 0815 F3070000 		.4byte	0x7f3
 3668 0819 1D       		.uleb128 0x1d
 3669 081a DC000000 		.4byte	0xdc
 3670 081e 29080000 		.4byte	0x829
 3671 0822 1E       		.uleb128 0x1e
 3672 0823 E7000000 		.4byte	0xe7
 3673 0827 02       		.byte	0x2
 3674 0828 00       		.byte	0
 3675 0829 0E       		.uleb128 0xe
 3676 082a 25000000 		.4byte	.LASF89
 3677 082e 02       		.byte	0x2
 3678 082f 2E       		.byte	0x2e
 3679 0830 19080000 		.4byte	0x819
 3680 0834 05       		.uleb128 0x5
 3681 0835 03       		.byte	0x3
 3682 0836 0C000000 		.4byte	cySysWdtCallback
 3683 083a 00       		.byte	0
 3684              		.section	.debug_abbrev,"",%progbits
 3685              	.Ldebug_abbrev0:
 3686 0000 01       		.uleb128 0x1
 3687 0001 11       		.uleb128 0x11
 3688 0002 01       		.byte	0x1
 3689 0003 25       		.uleb128 0x25
 3690 0004 0E       		.uleb128 0xe
 3691 0005 13       		.uleb128 0x13
ARM GAS  C:\Users\passw\AppData\Local\Temp\ccYGIhwR.s 			page 101


 3692 0006 0B       		.uleb128 0xb
 3693 0007 03       		.uleb128 0x3
 3694 0008 0E       		.uleb128 0xe
 3695 0009 1B       		.uleb128 0x1b
 3696 000a 0E       		.uleb128 0xe
 3697 000b 55       		.uleb128 0x55
 3698 000c 17       		.uleb128 0x17
 3699 000d 11       		.uleb128 0x11
 3700 000e 01       		.uleb128 0x1
 3701 000f 10       		.uleb128 0x10
 3702 0010 17       		.uleb128 0x17
 3703 0011 00       		.byte	0
 3704 0012 00       		.byte	0
 3705 0013 02       		.uleb128 0x2
 3706 0014 24       		.uleb128 0x24
 3707 0015 00       		.byte	0
 3708 0016 0B       		.uleb128 0xb
 3709 0017 0B       		.uleb128 0xb
 3710 0018 3E       		.uleb128 0x3e
 3711 0019 0B       		.uleb128 0xb
 3712 001a 03       		.uleb128 0x3
 3713 001b 0E       		.uleb128 0xe
 3714 001c 00       		.byte	0
 3715 001d 00       		.byte	0
 3716 001e 03       		.uleb128 0x3
 3717 001f 24       		.uleb128 0x24
 3718 0020 00       		.byte	0
 3719 0021 0B       		.uleb128 0xb
 3720 0022 0B       		.uleb128 0xb
 3721 0023 3E       		.uleb128 0x3e
 3722 0024 0B       		.uleb128 0xb
 3723 0025 03       		.uleb128 0x3
 3724 0026 08       		.uleb128 0x8
 3725 0027 00       		.byte	0
 3726 0028 00       		.byte	0
 3727 0029 04       		.uleb128 0x4
 3728 002a 16       		.uleb128 0x16
 3729 002b 00       		.byte	0
 3730 002c 03       		.uleb128 0x3
 3731 002d 0E       		.uleb128 0xe
 3732 002e 3A       		.uleb128 0x3a
 3733 002f 0B       		.uleb128 0xb
 3734 0030 3B       		.uleb128 0x3b
 3735 0031 05       		.uleb128 0x5
 3736 0032 49       		.uleb128 0x49
 3737 0033 13       		.uleb128 0x13
 3738 0034 00       		.byte	0
 3739 0035 00       		.byte	0
 3740 0036 05       		.uleb128 0x5
 3741 0037 35       		.uleb128 0x35
 3742 0038 00       		.byte	0
 3743 0039 49       		.uleb128 0x49
 3744 003a 13       		.uleb128 0x13
 3745 003b 00       		.byte	0
 3746 003c 00       		.byte	0
 3747 003d 06       		.uleb128 0x6
 3748 003e 0F       		.uleb128 0xf
ARM GAS  C:\Users\passw\AppData\Local\Temp\ccYGIhwR.s 			page 102


 3749 003f 00       		.byte	0
 3750 0040 0B       		.uleb128 0xb
 3751 0041 0B       		.uleb128 0xb
 3752 0042 49       		.uleb128 0x49
 3753 0043 13       		.uleb128 0x13
 3754 0044 00       		.byte	0
 3755 0045 00       		.byte	0
 3756 0046 07       		.uleb128 0x7
 3757 0047 15       		.uleb128 0x15
 3758 0048 00       		.byte	0
 3759 0049 27       		.uleb128 0x27
 3760 004a 19       		.uleb128 0x19
 3761 004b 00       		.byte	0
 3762 004c 00       		.byte	0
 3763 004d 08       		.uleb128 0x8
 3764 004e 04       		.uleb128 0x4
 3765 004f 01       		.byte	0x1
 3766 0050 0B       		.uleb128 0xb
 3767 0051 0B       		.uleb128 0xb
 3768 0052 3A       		.uleb128 0x3a
 3769 0053 0B       		.uleb128 0xb
 3770 0054 3B       		.uleb128 0x3b
 3771 0055 0B       		.uleb128 0xb
 3772 0056 01       		.uleb128 0x1
 3773 0057 13       		.uleb128 0x13
 3774 0058 00       		.byte	0
 3775 0059 00       		.byte	0
 3776 005a 09       		.uleb128 0x9
 3777 005b 28       		.uleb128 0x28
 3778 005c 00       		.byte	0
 3779 005d 03       		.uleb128 0x3
 3780 005e 0E       		.uleb128 0xe
 3781 005f 1C       		.uleb128 0x1c
 3782 0060 0D       		.uleb128 0xd
 3783 0061 00       		.byte	0
 3784 0062 00       		.byte	0
 3785 0063 0A       		.uleb128 0xa
 3786 0064 16       		.uleb128 0x16
 3787 0065 00       		.byte	0
 3788 0066 03       		.uleb128 0x3
 3789 0067 0E       		.uleb128 0xe
 3790 0068 3A       		.uleb128 0x3a
 3791 0069 0B       		.uleb128 0xb
 3792 006a 3B       		.uleb128 0x3b
 3793 006b 0B       		.uleb128 0xb
 3794 006c 49       		.uleb128 0x49
 3795 006d 13       		.uleb128 0x13
 3796 006e 00       		.byte	0
 3797 006f 00       		.byte	0
 3798 0070 0B       		.uleb128 0xb
 3799 0071 2E       		.uleb128 0x2e
 3800 0072 00       		.byte	0
 3801 0073 03       		.uleb128 0x3
 3802 0074 0E       		.uleb128 0xe
 3803 0075 3A       		.uleb128 0x3a
 3804 0076 0B       		.uleb128 0xb
 3805 0077 3B       		.uleb128 0x3b
ARM GAS  C:\Users\passw\AppData\Local\Temp\ccYGIhwR.s 			page 103


 3806 0078 05       		.uleb128 0x5
 3807 0079 27       		.uleb128 0x27
 3808 007a 19       		.uleb128 0x19
 3809 007b 11       		.uleb128 0x11
 3810 007c 01       		.uleb128 0x1
 3811 007d 12       		.uleb128 0x12
 3812 007e 06       		.uleb128 0x6
 3813 007f 40       		.uleb128 0x40
 3814 0080 18       		.uleb128 0x18
 3815 0081 9742     		.uleb128 0x2117
 3816 0083 19       		.uleb128 0x19
 3817 0084 00       		.byte	0
 3818 0085 00       		.byte	0
 3819 0086 0C       		.uleb128 0xc
 3820 0087 2E       		.uleb128 0x2e
 3821 0088 00       		.byte	0
 3822 0089 3F       		.uleb128 0x3f
 3823 008a 19       		.uleb128 0x19
 3824 008b 03       		.uleb128 0x3
 3825 008c 0E       		.uleb128 0xe
 3826 008d 3A       		.uleb128 0x3a
 3827 008e 0B       		.uleb128 0xb
 3828 008f 3B       		.uleb128 0x3b
 3829 0090 0B       		.uleb128 0xb
 3830 0091 27       		.uleb128 0x27
 3831 0092 19       		.uleb128 0x19
 3832 0093 11       		.uleb128 0x11
 3833 0094 01       		.uleb128 0x1
 3834 0095 12       		.uleb128 0x12
 3835 0096 06       		.uleb128 0x6
 3836 0097 40       		.uleb128 0x40
 3837 0098 18       		.uleb128 0x18
 3838 0099 9742     		.uleb128 0x2117
 3839 009b 19       		.uleb128 0x19
 3840 009c 00       		.byte	0
 3841 009d 00       		.byte	0
 3842 009e 0D       		.uleb128 0xd
 3843 009f 2E       		.uleb128 0x2e
 3844 00a0 01       		.byte	0x1
 3845 00a1 3F       		.uleb128 0x3f
 3846 00a2 19       		.uleb128 0x19
 3847 00a3 03       		.uleb128 0x3
 3848 00a4 0E       		.uleb128 0xe
 3849 00a5 3A       		.uleb128 0x3a
 3850 00a6 0B       		.uleb128 0xb
 3851 00a7 3B       		.uleb128 0x3b
 3852 00a8 0B       		.uleb128 0xb
 3853 00a9 27       		.uleb128 0x27
 3854 00aa 19       		.uleb128 0x19
 3855 00ab 11       		.uleb128 0x11
 3856 00ac 01       		.uleb128 0x1
 3857 00ad 12       		.uleb128 0x12
 3858 00ae 06       		.uleb128 0x6
 3859 00af 40       		.uleb128 0x40
 3860 00b0 18       		.uleb128 0x18
 3861 00b1 9642     		.uleb128 0x2116
 3862 00b3 19       		.uleb128 0x19
ARM GAS  C:\Users\passw\AppData\Local\Temp\ccYGIhwR.s 			page 104


 3863 00b4 01       		.uleb128 0x1
 3864 00b5 13       		.uleb128 0x13
 3865 00b6 00       		.byte	0
 3866 00b7 00       		.byte	0
 3867 00b8 0E       		.uleb128 0xe
 3868 00b9 34       		.uleb128 0x34
 3869 00ba 00       		.byte	0
 3870 00bb 03       		.uleb128 0x3
 3871 00bc 0E       		.uleb128 0xe
 3872 00bd 3A       		.uleb128 0x3a
 3873 00be 0B       		.uleb128 0xb
 3874 00bf 3B       		.uleb128 0x3b
 3875 00c0 0B       		.uleb128 0xb
 3876 00c1 49       		.uleb128 0x49
 3877 00c2 13       		.uleb128 0x13
 3878 00c3 02       		.uleb128 0x2
 3879 00c4 18       		.uleb128 0x18
 3880 00c5 00       		.byte	0
 3881 00c6 00       		.byte	0
 3882 00c7 0F       		.uleb128 0xf
 3883 00c8 2E       		.uleb128 0x2e
 3884 00c9 00       		.byte	0
 3885 00ca 03       		.uleb128 0x3
 3886 00cb 0E       		.uleb128 0xe
 3887 00cc 3A       		.uleb128 0x3a
 3888 00cd 0B       		.uleb128 0xb
 3889 00ce 3B       		.uleb128 0x3b
 3890 00cf 0B       		.uleb128 0xb
 3891 00d0 27       		.uleb128 0x27
 3892 00d1 19       		.uleb128 0x19
 3893 00d2 49       		.uleb128 0x49
 3894 00d3 13       		.uleb128 0x13
 3895 00d4 11       		.uleb128 0x11
 3896 00d5 01       		.uleb128 0x1
 3897 00d6 12       		.uleb128 0x12
 3898 00d7 06       		.uleb128 0x6
 3899 00d8 40       		.uleb128 0x40
 3900 00d9 18       		.uleb128 0x18
 3901 00da 9742     		.uleb128 0x2117
 3902 00dc 19       		.uleb128 0x19
 3903 00dd 00       		.byte	0
 3904 00de 00       		.byte	0
 3905 00df 10       		.uleb128 0x10
 3906 00e0 2E       		.uleb128 0x2e
 3907 00e1 01       		.byte	0x1
 3908 00e2 03       		.uleb128 0x3
 3909 00e3 0E       		.uleb128 0xe
 3910 00e4 3A       		.uleb128 0x3a
 3911 00e5 0B       		.uleb128 0xb
 3912 00e6 3B       		.uleb128 0x3b
 3913 00e7 0B       		.uleb128 0xb
 3914 00e8 27       		.uleb128 0x27
 3915 00e9 19       		.uleb128 0x19
 3916 00ea 49       		.uleb128 0x49
 3917 00eb 13       		.uleb128 0x13
 3918 00ec 11       		.uleb128 0x11
 3919 00ed 01       		.uleb128 0x1
ARM GAS  C:\Users\passw\AppData\Local\Temp\ccYGIhwR.s 			page 105


 3920 00ee 12       		.uleb128 0x12
 3921 00ef 06       		.uleb128 0x6
 3922 00f0 40       		.uleb128 0x40
 3923 00f1 18       		.uleb128 0x18
 3924 00f2 9742     		.uleb128 0x2117
 3925 00f4 19       		.uleb128 0x19
 3926 00f5 01       		.uleb128 0x1
 3927 00f6 13       		.uleb128 0x13
 3928 00f7 00       		.byte	0
 3929 00f8 00       		.byte	0
 3930 00f9 11       		.uleb128 0x11
 3931 00fa 05       		.uleb128 0x5
 3932 00fb 00       		.byte	0
 3933 00fc 03       		.uleb128 0x3
 3934 00fd 0E       		.uleb128 0xe
 3935 00fe 3A       		.uleb128 0x3a
 3936 00ff 0B       		.uleb128 0xb
 3937 0100 3B       		.uleb128 0x3b
 3938 0101 0B       		.uleb128 0xb
 3939 0102 49       		.uleb128 0x49
 3940 0103 13       		.uleb128 0x13
 3941 0104 02       		.uleb128 0x2
 3942 0105 18       		.uleb128 0x18
 3943 0106 00       		.byte	0
 3944 0107 00       		.byte	0
 3945 0108 12       		.uleb128 0x12
 3946 0109 2E       		.uleb128 0x2e
 3947 010a 00       		.byte	0
 3948 010b 3F       		.uleb128 0x3f
 3949 010c 19       		.uleb128 0x19
 3950 010d 03       		.uleb128 0x3
 3951 010e 0E       		.uleb128 0xe
 3952 010f 3A       		.uleb128 0x3a
 3953 0110 0B       		.uleb128 0xb
 3954 0111 3B       		.uleb128 0x3b
 3955 0112 05       		.uleb128 0x5
 3956 0113 27       		.uleb128 0x27
 3957 0114 19       		.uleb128 0x19
 3958 0115 11       		.uleb128 0x11
 3959 0116 01       		.uleb128 0x1
 3960 0117 12       		.uleb128 0x12
 3961 0118 06       		.uleb128 0x6
 3962 0119 40       		.uleb128 0x40
 3963 011a 18       		.uleb128 0x18
 3964 011b 9642     		.uleb128 0x2116
 3965 011d 19       		.uleb128 0x19
 3966 011e 00       		.byte	0
 3967 011f 00       		.byte	0
 3968 0120 13       		.uleb128 0x13
 3969 0121 2E       		.uleb128 0x2e
 3970 0122 01       		.byte	0x1
 3971 0123 3F       		.uleb128 0x3f
 3972 0124 19       		.uleb128 0x19
 3973 0125 03       		.uleb128 0x3
 3974 0126 0E       		.uleb128 0xe
 3975 0127 3A       		.uleb128 0x3a
 3976 0128 0B       		.uleb128 0xb
ARM GAS  C:\Users\passw\AppData\Local\Temp\ccYGIhwR.s 			page 106


 3977 0129 3B       		.uleb128 0x3b
 3978 012a 05       		.uleb128 0x5
 3979 012b 27       		.uleb128 0x27
 3980 012c 19       		.uleb128 0x19
 3981 012d 11       		.uleb128 0x11
 3982 012e 01       		.uleb128 0x1
 3983 012f 12       		.uleb128 0x12
 3984 0130 06       		.uleb128 0x6
 3985 0131 40       		.uleb128 0x40
 3986 0132 18       		.uleb128 0x18
 3987 0133 9642     		.uleb128 0x2116
 3988 0135 19       		.uleb128 0x19
 3989 0136 01       		.uleb128 0x1
 3990 0137 13       		.uleb128 0x13
 3991 0138 00       		.byte	0
 3992 0139 00       		.byte	0
 3993 013a 14       		.uleb128 0x14
 3994 013b 34       		.uleb128 0x34
 3995 013c 00       		.byte	0
 3996 013d 03       		.uleb128 0x3
 3997 013e 0E       		.uleb128 0xe
 3998 013f 3A       		.uleb128 0x3a
 3999 0140 0B       		.uleb128 0xb
 4000 0141 3B       		.uleb128 0x3b
 4001 0142 05       		.uleb128 0x5
 4002 0143 49       		.uleb128 0x49
 4003 0144 13       		.uleb128 0x13
 4004 0145 02       		.uleb128 0x2
 4005 0146 18       		.uleb128 0x18
 4006 0147 00       		.byte	0
 4007 0148 00       		.byte	0
 4008 0149 15       		.uleb128 0x15
 4009 014a 2E       		.uleb128 0x2e
 4010 014b 00       		.byte	0
 4011 014c 3F       		.uleb128 0x3f
 4012 014d 19       		.uleb128 0x19
 4013 014e 03       		.uleb128 0x3
 4014 014f 0E       		.uleb128 0xe
 4015 0150 3A       		.uleb128 0x3a
 4016 0151 0B       		.uleb128 0xb
 4017 0152 3B       		.uleb128 0x3b
 4018 0153 05       		.uleb128 0x5
 4019 0154 27       		.uleb128 0x27
 4020 0155 19       		.uleb128 0x19
 4021 0156 49       		.uleb128 0x49
 4022 0157 13       		.uleb128 0x13
 4023 0158 11       		.uleb128 0x11
 4024 0159 01       		.uleb128 0x1
 4025 015a 12       		.uleb128 0x12
 4026 015b 06       		.uleb128 0x6
 4027 015c 40       		.uleb128 0x40
 4028 015d 18       		.uleb128 0x18
 4029 015e 9742     		.uleb128 0x2117
 4030 0160 19       		.uleb128 0x19
 4031 0161 00       		.byte	0
 4032 0162 00       		.byte	0
 4033 0163 16       		.uleb128 0x16
ARM GAS  C:\Users\passw\AppData\Local\Temp\ccYGIhwR.s 			page 107


 4034 0164 2E       		.uleb128 0x2e
 4035 0165 01       		.byte	0x1
 4036 0166 3F       		.uleb128 0x3f
 4037 0167 19       		.uleb128 0x19
 4038 0168 03       		.uleb128 0x3
 4039 0169 0E       		.uleb128 0xe
 4040 016a 3A       		.uleb128 0x3a
 4041 016b 0B       		.uleb128 0xb
 4042 016c 3B       		.uleb128 0x3b
 4043 016d 05       		.uleb128 0x5
 4044 016e 27       		.uleb128 0x27
 4045 016f 19       		.uleb128 0x19
 4046 0170 49       		.uleb128 0x49
 4047 0171 13       		.uleb128 0x13
 4048 0172 11       		.uleb128 0x11
 4049 0173 01       		.uleb128 0x1
 4050 0174 12       		.uleb128 0x12
 4051 0175 06       		.uleb128 0x6
 4052 0176 40       		.uleb128 0x40
 4053 0177 18       		.uleb128 0x18
 4054 0178 9642     		.uleb128 0x2116
 4055 017a 19       		.uleb128 0x19
 4056 017b 01       		.uleb128 0x1
 4057 017c 13       		.uleb128 0x13
 4058 017d 00       		.byte	0
 4059 017e 00       		.byte	0
 4060 017f 17       		.uleb128 0x17
 4061 0180 05       		.uleb128 0x5
 4062 0181 00       		.byte	0
 4063 0182 03       		.uleb128 0x3
 4064 0183 0E       		.uleb128 0xe
 4065 0184 3A       		.uleb128 0x3a
 4066 0185 0B       		.uleb128 0xb
 4067 0186 3B       		.uleb128 0x3b
 4068 0187 05       		.uleb128 0x5
 4069 0188 49       		.uleb128 0x49
 4070 0189 13       		.uleb128 0x13
 4071 018a 02       		.uleb128 0x2
 4072 018b 18       		.uleb128 0x18
 4073 018c 00       		.byte	0
 4074 018d 00       		.byte	0
 4075 018e 18       		.uleb128 0x18
 4076 018f 2E       		.uleb128 0x2e
 4077 0190 00       		.byte	0
 4078 0191 03       		.uleb128 0x3
 4079 0192 0E       		.uleb128 0xe
 4080 0193 3A       		.uleb128 0x3a
 4081 0194 0B       		.uleb128 0xb
 4082 0195 3B       		.uleb128 0x3b
 4083 0196 05       		.uleb128 0x5
 4084 0197 27       		.uleb128 0x27
 4085 0198 19       		.uleb128 0x19
 4086 0199 49       		.uleb128 0x49
 4087 019a 13       		.uleb128 0x13
 4088 019b 11       		.uleb128 0x11
 4089 019c 01       		.uleb128 0x1
 4090 019d 12       		.uleb128 0x12
ARM GAS  C:\Users\passw\AppData\Local\Temp\ccYGIhwR.s 			page 108


 4091 019e 06       		.uleb128 0x6
 4092 019f 40       		.uleb128 0x40
 4093 01a0 18       		.uleb128 0x18
 4094 01a1 9742     		.uleb128 0x2117
 4095 01a3 19       		.uleb128 0x19
 4096 01a4 00       		.byte	0
 4097 01a5 00       		.byte	0
 4098 01a6 19       		.uleb128 0x19
 4099 01a7 2E       		.uleb128 0x2e
 4100 01a8 01       		.byte	0x1
 4101 01a9 3F       		.uleb128 0x3f
 4102 01aa 19       		.uleb128 0x19
 4103 01ab 03       		.uleb128 0x3
 4104 01ac 0E       		.uleb128 0xe
 4105 01ad 3A       		.uleb128 0x3a
 4106 01ae 0B       		.uleb128 0xb
 4107 01af 3B       		.uleb128 0x3b
 4108 01b0 05       		.uleb128 0x5
 4109 01b1 27       		.uleb128 0x27
 4110 01b2 19       		.uleb128 0x19
 4111 01b3 49       		.uleb128 0x49
 4112 01b4 13       		.uleb128 0x13
 4113 01b5 11       		.uleb128 0x11
 4114 01b6 01       		.uleb128 0x1
 4115 01b7 12       		.uleb128 0x12
 4116 01b8 06       		.uleb128 0x6
 4117 01b9 40       		.uleb128 0x40
 4118 01ba 18       		.uleb128 0x18
 4119 01bb 9742     		.uleb128 0x2117
 4120 01bd 19       		.uleb128 0x19
 4121 01be 01       		.uleb128 0x1
 4122 01bf 13       		.uleb128 0x13
 4123 01c0 00       		.byte	0
 4124 01c1 00       		.byte	0
 4125 01c2 1A       		.uleb128 0x1a
 4126 01c3 2E       		.uleb128 0x2e
 4127 01c4 01       		.byte	0x1
 4128 01c5 3F       		.uleb128 0x3f
 4129 01c6 19       		.uleb128 0x19
 4130 01c7 03       		.uleb128 0x3
 4131 01c8 0E       		.uleb128 0xe
 4132 01c9 3A       		.uleb128 0x3a
 4133 01ca 0B       		.uleb128 0xb
 4134 01cb 3B       		.uleb128 0x3b
 4135 01cc 05       		.uleb128 0x5
 4136 01cd 27       		.uleb128 0x27
 4137 01ce 19       		.uleb128 0x19
 4138 01cf 11       		.uleb128 0x11
 4139 01d0 01       		.uleb128 0x1
 4140 01d1 12       		.uleb128 0x12
 4141 01d2 06       		.uleb128 0x6
 4142 01d3 40       		.uleb128 0x40
 4143 01d4 18       		.uleb128 0x18
 4144 01d5 9742     		.uleb128 0x2117
 4145 01d7 19       		.uleb128 0x19
 4146 01d8 01       		.uleb128 0x1
 4147 01d9 13       		.uleb128 0x13
ARM GAS  C:\Users\passw\AppData\Local\Temp\ccYGIhwR.s 			page 109


 4148 01da 00       		.byte	0
 4149 01db 00       		.byte	0
 4150 01dc 1B       		.uleb128 0x1b
 4151 01dd 2E       		.uleb128 0x2e
 4152 01de 01       		.byte	0x1
 4153 01df 03       		.uleb128 0x3
 4154 01e0 0E       		.uleb128 0xe
 4155 01e1 3A       		.uleb128 0x3a
 4156 01e2 0B       		.uleb128 0xb
 4157 01e3 3B       		.uleb128 0x3b
 4158 01e4 05       		.uleb128 0x5
 4159 01e5 27       		.uleb128 0x27
 4160 01e6 19       		.uleb128 0x19
 4161 01e7 11       		.uleb128 0x11
 4162 01e8 01       		.uleb128 0x1
 4163 01e9 12       		.uleb128 0x12
 4164 01ea 06       		.uleb128 0x6
 4165 01eb 40       		.uleb128 0x40
 4166 01ec 18       		.uleb128 0x18
 4167 01ed 9642     		.uleb128 0x2116
 4168 01ef 19       		.uleb128 0x19
 4169 01f0 01       		.uleb128 0x1
 4170 01f1 13       		.uleb128 0x13
 4171 01f2 00       		.byte	0
 4172 01f3 00       		.byte	0
 4173 01f4 1C       		.uleb128 0x1c
 4174 01f5 2E       		.uleb128 0x2e
 4175 01f6 00       		.byte	0
 4176 01f7 03       		.uleb128 0x3
 4177 01f8 0E       		.uleb128 0xe
 4178 01f9 3A       		.uleb128 0x3a
 4179 01fa 0B       		.uleb128 0xb
 4180 01fb 3B       		.uleb128 0x3b
 4181 01fc 05       		.uleb128 0x5
 4182 01fd 27       		.uleb128 0x27
 4183 01fe 19       		.uleb128 0x19
 4184 01ff 11       		.uleb128 0x11
 4185 0200 01       		.uleb128 0x1
 4186 0201 12       		.uleb128 0x12
 4187 0202 06       		.uleb128 0x6
 4188 0203 40       		.uleb128 0x40
 4189 0204 18       		.uleb128 0x18
 4190 0205 9642     		.uleb128 0x2116
 4191 0207 19       		.uleb128 0x19
 4192 0208 00       		.byte	0
 4193 0209 00       		.byte	0
 4194 020a 1D       		.uleb128 0x1d
 4195 020b 01       		.uleb128 0x1
 4196 020c 01       		.byte	0x1
 4197 020d 49       		.uleb128 0x49
 4198 020e 13       		.uleb128 0x13
 4199 020f 01       		.uleb128 0x1
 4200 0210 13       		.uleb128 0x13
 4201 0211 00       		.byte	0
 4202 0212 00       		.byte	0
 4203 0213 1E       		.uleb128 0x1e
 4204 0214 21       		.uleb128 0x21
ARM GAS  C:\Users\passw\AppData\Local\Temp\ccYGIhwR.s 			page 110


 4205 0215 00       		.byte	0
 4206 0216 49       		.uleb128 0x49
 4207 0217 13       		.uleb128 0x13
 4208 0218 2F       		.uleb128 0x2f
 4209 0219 0B       		.uleb128 0xb
 4210 021a 00       		.byte	0
 4211 021b 00       		.byte	0
 4212 021c 1F       		.uleb128 0x1f
 4213 021d 26       		.uleb128 0x26
 4214 021e 00       		.byte	0
 4215 021f 49       		.uleb128 0x49
 4216 0220 13       		.uleb128 0x13
 4217 0221 00       		.byte	0
 4218 0222 00       		.byte	0
 4219 0223 00       		.byte	0
 4220              		.section	.debug_aranges,"",%progbits
 4221 0000 54010000 		.4byte	0x154
 4222 0004 0200     		.2byte	0x2
 4223 0006 00000000 		.4byte	.Ldebug_info0
 4224 000a 04       		.byte	0x4
 4225 000b 00       		.byte	0
 4226 000c 0000     		.2byte	0
 4227 000e 0000     		.2byte	0
 4228 0010 00000000 		.4byte	.LFB0
 4229 0014 48000000 		.4byte	.LFE0-.LFB0
 4230 0018 00000000 		.4byte	.LFB1
 4231 001c 1C000000 		.4byte	.LFE1-.LFB1
 4232 0020 00000000 		.4byte	.LFB2
 4233 0024 60000000 		.4byte	.LFE2-.LFB2
 4234 0028 00000000 		.4byte	.LFB3
 4235 002c 1C000000 		.4byte	.LFE3-.LFB3
 4236 0030 00000000 		.4byte	.LFB4
 4237 0034 20000000 		.4byte	.LFE4-.LFB4
 4238 0038 00000000 		.4byte	.LFB5
 4239 003c 54000000 		.4byte	.LFE5-.LFB5
 4240 0040 00000000 		.4byte	.LFB6
 4241 0044 20000000 		.4byte	.LFE6-.LFB6
 4242 0048 00000000 		.4byte	.LFB7
 4243 004c 5C000000 		.4byte	.LFE7-.LFB7
 4244 0050 00000000 		.4byte	.LFB8
 4245 0054 1C000000 		.4byte	.LFE8-.LFB8
 4246 0058 00000000 		.4byte	.LFB9
 4247 005c 34000000 		.4byte	.LFE9-.LFB9
 4248 0060 00000000 		.4byte	.LFB10
 4249 0064 34000000 		.4byte	.LFE10-.LFB10
 4250 0068 00000000 		.4byte	.LFB11
 4251 006c 20000000 		.4byte	.LFE11-.LFB11
 4252 0070 00000000 		.4byte	.LFB12
 4253 0074 4C000000 		.4byte	.LFE12-.LFB12
 4254 0078 00000000 		.4byte	.LFB13
 4255 007c 30000000 		.4byte	.LFE13-.LFB13
 4256 0080 00000000 		.4byte	.LFB14
 4257 0084 58000000 		.4byte	.LFE14-.LFB14
 4258 0088 00000000 		.4byte	.LFB15
 4259 008c 24000000 		.4byte	.LFE15-.LFB15
 4260 0090 00000000 		.4byte	.LFB16
 4261 0094 6C000000 		.4byte	.LFE16-.LFB16
ARM GAS  C:\Users\passw\AppData\Local\Temp\ccYGIhwR.s 			page 111


 4262 0098 00000000 		.4byte	.LFB17
 4263 009c 40000000 		.4byte	.LFE17-.LFB17
 4264 00a0 00000000 		.4byte	.LFB18
 4265 00a4 60000000 		.4byte	.LFE18-.LFB18
 4266 00a8 00000000 		.4byte	.LFB19
 4267 00ac 68000000 		.4byte	.LFE19-.LFB19
 4268 00b0 00000000 		.4byte	.LFB20
 4269 00b4 58000000 		.4byte	.LFE20-.LFB20
 4270 00b8 00000000 		.4byte	.LFB21
 4271 00bc 1C000000 		.4byte	.LFE21-.LFB21
 4272 00c0 00000000 		.4byte	.LFB22
 4273 00c4 90000000 		.4byte	.LFE22-.LFB22
 4274 00c8 00000000 		.4byte	.LFB23
 4275 00cc 44000000 		.4byte	.LFE23-.LFB23
 4276 00d0 00000000 		.4byte	.LFB24
 4277 00d4 18000000 		.4byte	.LFE24-.LFB24
 4278 00d8 00000000 		.4byte	.LFB25
 4279 00dc 40000000 		.4byte	.LFE25-.LFB25
 4280 00e0 00000000 		.4byte	.LFB26
 4281 00e4 54000000 		.4byte	.LFE26-.LFB26
 4282 00e8 00000000 		.4byte	.LFB27
 4283 00ec 1C000000 		.4byte	.LFE27-.LFB27
 4284 00f0 00000000 		.4byte	.LFB28
 4285 00f4 70000000 		.4byte	.LFE28-.LFB28
 4286 00f8 00000000 		.4byte	.LFB29
 4287 00fc 34000000 		.4byte	.LFE29-.LFB29
 4288 0100 00000000 		.4byte	.LFB30
 4289 0104 40000000 		.4byte	.LFE30-.LFB30
 4290 0108 00000000 		.4byte	.LFB31
 4291 010c 34000000 		.4byte	.LFE31-.LFB31
 4292 0110 00000000 		.4byte	.LFB32
 4293 0114 50000000 		.4byte	.LFE32-.LFB32
 4294 0118 00000000 		.4byte	.LFB33
 4295 011c 38000000 		.4byte	.LFE33-.LFB33
 4296 0120 00000000 		.4byte	.LFB34
 4297 0124 E8000000 		.4byte	.LFE34-.LFB34
 4298 0128 00000000 		.4byte	.LFB35
 4299 012c 6C000000 		.4byte	.LFE35-.LFB35
 4300 0130 00000000 		.4byte	.LFB36
 4301 0134 AC000000 		.4byte	.LFE36-.LFB36
 4302 0138 00000000 		.4byte	.LFB37
 4303 013c 88000000 		.4byte	.LFE37-.LFB37
 4304 0140 00000000 		.4byte	.LFB38
 4305 0144 98000000 		.4byte	.LFE38-.LFB38
 4306 0148 00000000 		.4byte	.LFB39
 4307 014c 3C000000 		.4byte	.LFE39-.LFB39
 4308 0150 00000000 		.4byte	0
 4309 0154 00000000 		.4byte	0
 4310              		.section	.debug_ranges,"",%progbits
 4311              	.Ldebug_ranges0:
 4312 0000 00000000 		.4byte	.LFB0
 4313 0004 48000000 		.4byte	.LFE0
 4314 0008 00000000 		.4byte	.LFB1
 4315 000c 1C000000 		.4byte	.LFE1
 4316 0010 00000000 		.4byte	.LFB2
 4317 0014 60000000 		.4byte	.LFE2
 4318 0018 00000000 		.4byte	.LFB3
ARM GAS  C:\Users\passw\AppData\Local\Temp\ccYGIhwR.s 			page 112


 4319 001c 1C000000 		.4byte	.LFE3
 4320 0020 00000000 		.4byte	.LFB4
 4321 0024 20000000 		.4byte	.LFE4
 4322 0028 00000000 		.4byte	.LFB5
 4323 002c 54000000 		.4byte	.LFE5
 4324 0030 00000000 		.4byte	.LFB6
 4325 0034 20000000 		.4byte	.LFE6
 4326 0038 00000000 		.4byte	.LFB7
 4327 003c 5C000000 		.4byte	.LFE7
 4328 0040 00000000 		.4byte	.LFB8
 4329 0044 1C000000 		.4byte	.LFE8
 4330 0048 00000000 		.4byte	.LFB9
 4331 004c 34000000 		.4byte	.LFE9
 4332 0050 00000000 		.4byte	.LFB10
 4333 0054 34000000 		.4byte	.LFE10
 4334 0058 00000000 		.4byte	.LFB11
 4335 005c 20000000 		.4byte	.LFE11
 4336 0060 00000000 		.4byte	.LFB12
 4337 0064 4C000000 		.4byte	.LFE12
 4338 0068 00000000 		.4byte	.LFB13
 4339 006c 30000000 		.4byte	.LFE13
 4340 0070 00000000 		.4byte	.LFB14
 4341 0074 58000000 		.4byte	.LFE14
 4342 0078 00000000 		.4byte	.LFB15
 4343 007c 24000000 		.4byte	.LFE15
 4344 0080 00000000 		.4byte	.LFB16
 4345 0084 6C000000 		.4byte	.LFE16
 4346 0088 00000000 		.4byte	.LFB17
 4347 008c 40000000 		.4byte	.LFE17
 4348 0090 00000000 		.4byte	.LFB18
 4349 0094 60000000 		.4byte	.LFE18
 4350 0098 00000000 		.4byte	.LFB19
 4351 009c 68000000 		.4byte	.LFE19
 4352 00a0 00000000 		.4byte	.LFB20
 4353 00a4 58000000 		.4byte	.LFE20
 4354 00a8 00000000 		.4byte	.LFB21
 4355 00ac 1C000000 		.4byte	.LFE21
 4356 00b0 00000000 		.4byte	.LFB22
 4357 00b4 90000000 		.4byte	.LFE22
 4358 00b8 00000000 		.4byte	.LFB23
 4359 00bc 44000000 		.4byte	.LFE23
 4360 00c0 00000000 		.4byte	.LFB24
 4361 00c4 18000000 		.4byte	.LFE24
 4362 00c8 00000000 		.4byte	.LFB25
 4363 00cc 40000000 		.4byte	.LFE25
 4364 00d0 00000000 		.4byte	.LFB26
 4365 00d4 54000000 		.4byte	.LFE26
 4366 00d8 00000000 		.4byte	.LFB27
 4367 00dc 1C000000 		.4byte	.LFE27
 4368 00e0 00000000 		.4byte	.LFB28
 4369 00e4 70000000 		.4byte	.LFE28
 4370 00e8 00000000 		.4byte	.LFB29
 4371 00ec 34000000 		.4byte	.LFE29
 4372 00f0 00000000 		.4byte	.LFB30
 4373 00f4 40000000 		.4byte	.LFE30
 4374 00f8 00000000 		.4byte	.LFB31
 4375 00fc 34000000 		.4byte	.LFE31
ARM GAS  C:\Users\passw\AppData\Local\Temp\ccYGIhwR.s 			page 113


 4376 0100 00000000 		.4byte	.LFB32
 4377 0104 50000000 		.4byte	.LFE32
 4378 0108 00000000 		.4byte	.LFB33
 4379 010c 38000000 		.4byte	.LFE33
 4380 0110 00000000 		.4byte	.LFB34
 4381 0114 E8000000 		.4byte	.LFE34
 4382 0118 00000000 		.4byte	.LFB35
 4383 011c 6C000000 		.4byte	.LFE35
 4384 0120 00000000 		.4byte	.LFB36
 4385 0124 AC000000 		.4byte	.LFE36
 4386 0128 00000000 		.4byte	.LFB37
 4387 012c 88000000 		.4byte	.LFE37
 4388 0130 00000000 		.4byte	.LFB38
 4389 0134 98000000 		.4byte	.LFE38
 4390 0138 00000000 		.4byte	.LFB39
 4391 013c 3C000000 		.4byte	.LFE39
 4392 0140 00000000 		.4byte	0
 4393 0144 00000000 		.4byte	0
 4394              		.section	.debug_line,"",%progbits
 4395              	.Ldebug_line0:
 4396 0000 90050000 		.section	.debug_str,"MS",%progbits,1
 4396      02005300 
 4396      00000201 
 4396      FB0E0D00 
 4396      01010101 
 4397              	.LASF10:
 4398 0000 75696E74 		.ascii	"uint16\000"
 4398      313600
 4399              	.LASF22:
 4400 0007 6C66636C 		.ascii	"lfclkSource\000"
 4400      6B536F75 
 4400      72636500 
 4401              	.LASF88:
 4402 0013 636F756E 		.ascii	"counterIntMaskTbl\000"
 4402      74657249 
 4402      6E744D61 
 4402      736B5462 
 4402      6C00
 4403              	.LASF89:
 4404 0025 63795379 		.ascii	"cySysWdtCallback\000"
 4404      73576474 
 4404      43616C6C 
 4404      6261636B 
 4404      00
 4405              	.LASF38:
 4406 0036 43795379 		.ascii	"CySysWdtSetMode\000"
 4406      73576474 
 4406      5365744D 
 4406      6F646500 
 4407              	.LASF34:
 4408 0046 43795379 		.ascii	"CySysWdtUnlock\000"
 4408      73576474 
 4408      556E6C6F 
 4408      636B00
 4409              	.LASF79:
 4410 0055 43795379 		.ascii	"CySysWatchdogFeed\000"
 4410      73576174 
ARM GAS  C:\Users\passw\AppData\Local\Temp\ccYGIhwR.s 			page 114


 4410      6368646F 
 4410      67466565 
 4410      6400
 4411              	.LASF37:
 4412 0067 636F756E 		.ascii	"counterNum\000"
 4412      7465724E 
 4412      756D00
 4413              	.LASF94:
 4414 0072 43795379 		.ascii	"CySysClkLfclkPosedgeCatch\000"
 4414      73436C6B 
 4414      4C66636C 
 4414      6B506F73 
 4414      65646765 
 4415              	.LASF51:
 4416 008c 43795379 		.ascii	"CySysWdtGetCascade\000"
 4416      73576474 
 4416      47657443 
 4416      61736361 
 4416      646500
 4417              	.LASF93:
 4418 009f 43795379 		.ascii	"CySysClkGetLfclkSource\000"
 4418      73436C6B 
 4418      4765744C 
 4418      66636C6B 
 4418      536F7572 
 4419              	.LASF84:
 4420 00b6 6C66636C 		.ascii	"lfclkPosedgeWdtCounter0Enabled\000"
 4420      6B506F73 
 4420      65646765 
 4420      57647443 
 4420      6F756E74 
 4421              	.LASF7:
 4422 00d5 6C6F6E67 		.ascii	"long long unsigned int\000"
 4422      206C6F6E 
 4422      6720756E 
 4422      7369676E 
 4422      65642069 
 4423              	.LASF92:
 4424 00ec 433A5C55 		.ascii	"C:\\Users\\passw\\OneDrive\\Documents\\PSoC\\HWSW 9"
 4424      73657273 
 4424      5C706173 
 4424      73775C4F 
 4424      6E654472 
 4425 0119 5C485753 		.ascii	"\\HWSW 9.cydsn\000"
 4425      5720392E 
 4425      63796473 
 4425      6E00
 4426              	.LASF50:
 4427 0127 43795379 		.ascii	"CySysClkWcoEnabled\000"
 4427      73436C6B 
 4427      57636F45 
 4427      6E61626C 
 4427      656400
 4428              	.LASF82:
 4429 013a 43795379 		.ascii	"CySysClkWcoSetHighPowerMode\000"
 4429      73436C6B 
 4429      57636F53 
ARM GAS  C:\Users\passw\AppData\Local\Temp\ccYGIhwR.s 			page 115


 4429      65744869 
 4429      6768506F 
 4430              	.LASF6:
 4431 0156 6C6F6E67 		.ascii	"long long int\000"
 4431      206C6F6E 
 4431      6720696E 
 4431      7400
 4432              	.LASF0:
 4433 0164 7369676E 		.ascii	"signed char\000"
 4433      65642063 
 4433      68617200 
 4434              	.LASF66:
 4435 0170 66756E63 		.ascii	"function\000"
 4435      74696F6E 
 4435      00
 4436              	.LASF21:
 4437 0179 696E7465 		.ascii	"interruptState\000"
 4437      72727570 
 4437      74537461 
 4437      746500
 4438              	.LASF19:
 4439 0188 63795764 		.ascii	"cyWdtCallback\000"
 4439      7443616C 
 4439      6C626163 
 4439      6B00
 4440              	.LASF18:
 4441 0196 63795F73 		.ascii	"cy_sys_timer_delaytype_enum\000"
 4441      79735F74 
 4441      696D6572 
 4441      5F64656C 
 4441      61797479 
 4442              	.LASF56:
 4443 01b2 62697473 		.ascii	"bits\000"
 4443      00
 4444              	.LASF4:
 4445 01b7 6C6F6E67 		.ascii	"long int\000"
 4445      20696E74 
 4445      00
 4446              	.LASF54:
 4447 01c0 72656756 		.ascii	"regValue\000"
 4447      616C7565 
 4447      00
 4448              	.LASF9:
 4449 01c9 75696E74 		.ascii	"uint8\000"
 4449      3800
 4450              	.LASF42:
 4451 01cf 656E6162 		.ascii	"enable\000"
 4451      6C6500
 4452              	.LASF13:
 4453 01d6 646F7562 		.ascii	"double\000"
 4453      6C6500
 4454              	.LASF23:
 4455 01dd 43795379 		.ascii	"CySysClkIloStop\000"
 4455      73436C6B 
 4455      496C6F53 
 4455      746F7000 
 4456              	.LASF64:
ARM GAS  C:\Users\passw\AppData\Local\Temp\ccYGIhwR.s 			page 116


 4457 01ed 636F756E 		.ascii	"countersMask\000"
 4457      74657273 
 4457      4D61736B 
 4457      00
 4458              	.LASF11:
 4459 01fa 75696E74 		.ascii	"uint32\000"
 4459      333200
 4460              	.LASF67:
 4461 0201 70726576 		.ascii	"prevCallback\000"
 4461      43616C6C 
 4461      6261636B 
 4461      00
 4462              	.LASF52:
 4463 020e 43795379 		.ascii	"CySysWdtSetMatch\000"
 4463      73576474 
 4463      5365744D 
 4463      61746368 
 4463      00
 4464              	.LASF49:
 4465 021f 636F756E 		.ascii	"countersEnableStatus\000"
 4465      74657273 
 4465      456E6162 
 4465      6C655374 
 4465      61747573 
 4466              	.LASF87:
 4467 0234 77647449 		.ascii	"wdtIsrMask\000"
 4467      73724D61 
 4467      736B00
 4468              	.LASF44:
 4469 023f 43795379 		.ascii	"CySysWdtEnable\000"
 4469      73576474 
 4469      456E6162 
 4469      6C6500
 4470              	.LASF65:
 4471 024e 43795379 		.ascii	"CySysWdtSetInterruptCallback\000"
 4471      73576474 
 4471      53657449 
 4471      6E746572 
 4471      72757074 
 4472              	.LASF45:
 4473 026b 636F756E 		.ascii	"counterMask\000"
 4473      7465724D 
 4473      61736B00 
 4474              	.LASF43:
 4475 0277 43795379 		.ascii	"CySysWdtGetClearOnMatch\000"
 4475      73576474 
 4475      47657443 
 4475      6C656172 
 4475      4F6E4D61 
 4476              	.LASF8:
 4477 028f 756E7369 		.ascii	"unsigned int\000"
 4477      676E6564 
 4477      20696E74 
 4477      00
 4478              	.LASF24:
 4479 029c 43795379 		.ascii	"CySysClkSetLfclkSource\000"
 4479      73436C6B 
ARM GAS  C:\Users\passw\AppData\Local\Temp\ccYGIhwR.s 			page 117


 4479      5365744C 
 4479      66636C6B 
 4479      536F7572 
 4480              	.LASF80:
 4481 02b3 66697273 		.ascii	"firstCount\000"
 4481      74436F75 
 4481      6E7400
 4482              	.LASF69:
 4483 02be 72657443 		.ascii	"retCallback\000"
 4483      616C6C62 
 4483      61636B00 
 4484              	.LASF5:
 4485 02ca 6C6F6E67 		.ascii	"long unsigned int\000"
 4485      20756E73 
 4485      69676E65 
 4485      6420696E 
 4485      7400
 4486              	.LASF76:
 4487 02dc 6D617463 		.ascii	"matchValue\000"
 4487      6856616C 
 4487      756500
 4488              	.LASF83:
 4489 02e7 43795379 		.ascii	"CySysClkLfclkPosedgeRestore\000"
 4489      73436C6B 
 4489      4C66636C 
 4489      6B506F73 
 4489      65646765 
 4490              	.LASF70:
 4491 0303 43795379 		.ascii	"CySysWdtEnableCounterIsr\000"
 4491      73576474 
 4491      456E6162 
 4491      6C65436F 
 4491      756E7465 
 4492              	.LASF3:
 4493 031c 73686F72 		.ascii	"short unsigned int\000"
 4493      7420756E 
 4493      7369676E 
 4493      65642069 
 4493      6E7400
 4494              	.LASF36:
 4495 032f 43795379 		.ascii	"CySysWdtGetEnabledStatus\000"
 4495      73576474 
 4495      47657445 
 4495      6E61626C 
 4495      65645374 
 4496              	.LASF68:
 4497 0348 43795379 		.ascii	"CySysWdtGetInterruptCallback\000"
 4497      73576474 
 4497      47657449 
 4497      6E746572 
 4497      72757074 
 4498              	.LASF72:
 4499 0365 43795379 		.ascii	"CySysWdtIsr\000"
 4499      73576474 
 4499      49737200 
 4500              	.LASF25:
 4501 0371 43795379 		.ascii	"CySysClkIloStart\000"
ARM GAS  C:\Users\passw\AppData\Local\Temp\ccYGIhwR.s 			page 118


 4501      73436C6B 
 4501      496C6F53 
 4501      74617274 
 4501      00
 4502              	.LASF55:
 4503 0382 43795379 		.ascii	"CySysWdtSetToggleBit\000"
 4503      73576474 
 4503      53657454 
 4503      6F67676C 
 4503      65426974 
 4504              	.LASF91:
 4505 0397 2E5C4765 		.ascii	".\\Generated_Source\\PSoC4\\CyLFClk.c\000"
 4505      6E657261 
 4505      7465645F 
 4505      536F7572 
 4505      63655C50 
 4506              	.LASF15:
 4507 03ba 72656733 		.ascii	"reg32\000"
 4507      3200
 4508              	.LASF78:
 4509 03c0 746D7056 		.ascii	"tmpValue\000"
 4509      616C7565 
 4509      00
 4510              	.LASF28:
 4511 03c9 736F7572 		.ascii	"source\000"
 4511      636500
 4512              	.LASF20:
 4513 03d0 73697A65 		.ascii	"sizetype\000"
 4513      74797065 
 4513      00
 4514              	.LASF58:
 4515 03d9 43795379 		.ascii	"CySysWdtGetMatch\000"
 4515      73576474 
 4515      4765744D 
 4515      61746368 
 4515      00
 4516              	.LASF53:
 4517 03ea 6D617463 		.ascii	"match\000"
 4517      6800
 4518              	.LASF16:
 4519 03f0 43595F53 		.ascii	"CY_SYS_TIMER_WAIT\000"
 4519      59535F54 
 4519      494D4552 
 4519      5F574149 
 4519      5400
 4520              	.LASF63:
 4521 0402 43795379 		.ascii	"CySysWdtResetCounters\000"
 4521      73576474 
 4521      52657365 
 4521      74436F75 
 4521      6E746572 
 4522              	.LASF61:
 4523 0418 43795379 		.ascii	"CySysWdtClearInterrupt\000"
 4523      73576474 
 4523      436C6561 
 4523      72496E74 
 4523      65727275 
ARM GAS  C:\Users\passw\AppData\Local\Temp\ccYGIhwR.s 			page 119


 4524              	.LASF12:
 4525 042f 666C6F61 		.ascii	"float\000"
 4525      7400
 4526              	.LASF77:
 4527 0435 43795379 		.ascii	"CySysTimerDelayUntilMatch\000"
 4527      7354696D 
 4527      65724465 
 4527      6C617955 
 4527      6E74696C 
 4528              	.LASF73:
 4529 044f 43795379 		.ascii	"CySysTimerDelay\000"
 4529      7354696D 
 4529      65724465 
 4529      6C617900 
 4530              	.LASF33:
 4531 045f 43795379 		.ascii	"CySysWdtLocked\000"
 4531      73576474 
 4531      4C6F636B 
 4531      656400
 4532              	.LASF1:
 4533 046e 756E7369 		.ascii	"unsigned char\000"
 4533      676E6564 
 4533      20636861 
 4533      7200
 4534              	.LASF81:
 4535 047c 6C66636C 		.ascii	"lfclkPosedgeEnabledWdtCounter\000"
 4535      6B506F73 
 4535      65646765 
 4535      456E6162 
 4535      6C656457 
 4536              	.LASF75:
 4537 049a 64656C61 		.ascii	"delay\000"
 4537      7900
 4538              	.LASF2:
 4539 04a0 73686F72 		.ascii	"short int\000"
 4539      7420696E 
 4539      7400
 4540              	.LASF74:
 4541 04aa 64656C61 		.ascii	"delayType\000"
 4541      79547970 
 4541      6500
 4542              	.LASF46:
 4543 04b4 43795379 		.ascii	"CySysWdtDisable\000"
 4543      73576474 
 4543      44697361 
 4543      626C6500 
 4544              	.LASF32:
 4545 04c4 43795379 		.ascii	"CySysClkIloEnabled\000"
 4545      73436C6B 
 4545      496C6F45 
 4545      6E61626C 
 4545      656400
 4546              	.LASF60:
 4547 04d7 43795379 		.ascii	"CySysWdtGetInterruptSource\000"
 4547      73576474 
 4547      47657449 
 4547      6E746572 
ARM GAS  C:\Users\passw\AppData\Local\Temp\ccYGIhwR.s 			page 120


 4547      72757074 
 4548              	.LASF27:
 4549 04f2 43795379 		.ascii	"CySysClkWcoStop\000"
 4549      73436C6B 
 4549      57636F53 
 4549      746F7000 
 4550              	.LASF35:
 4551 0502 43795379 		.ascii	"CySysClkWcoSetPowerMode\000"
 4551      73436C6B 
 4551      57636F53 
 4551      6574506F 
 4551      7765724D 
 4552              	.LASF71:
 4553 051a 43795379 		.ascii	"CySysWdtDisableCounterIsr\000"
 4553      73576474 
 4553      44697361 
 4553      626C6543 
 4553      6F756E74 
 4554              	.LASF14:
 4555 0534 63686172 		.ascii	"char\000"
 4555      00
 4556              	.LASF29:
 4557 0539 6D6F6465 		.ascii	"mode\000"
 4557      00
 4558              	.LASF59:
 4559 053e 43795379 		.ascii	"CySysWdtGetCount\000"
 4559      73576474 
 4559      47657443 
 4559      6F756E74 
 4559      00
 4560              	.LASF31:
 4561 054f 43795379 		.ascii	"CySysWdtLock\000"
 4561      73576474 
 4561      4C6F636B 
 4561      00
 4562              	.LASF86:
 4563 055c 64697361 		.ascii	"disableServicedIsr\000"
 4563      626C6553 
 4563      65727669 
 4563      63656449 
 4563      737200
 4564              	.LASF41:
 4565 056f 43795379 		.ascii	"CySysWdtSetClearOnMatch\000"
 4565      73576474 
 4565      53657443 
 4565      6C656172 
 4565      4F6E4D61 
 4566              	.LASF47:
 4567 0587 43795379 		.ascii	"CySysWdtSetCascade\000"
 4567      73576474 
 4567      53657443 
 4567      61736361 
 4567      646500
 4568              	.LASF40:
 4569 059a 43795379 		.ascii	"CySysWdtGetMode\000"
 4569      73576474 
 4569      4765744D 
ARM GAS  C:\Users\passw\AppData\Local\Temp\ccYGIhwR.s 			page 121


 4569      6F646500 
 4570              	.LASF26:
 4571 05aa 43795379 		.ascii	"CySysClkWcoStart\000"
 4571      73436C6B 
 4571      57636F53 
 4571      74617274 
 4571      00
 4572              	.LASF62:
 4573 05bb 7764744C 		.ascii	"wdtLockState\000"
 4573      6F636B53 
 4573      74617465 
 4573      00
 4574              	.LASF30:
 4575 05c8 73746174 		.ascii	"status\000"
 4575      757300
 4576              	.LASF39:
 4577 05cf 636F6E66 		.ascii	"configRegValue\000"
 4577      69675265 
 4577      6756616C 
 4577      756500
 4578              	.LASF85:
 4579 05de 6C66636C 		.ascii	"lfclkPosedgeWdtCounter0Mode\000"
 4579      6B506F73 
 4579      65646765 
 4579      57647443 
 4579      6F756E74 
 4580              	.LASF48:
 4581 05fa 63617363 		.ascii	"cascadeMask\000"
 4581      6164654D 
 4581      61736B00 
 4582              	.LASF90:
 4583 0606 474E5520 		.ascii	"GNU C 4.9.3 20150303 (release) [ARM/embedded-4_9-br"
 4583      4320342E 
 4583      392E3320 
 4583      32303135 
 4583      30333033 
 4584 0639 616E6368 		.ascii	"anch revision 221220] -mcpu=cortex-m0 -mthumb -g -O"
 4584      20726576 
 4584      6973696F 
 4584      6E203232 
 4584      31323230 
 4585 066c 30202D66 		.ascii	"0 -ffunction-sections -ffat-lto-objects\000"
 4585      66756E63 
 4585      74696F6E 
 4585      2D736563 
 4585      74696F6E 
 4586              	.LASF57:
 4587 0694 43795379 		.ascii	"CySysWdtGetToggleBit\000"
 4587      73576474 
 4587      47657454 
 4587      6F67676C 
 4587      65426974 
 4588              	.LASF17:
 4589 06a9 43595F53 		.ascii	"CY_SYS_TIMER_INTERRUPT\000"
 4589      59535F54 
 4589      494D4552 
 4589      5F494E54 
ARM GAS  C:\Users\passw\AppData\Local\Temp\ccYGIhwR.s 			page 122


 4589      45525255 
 4590              		.ident	"GCC: (GNU Tools for ARM Embedded Processors) 4.9.3 20150303 (release) [ARM/embedded-4_9-br
