ARM GAS  C:\Users\passw\AppData\Local\Temp\ccAKcy8H.s 			page 1


   1              		.cpu cortex-m0
   2              		.fpu softvfp
   3              		.eabi_attribute 20, 1
   4              		.eabi_attribute 21, 1
   5              		.eabi_attribute 23, 3
   6              		.eabi_attribute 24, 1
   7              		.eabi_attribute 25, 1
   8              		.eabi_attribute 26, 1
   9              		.eabi_attribute 30, 6
  10              		.eabi_attribute 34, 0
  11              		.eabi_attribute 18, 4
  12              		.code	16
  13              		.file	"UART_UART.c"
  14              		.text
  15              	.Ltext0:
  16              		.cfi_sections	.debug_frame
  17              		.section	.text.UART_UartInit,"ax",%progbits
  18              		.align	2
  19              		.global	UART_UartInit
  20              		.code	16
  21              		.thumb_func
  22              		.type	UART_UartInit, %function
  23              	UART_UartInit:
  24              	.LFB1:
  25              		.file 1 ".\\Generated_Source\\PSoC4\\UART_UART.c"
   1:.\Generated_Source\PSoC4/UART_UART.c **** /*******************************************************************************
   2:.\Generated_Source\PSoC4/UART_UART.c **** * File Name: UART_UART.c
   3:.\Generated_Source\PSoC4/UART_UART.c **** * Version 3.10
   4:.\Generated_Source\PSoC4/UART_UART.c **** *
   5:.\Generated_Source\PSoC4/UART_UART.c **** * Description:
   6:.\Generated_Source\PSoC4/UART_UART.c **** *  This file provides the source code to the API for the SCB Component in
   7:.\Generated_Source\PSoC4/UART_UART.c **** *  UART mode.
   8:.\Generated_Source\PSoC4/UART_UART.c **** *
   9:.\Generated_Source\PSoC4/UART_UART.c **** * Note:
  10:.\Generated_Source\PSoC4/UART_UART.c **** *
  11:.\Generated_Source\PSoC4/UART_UART.c **** *******************************************************************************
  12:.\Generated_Source\PSoC4/UART_UART.c **** * Copyright 2013-2015, Cypress Semiconductor Corporation.  All rights reserved.
  13:.\Generated_Source\PSoC4/UART_UART.c **** * You may use this file only in accordance with the license, terms, conditions,
  14:.\Generated_Source\PSoC4/UART_UART.c **** * disclaimers, and limitations in the end user license agreement accompanying
  15:.\Generated_Source\PSoC4/UART_UART.c **** * the software package with which this file was provided.
  16:.\Generated_Source\PSoC4/UART_UART.c **** *******************************************************************************/
  17:.\Generated_Source\PSoC4/UART_UART.c **** 
  18:.\Generated_Source\PSoC4/UART_UART.c **** #include "UART_PVT.h"
  19:.\Generated_Source\PSoC4/UART_UART.c **** #include "UART_SPI_UART_PVT.h"
  20:.\Generated_Source\PSoC4/UART_UART.c **** #include "cyapicallbacks.h"
  21:.\Generated_Source\PSoC4/UART_UART.c **** 
  22:.\Generated_Source\PSoC4/UART_UART.c **** #if(UART_SCB_MODE_UNCONFIG_CONST_CFG)
  23:.\Generated_Source\PSoC4/UART_UART.c **** 
  24:.\Generated_Source\PSoC4/UART_UART.c ****     /***************************************
  25:.\Generated_Source\PSoC4/UART_UART.c ****     *  Configuration Structure Initialization
  26:.\Generated_Source\PSoC4/UART_UART.c ****     ***************************************/
  27:.\Generated_Source\PSoC4/UART_UART.c **** 
  28:.\Generated_Source\PSoC4/UART_UART.c ****     const UART_UART_INIT_STRUCT UART_configUart =
  29:.\Generated_Source\PSoC4/UART_UART.c ****     {
  30:.\Generated_Source\PSoC4/UART_UART.c ****         UART_UART_SUB_MODE,
  31:.\Generated_Source\PSoC4/UART_UART.c ****         UART_UART_DIRECTION,
  32:.\Generated_Source\PSoC4/UART_UART.c ****         UART_UART_DATA_BITS_NUM,
ARM GAS  C:\Users\passw\AppData\Local\Temp\ccAKcy8H.s 			page 2


  33:.\Generated_Source\PSoC4/UART_UART.c ****         UART_UART_PARITY_TYPE,
  34:.\Generated_Source\PSoC4/UART_UART.c ****         UART_UART_STOP_BITS_NUM,
  35:.\Generated_Source\PSoC4/UART_UART.c ****         UART_UART_OVS_FACTOR,
  36:.\Generated_Source\PSoC4/UART_UART.c ****         UART_UART_IRDA_LOW_POWER,
  37:.\Generated_Source\PSoC4/UART_UART.c ****         UART_UART_MEDIAN_FILTER_ENABLE,
  38:.\Generated_Source\PSoC4/UART_UART.c ****         UART_UART_RETRY_ON_NACK,
  39:.\Generated_Source\PSoC4/UART_UART.c ****         UART_UART_IRDA_POLARITY,
  40:.\Generated_Source\PSoC4/UART_UART.c ****         UART_UART_DROP_ON_PARITY_ERR,
  41:.\Generated_Source\PSoC4/UART_UART.c ****         UART_UART_DROP_ON_FRAME_ERR,
  42:.\Generated_Source\PSoC4/UART_UART.c ****         UART_UART_WAKE_ENABLE,
  43:.\Generated_Source\PSoC4/UART_UART.c ****         0u,
  44:.\Generated_Source\PSoC4/UART_UART.c ****         NULL,
  45:.\Generated_Source\PSoC4/UART_UART.c ****         0u,
  46:.\Generated_Source\PSoC4/UART_UART.c ****         NULL,
  47:.\Generated_Source\PSoC4/UART_UART.c ****         UART_UART_MP_MODE_ENABLE,
  48:.\Generated_Source\PSoC4/UART_UART.c ****         UART_UART_MP_ACCEPT_ADDRESS,
  49:.\Generated_Source\PSoC4/UART_UART.c ****         UART_UART_MP_RX_ADDRESS,
  50:.\Generated_Source\PSoC4/UART_UART.c ****         UART_UART_MP_RX_ADDRESS_MASK,
  51:.\Generated_Source\PSoC4/UART_UART.c ****         (uint32) UART_SCB_IRQ_INTERNAL,
  52:.\Generated_Source\PSoC4/UART_UART.c ****         UART_UART_INTR_RX_MASK,
  53:.\Generated_Source\PSoC4/UART_UART.c ****         UART_UART_RX_TRIGGER_LEVEL,
  54:.\Generated_Source\PSoC4/UART_UART.c ****         UART_UART_INTR_TX_MASK,
  55:.\Generated_Source\PSoC4/UART_UART.c ****         UART_UART_TX_TRIGGER_LEVEL,
  56:.\Generated_Source\PSoC4/UART_UART.c ****         (uint8) UART_UART_BYTE_MODE_ENABLE,
  57:.\Generated_Source\PSoC4/UART_UART.c ****         (uint8) UART_UART_CTS_ENABLE,
  58:.\Generated_Source\PSoC4/UART_UART.c ****         (uint8) UART_UART_CTS_POLARITY,
  59:.\Generated_Source\PSoC4/UART_UART.c ****         (uint8) UART_UART_RTS_POLARITY,
  60:.\Generated_Source\PSoC4/UART_UART.c ****         (uint8) UART_UART_RTS_FIFO_LEVEL
  61:.\Generated_Source\PSoC4/UART_UART.c ****     };
  62:.\Generated_Source\PSoC4/UART_UART.c **** 
  63:.\Generated_Source\PSoC4/UART_UART.c **** 
  64:.\Generated_Source\PSoC4/UART_UART.c ****     /*******************************************************************************
  65:.\Generated_Source\PSoC4/UART_UART.c ****     * Function Name: UART_UartInit
  66:.\Generated_Source\PSoC4/UART_UART.c ****     ********************************************************************************
  67:.\Generated_Source\PSoC4/UART_UART.c ****     *
  68:.\Generated_Source\PSoC4/UART_UART.c ****     * Summary:
  69:.\Generated_Source\PSoC4/UART_UART.c ****     *  Configures the SCB for the UART operation.
  70:.\Generated_Source\PSoC4/UART_UART.c ****     *
  71:.\Generated_Source\PSoC4/UART_UART.c ****     * Parameters:
  72:.\Generated_Source\PSoC4/UART_UART.c ****     *  config:  Pointer to a structure that contains the following ordered list of
  73:.\Generated_Source\PSoC4/UART_UART.c ****     *           fields. These fields match the selections available in the
  74:.\Generated_Source\PSoC4/UART_UART.c ****     *           customizer.
  75:.\Generated_Source\PSoC4/UART_UART.c ****     *
  76:.\Generated_Source\PSoC4/UART_UART.c ****     * Return:
  77:.\Generated_Source\PSoC4/UART_UART.c ****     *  None
  78:.\Generated_Source\PSoC4/UART_UART.c ****     *
  79:.\Generated_Source\PSoC4/UART_UART.c ****     *******************************************************************************/
  80:.\Generated_Source\PSoC4/UART_UART.c ****     void UART_UartInit(const UART_UART_INIT_STRUCT *config)
  81:.\Generated_Source\PSoC4/UART_UART.c ****     {
  82:.\Generated_Source\PSoC4/UART_UART.c ****         uint32 pinsConfig;
  83:.\Generated_Source\PSoC4/UART_UART.c **** 
  84:.\Generated_Source\PSoC4/UART_UART.c ****         if (NULL == config)
  85:.\Generated_Source\PSoC4/UART_UART.c ****         {
  86:.\Generated_Source\PSoC4/UART_UART.c ****             CYASSERT(0u != 0u); /* Halt execution due to bad function parameter */
  87:.\Generated_Source\PSoC4/UART_UART.c ****         }
  88:.\Generated_Source\PSoC4/UART_UART.c ****         else
  89:.\Generated_Source\PSoC4/UART_UART.c ****         {
ARM GAS  C:\Users\passw\AppData\Local\Temp\ccAKcy8H.s 			page 3


  90:.\Generated_Source\PSoC4/UART_UART.c ****             /* Get direction to configure UART pins: TX, RX or TX+RX */
  91:.\Generated_Source\PSoC4/UART_UART.c ****             pinsConfig  = config->direction;
  92:.\Generated_Source\PSoC4/UART_UART.c **** 
  93:.\Generated_Source\PSoC4/UART_UART.c ****         #if !(UART_CY_SCBIP_V0 || UART_CY_SCBIP_V1)
  94:.\Generated_Source\PSoC4/UART_UART.c ****             /* Add RTS and CTS pins to configure */
  95:.\Generated_Source\PSoC4/UART_UART.c ****             pinsConfig |= (0u != config->rtsRxFifoLevel) ? (UART_UART_RTS_PIN_ENABLE) : (0u);
  96:.\Generated_Source\PSoC4/UART_UART.c ****             pinsConfig |= (0u != config->enableCts)      ? (UART_UART_CTS_PIN_ENABLE) : (0u);
  97:.\Generated_Source\PSoC4/UART_UART.c ****         #endif /* !(UART_CY_SCBIP_V0 || UART_CY_SCBIP_V1) */
  98:.\Generated_Source\PSoC4/UART_UART.c **** 
  99:.\Generated_Source\PSoC4/UART_UART.c ****             /* Configure pins */
 100:.\Generated_Source\PSoC4/UART_UART.c ****             UART_SetPins(UART_SCB_MODE_UART, config->mode, pinsConfig);
 101:.\Generated_Source\PSoC4/UART_UART.c **** 
 102:.\Generated_Source\PSoC4/UART_UART.c ****             /* Store internal configuration */
 103:.\Generated_Source\PSoC4/UART_UART.c ****             UART_scbMode       = (uint8) UART_SCB_MODE_UART;
 104:.\Generated_Source\PSoC4/UART_UART.c ****             UART_scbEnableWake = (uint8) config->enableWake;
 105:.\Generated_Source\PSoC4/UART_UART.c ****             UART_scbEnableIntr = (uint8) config->enableInterrupt;
 106:.\Generated_Source\PSoC4/UART_UART.c **** 
 107:.\Generated_Source\PSoC4/UART_UART.c ****             /* Set RX direction internal variables */
 108:.\Generated_Source\PSoC4/UART_UART.c ****             UART_rxBuffer      =         config->rxBuffer;
 109:.\Generated_Source\PSoC4/UART_UART.c ****             UART_rxDataBits    = (uint8) config->dataBits;
 110:.\Generated_Source\PSoC4/UART_UART.c ****             UART_rxBufferSize  = (uint8) config->rxBufferSize;
 111:.\Generated_Source\PSoC4/UART_UART.c **** 
 112:.\Generated_Source\PSoC4/UART_UART.c ****             /* Set TX direction internal variables */
 113:.\Generated_Source\PSoC4/UART_UART.c ****             UART_txBuffer      =         config->txBuffer;
 114:.\Generated_Source\PSoC4/UART_UART.c ****             UART_txDataBits    = (uint8) config->dataBits;
 115:.\Generated_Source\PSoC4/UART_UART.c ****             UART_txBufferSize  = (uint8) config->txBufferSize;
 116:.\Generated_Source\PSoC4/UART_UART.c **** 
 117:.\Generated_Source\PSoC4/UART_UART.c ****             /* Configure UART interface */
 118:.\Generated_Source\PSoC4/UART_UART.c ****             if(UART_UART_MODE_IRDA == config->mode)
 119:.\Generated_Source\PSoC4/UART_UART.c ****             {
 120:.\Generated_Source\PSoC4/UART_UART.c ****                 /* OVS settings: IrDA */
 121:.\Generated_Source\PSoC4/UART_UART.c ****                 UART_CTRL_REG  = ((0u != config->enableIrdaLowPower) ?
 122:.\Generated_Source\PSoC4/UART_UART.c ****                                                 (UART_UART_GET_CTRL_OVS_IRDA_LP(config->oversample)
 123:.\Generated_Source\PSoC4/UART_UART.c ****                                                 (UART_CTRL_OVS_IRDA_OVS16));
 124:.\Generated_Source\PSoC4/UART_UART.c ****             }
 125:.\Generated_Source\PSoC4/UART_UART.c ****             else
 126:.\Generated_Source\PSoC4/UART_UART.c ****             {
 127:.\Generated_Source\PSoC4/UART_UART.c ****                 /* OVS settings: UART and SmartCard */
 128:.\Generated_Source\PSoC4/UART_UART.c ****                 UART_CTRL_REG  = UART_GET_CTRL_OVS(config->oversample);
 129:.\Generated_Source\PSoC4/UART_UART.c ****             }
 130:.\Generated_Source\PSoC4/UART_UART.c **** 
 131:.\Generated_Source\PSoC4/UART_UART.c ****             UART_CTRL_REG     |= UART_GET_CTRL_BYTE_MODE  (config->enableByteMode)      |
 132:.\Generated_Source\PSoC4/UART_UART.c ****                                              UART_GET_CTRL_ADDR_ACCEPT(config->multiprocAcceptAddr)
 133:.\Generated_Source\PSoC4/UART_UART.c ****                                              UART_CTRL_UART;
 134:.\Generated_Source\PSoC4/UART_UART.c **** 
 135:.\Generated_Source\PSoC4/UART_UART.c ****             /* Configure sub-mode: UART, SmartCard or IrDA */
 136:.\Generated_Source\PSoC4/UART_UART.c ****             UART_UART_CTRL_REG = UART_GET_UART_CTRL_MODE(config->mode);
 137:.\Generated_Source\PSoC4/UART_UART.c **** 
 138:.\Generated_Source\PSoC4/UART_UART.c ****             /* Configure RX direction */
 139:.\Generated_Source\PSoC4/UART_UART.c ****             UART_UART_RX_CTRL_REG = UART_GET_UART_RX_CTRL_MODE(config->stopBits)              |
 140:.\Generated_Source\PSoC4/UART_UART.c ****                                         UART_GET_UART_RX_CTRL_POLARITY(config->enableInvertedRx)   
 141:.\Generated_Source\PSoC4/UART_UART.c ****                                         UART_GET_UART_RX_CTRL_MP_MODE(config->enableMultiproc)     
 142:.\Generated_Source\PSoC4/UART_UART.c ****                                         UART_GET_UART_RX_CTRL_DROP_ON_PARITY_ERR(config->dropOnPari
 143:.\Generated_Source\PSoC4/UART_UART.c ****                                         UART_GET_UART_RX_CTRL_DROP_ON_FRAME_ERR(config->dropOnFrame
 144:.\Generated_Source\PSoC4/UART_UART.c **** 
 145:.\Generated_Source\PSoC4/UART_UART.c ****             if(UART_UART_PARITY_NONE != config->parity)
 146:.\Generated_Source\PSoC4/UART_UART.c ****             {
ARM GAS  C:\Users\passw\AppData\Local\Temp\ccAKcy8H.s 			page 4


 147:.\Generated_Source\PSoC4/UART_UART.c ****                UART_UART_RX_CTRL_REG |= UART_GET_UART_RX_CTRL_PARITY(config->parity) |
 148:.\Generated_Source\PSoC4/UART_UART.c ****                                                     UART_UART_RX_CTRL_PARITY_ENABLED;
 149:.\Generated_Source\PSoC4/UART_UART.c ****             }
 150:.\Generated_Source\PSoC4/UART_UART.c **** 
 151:.\Generated_Source\PSoC4/UART_UART.c ****             UART_RX_CTRL_REG      = UART_GET_RX_CTRL_DATA_WIDTH(config->dataBits)       |
 152:.\Generated_Source\PSoC4/UART_UART.c ****                                                 UART_GET_RX_CTRL_MEDIAN(config->enableMedianFilter)
 153:.\Generated_Source\PSoC4/UART_UART.c ****                                                 UART_GET_UART_RX_CTRL_ENABLED(config->direction);
 154:.\Generated_Source\PSoC4/UART_UART.c **** 
 155:.\Generated_Source\PSoC4/UART_UART.c ****             UART_RX_FIFO_CTRL_REG = UART_GET_RX_FIFO_CTRL_TRIGGER_LEVEL(config->rxTriggerLevel);
 156:.\Generated_Source\PSoC4/UART_UART.c **** 
 157:.\Generated_Source\PSoC4/UART_UART.c ****             /* Configure MP address */
 158:.\Generated_Source\PSoC4/UART_UART.c ****             UART_RX_MATCH_REG     = UART_GET_RX_MATCH_ADDR(config->multiprocAddr) |
 159:.\Generated_Source\PSoC4/UART_UART.c ****                                                 UART_GET_RX_MATCH_MASK(config->multiprocAddrMask);
 160:.\Generated_Source\PSoC4/UART_UART.c **** 
 161:.\Generated_Source\PSoC4/UART_UART.c ****             /* Configure RX direction */
 162:.\Generated_Source\PSoC4/UART_UART.c ****             UART_UART_TX_CTRL_REG = UART_GET_UART_TX_CTRL_MODE(config->stopBits) |
 163:.\Generated_Source\PSoC4/UART_UART.c ****                                                 UART_GET_UART_TX_CTRL_RETRY_NACK(config->enableRetr
 164:.\Generated_Source\PSoC4/UART_UART.c **** 
 165:.\Generated_Source\PSoC4/UART_UART.c ****             if(UART_UART_PARITY_NONE != config->parity)
 166:.\Generated_Source\PSoC4/UART_UART.c ****             {
 167:.\Generated_Source\PSoC4/UART_UART.c ****                UART_UART_TX_CTRL_REG |= UART_GET_UART_TX_CTRL_PARITY(config->parity) |
 168:.\Generated_Source\PSoC4/UART_UART.c ****                                                     UART_UART_TX_CTRL_PARITY_ENABLED;
 169:.\Generated_Source\PSoC4/UART_UART.c ****             }
 170:.\Generated_Source\PSoC4/UART_UART.c **** 
 171:.\Generated_Source\PSoC4/UART_UART.c ****             UART_TX_CTRL_REG      = UART_GET_TX_CTRL_DATA_WIDTH(config->dataBits)    |
 172:.\Generated_Source\PSoC4/UART_UART.c ****                                                 UART_GET_UART_TX_CTRL_ENABLED(config->direction);
 173:.\Generated_Source\PSoC4/UART_UART.c **** 
 174:.\Generated_Source\PSoC4/UART_UART.c ****             UART_TX_FIFO_CTRL_REG = UART_GET_TX_FIFO_CTRL_TRIGGER_LEVEL(config->txTriggerLevel);
 175:.\Generated_Source\PSoC4/UART_UART.c **** 
 176:.\Generated_Source\PSoC4/UART_UART.c ****         #if !(UART_CY_SCBIP_V0 || UART_CY_SCBIP_V1)
 177:.\Generated_Source\PSoC4/UART_UART.c ****             UART_UART_FLOW_CTRL_REG = UART_GET_UART_FLOW_CTRL_CTS_ENABLE(config->enableCts) | \
 178:.\Generated_Source\PSoC4/UART_UART.c ****                                             UART_GET_UART_FLOW_CTRL_CTS_POLARITY (config->ctsPolari
 179:.\Generated_Source\PSoC4/UART_UART.c ****                                             UART_GET_UART_FLOW_CTRL_RTS_POLARITY (config->rtsPolari
 180:.\Generated_Source\PSoC4/UART_UART.c ****                                             UART_GET_UART_FLOW_CTRL_TRIGGER_LEVEL(config->rtsRxFifo
 181:.\Generated_Source\PSoC4/UART_UART.c ****         #endif /* !(UART_CY_SCBIP_V0 || UART_CY_SCBIP_V1) */
 182:.\Generated_Source\PSoC4/UART_UART.c **** 
 183:.\Generated_Source\PSoC4/UART_UART.c ****             /* Configure interrupt with UART handler but do not enable it */
 184:.\Generated_Source\PSoC4/UART_UART.c ****             CyIntDisable    (UART_ISR_NUMBER);
 185:.\Generated_Source\PSoC4/UART_UART.c ****             CyIntSetPriority(UART_ISR_NUMBER, UART_ISR_PRIORITY);
 186:.\Generated_Source\PSoC4/UART_UART.c ****             (void) CyIntSetVector(UART_ISR_NUMBER, &UART_SPI_UART_ISR);
 187:.\Generated_Source\PSoC4/UART_UART.c **** 
 188:.\Generated_Source\PSoC4/UART_UART.c ****             /* Configure WAKE interrupt */
 189:.\Generated_Source\PSoC4/UART_UART.c ****         #if(UART_UART_RX_WAKEUP_IRQ)
 190:.\Generated_Source\PSoC4/UART_UART.c ****             CyIntDisable    (UART_RX_WAKE_ISR_NUMBER);
 191:.\Generated_Source\PSoC4/UART_UART.c ****             CyIntSetPriority(UART_RX_WAKE_ISR_NUMBER, UART_RX_WAKE_ISR_PRIORITY);
 192:.\Generated_Source\PSoC4/UART_UART.c ****             (void) CyIntSetVector(UART_RX_WAKE_ISR_NUMBER, &UART_UART_WAKEUP_ISR);
 193:.\Generated_Source\PSoC4/UART_UART.c ****         #endif /* (UART_UART_RX_WAKEUP_IRQ) */
 194:.\Generated_Source\PSoC4/UART_UART.c **** 
 195:.\Generated_Source\PSoC4/UART_UART.c ****             /* Configure interrupt sources */
 196:.\Generated_Source\PSoC4/UART_UART.c ****             UART_INTR_I2C_EC_MASK_REG = UART_NO_INTR_SOURCES;
 197:.\Generated_Source\PSoC4/UART_UART.c ****             UART_INTR_SPI_EC_MASK_REG = UART_NO_INTR_SOURCES;
 198:.\Generated_Source\PSoC4/UART_UART.c ****             UART_INTR_SLAVE_MASK_REG  = UART_NO_INTR_SOURCES;
 199:.\Generated_Source\PSoC4/UART_UART.c ****             UART_INTR_MASTER_MASK_REG = UART_NO_INTR_SOURCES;
 200:.\Generated_Source\PSoC4/UART_UART.c ****             UART_INTR_RX_MASK_REG     = config->rxInterruptMask;
 201:.\Generated_Source\PSoC4/UART_UART.c ****             UART_INTR_TX_MASK_REG     = config->txInterruptMask;
 202:.\Generated_Source\PSoC4/UART_UART.c **** 
 203:.\Generated_Source\PSoC4/UART_UART.c ****             /* Clear RX buffer indexes */
ARM GAS  C:\Users\passw\AppData\Local\Temp\ccAKcy8H.s 			page 5


 204:.\Generated_Source\PSoC4/UART_UART.c ****             UART_rxBufferHead     = 0u;
 205:.\Generated_Source\PSoC4/UART_UART.c ****             UART_rxBufferTail     = 0u;
 206:.\Generated_Source\PSoC4/UART_UART.c ****             UART_rxBufferOverflow = 0u;
 207:.\Generated_Source\PSoC4/UART_UART.c **** 
 208:.\Generated_Source\PSoC4/UART_UART.c ****             /* Clear TX buffer indexes */
 209:.\Generated_Source\PSoC4/UART_UART.c ****             UART_txBufferHead = 0u;
 210:.\Generated_Source\PSoC4/UART_UART.c ****             UART_txBufferTail = 0u;
 211:.\Generated_Source\PSoC4/UART_UART.c ****         }
 212:.\Generated_Source\PSoC4/UART_UART.c ****     }
 213:.\Generated_Source\PSoC4/UART_UART.c **** 
 214:.\Generated_Source\PSoC4/UART_UART.c **** #else
 215:.\Generated_Source\PSoC4/UART_UART.c **** 
 216:.\Generated_Source\PSoC4/UART_UART.c ****     /*******************************************************************************
 217:.\Generated_Source\PSoC4/UART_UART.c ****     * Function Name: UART_UartInit
 218:.\Generated_Source\PSoC4/UART_UART.c ****     ********************************************************************************
 219:.\Generated_Source\PSoC4/UART_UART.c ****     *
 220:.\Generated_Source\PSoC4/UART_UART.c ****     * Summary:
 221:.\Generated_Source\PSoC4/UART_UART.c ****     *  Configures the SCB for the UART operation.
 222:.\Generated_Source\PSoC4/UART_UART.c ****     *
 223:.\Generated_Source\PSoC4/UART_UART.c ****     * Parameters:
 224:.\Generated_Source\PSoC4/UART_UART.c ****     *  None
 225:.\Generated_Source\PSoC4/UART_UART.c ****     *
 226:.\Generated_Source\PSoC4/UART_UART.c ****     * Return:
 227:.\Generated_Source\PSoC4/UART_UART.c ****     *  None
 228:.\Generated_Source\PSoC4/UART_UART.c ****     *
 229:.\Generated_Source\PSoC4/UART_UART.c ****     *******************************************************************************/
 230:.\Generated_Source\PSoC4/UART_UART.c ****     void UART_UartInit(void)
 231:.\Generated_Source\PSoC4/UART_UART.c ****     {
  26              		.loc 1 231 0
  27              		.cfi_startproc
  28 0000 80B5     		push	{r7, lr}
  29              		.cfi_def_cfa_offset 8
  30              		.cfi_offset 7, -8
  31              		.cfi_offset 14, -4
  32 0002 00AF     		add	r7, sp, #0
  33              		.cfi_def_cfa_register 7
 232:.\Generated_Source\PSoC4/UART_UART.c ****         /* Configure UART interface */
 233:.\Generated_Source\PSoC4/UART_UART.c ****         UART_CTRL_REG = UART_UART_DEFAULT_CTRL;
  34              		.loc 1 233 0
  35 0004 184B     		ldr	r3, .L2
  36 0006 194A     		ldr	r2, .L2+4
  37 0008 1A60     		str	r2, [r3]
 234:.\Generated_Source\PSoC4/UART_UART.c **** 
 235:.\Generated_Source\PSoC4/UART_UART.c ****         /* Configure sub-mode: UART, SmartCard or IrDA */
 236:.\Generated_Source\PSoC4/UART_UART.c ****         UART_UART_CTRL_REG = UART_UART_DEFAULT_UART_CTRL;
  38              		.loc 1 236 0
  39 000a 194B     		ldr	r3, .L2+8
  40 000c 0022     		mov	r2, #0
  41 000e 1A60     		str	r2, [r3]
 237:.\Generated_Source\PSoC4/UART_UART.c **** 
 238:.\Generated_Source\PSoC4/UART_UART.c ****         /* Configure RX direction */
 239:.\Generated_Source\PSoC4/UART_UART.c ****         UART_UART_RX_CTRL_REG = UART_UART_DEFAULT_UART_RX_CTRL;
  42              		.loc 1 239 0
  43 0010 184B     		ldr	r3, .L2+12
  44 0012 0122     		mov	r2, #1
  45 0014 1A60     		str	r2, [r3]
 240:.\Generated_Source\PSoC4/UART_UART.c ****         UART_RX_CTRL_REG      = UART_UART_DEFAULT_RX_CTRL;
ARM GAS  C:\Users\passw\AppData\Local\Temp\ccAKcy8H.s 			page 6


  46              		.loc 1 240 0
  47 0016 184B     		ldr	r3, .L2+16
  48 0018 184A     		ldr	r2, .L2+20
  49 001a 1A60     		str	r2, [r3]
 241:.\Generated_Source\PSoC4/UART_UART.c ****         UART_RX_FIFO_CTRL_REG = UART_UART_DEFAULT_RX_FIFO_CTRL;
  50              		.loc 1 241 0
  51 001c 184B     		ldr	r3, .L2+24
  52 001e 0722     		mov	r2, #7
  53 0020 1A60     		str	r2, [r3]
 242:.\Generated_Source\PSoC4/UART_UART.c ****         UART_RX_MATCH_REG     = UART_UART_DEFAULT_RX_MATCH_REG;
  54              		.loc 1 242 0
  55 0022 184B     		ldr	r3, .L2+28
  56 0024 0022     		mov	r2, #0
  57 0026 1A60     		str	r2, [r3]
 243:.\Generated_Source\PSoC4/UART_UART.c **** 
 244:.\Generated_Source\PSoC4/UART_UART.c ****         /* Configure TX direction */
 245:.\Generated_Source\PSoC4/UART_UART.c ****         UART_UART_TX_CTRL_REG = UART_UART_DEFAULT_UART_TX_CTRL;
  58              		.loc 1 245 0
  59 0028 174B     		ldr	r3, .L2+32
  60 002a 0122     		mov	r2, #1
  61 002c 1A60     		str	r2, [r3]
 246:.\Generated_Source\PSoC4/UART_UART.c ****         UART_TX_CTRL_REG      = UART_UART_DEFAULT_TX_CTRL;
  62              		.loc 1 246 0
  63 002e 174B     		ldr	r3, .L2+36
  64 0030 124A     		ldr	r2, .L2+20
  65 0032 1A60     		str	r2, [r3]
 247:.\Generated_Source\PSoC4/UART_UART.c ****         UART_TX_FIFO_CTRL_REG = UART_UART_DEFAULT_TX_FIFO_CTRL;
  66              		.loc 1 247 0
  67 0034 164B     		ldr	r3, .L2+40
  68 0036 0022     		mov	r2, #0
  69 0038 1A60     		str	r2, [r3]
 248:.\Generated_Source\PSoC4/UART_UART.c **** 
 249:.\Generated_Source\PSoC4/UART_UART.c ****     #if !(UART_CY_SCBIP_V0 || UART_CY_SCBIP_V1)
 250:.\Generated_Source\PSoC4/UART_UART.c ****         UART_UART_FLOW_CTRL_REG = UART_UART_DEFAULT_FLOW_CTRL;
  70              		.loc 1 250 0
  71 003a 164B     		ldr	r3, .L2+44
  72 003c 0422     		mov	r2, #4
  73 003e 1A60     		str	r2, [r3]
 251:.\Generated_Source\PSoC4/UART_UART.c ****     #endif /* !(UART_CY_SCBIP_V0 || UART_CY_SCBIP_V1) */
 252:.\Generated_Source\PSoC4/UART_UART.c **** 
 253:.\Generated_Source\PSoC4/UART_UART.c ****         /* Configure interrupt with UART handler but do not enable it */
 254:.\Generated_Source\PSoC4/UART_UART.c ****     #if(UART_SCB_IRQ_INTERNAL)
 255:.\Generated_Source\PSoC4/UART_UART.c ****         CyIntDisable    (UART_ISR_NUMBER);
 256:.\Generated_Source\PSoC4/UART_UART.c ****         CyIntSetPriority(UART_ISR_NUMBER, UART_ISR_PRIORITY);
 257:.\Generated_Source\PSoC4/UART_UART.c ****         (void) CyIntSetVector(UART_ISR_NUMBER, &UART_SPI_UART_ISR);
 258:.\Generated_Source\PSoC4/UART_UART.c ****     #endif /* (UART_SCB_IRQ_INTERNAL) */
 259:.\Generated_Source\PSoC4/UART_UART.c **** 
 260:.\Generated_Source\PSoC4/UART_UART.c ****         /* Configure WAKE interrupt */
 261:.\Generated_Source\PSoC4/UART_UART.c ****     #if(UART_UART_RX_WAKEUP_IRQ)
 262:.\Generated_Source\PSoC4/UART_UART.c ****         CyIntDisable    (UART_RX_WAKE_ISR_NUMBER);
 263:.\Generated_Source\PSoC4/UART_UART.c ****         CyIntSetPriority(UART_RX_WAKE_ISR_NUMBER, UART_RX_WAKE_ISR_PRIORITY);
 264:.\Generated_Source\PSoC4/UART_UART.c ****         (void) CyIntSetVector(UART_RX_WAKE_ISR_NUMBER, &UART_UART_WAKEUP_ISR);
 265:.\Generated_Source\PSoC4/UART_UART.c ****     #endif /* (UART_UART_RX_WAKEUP_IRQ) */
 266:.\Generated_Source\PSoC4/UART_UART.c **** 
 267:.\Generated_Source\PSoC4/UART_UART.c ****         /* Configure interrupt sources */
 268:.\Generated_Source\PSoC4/UART_UART.c ****         UART_INTR_I2C_EC_MASK_REG = UART_UART_DEFAULT_INTR_I2C_EC_MASK;
  74              		.loc 1 268 0
ARM GAS  C:\Users\passw\AppData\Local\Temp\ccAKcy8H.s 			page 7


  75 0040 154B     		ldr	r3, .L2+48
  76 0042 0022     		mov	r2, #0
  77 0044 1A60     		str	r2, [r3]
 269:.\Generated_Source\PSoC4/UART_UART.c ****         UART_INTR_SPI_EC_MASK_REG = UART_UART_DEFAULT_INTR_SPI_EC_MASK;
  78              		.loc 1 269 0
  79 0046 154B     		ldr	r3, .L2+52
  80 0048 0022     		mov	r2, #0
  81 004a 1A60     		str	r2, [r3]
 270:.\Generated_Source\PSoC4/UART_UART.c ****         UART_INTR_SLAVE_MASK_REG  = UART_UART_DEFAULT_INTR_SLAVE_MASK;
  82              		.loc 1 270 0
  83 004c 144B     		ldr	r3, .L2+56
  84 004e 0022     		mov	r2, #0
  85 0050 1A60     		str	r2, [r3]
 271:.\Generated_Source\PSoC4/UART_UART.c ****         UART_INTR_MASTER_MASK_REG = UART_UART_DEFAULT_INTR_MASTER_MASK;
  86              		.loc 1 271 0
  87 0052 144B     		ldr	r3, .L2+60
  88 0054 0022     		mov	r2, #0
  89 0056 1A60     		str	r2, [r3]
 272:.\Generated_Source\PSoC4/UART_UART.c ****         UART_INTR_RX_MASK_REG     = UART_UART_DEFAULT_INTR_RX_MASK;
  90              		.loc 1 272 0
  91 0058 134B     		ldr	r3, .L2+64
  92 005a 0022     		mov	r2, #0
  93 005c 1A60     		str	r2, [r3]
 273:.\Generated_Source\PSoC4/UART_UART.c ****         UART_INTR_TX_MASK_REG     = UART_UART_DEFAULT_INTR_TX_MASK;
  94              		.loc 1 273 0
  95 005e 134B     		ldr	r3, .L2+68
  96 0060 0022     		mov	r2, #0
  97 0062 1A60     		str	r2, [r3]
 274:.\Generated_Source\PSoC4/UART_UART.c **** 
 275:.\Generated_Source\PSoC4/UART_UART.c ****     #if(UART_INTERNAL_RX_SW_BUFFER_CONST)
 276:.\Generated_Source\PSoC4/UART_UART.c ****         UART_rxBufferHead     = 0u;
 277:.\Generated_Source\PSoC4/UART_UART.c ****         UART_rxBufferTail     = 0u;
 278:.\Generated_Source\PSoC4/UART_UART.c ****         UART_rxBufferOverflow = 0u;
 279:.\Generated_Source\PSoC4/UART_UART.c ****     #endif /* (UART_INTERNAL_RX_SW_BUFFER_CONST) */
 280:.\Generated_Source\PSoC4/UART_UART.c **** 
 281:.\Generated_Source\PSoC4/UART_UART.c ****     #if(UART_INTERNAL_TX_SW_BUFFER_CONST)
 282:.\Generated_Source\PSoC4/UART_UART.c ****         UART_txBufferHead = 0u;
 283:.\Generated_Source\PSoC4/UART_UART.c ****         UART_txBufferTail = 0u;
 284:.\Generated_Source\PSoC4/UART_UART.c ****     #endif /* (UART_INTERNAL_TX_SW_BUFFER_CONST) */
 285:.\Generated_Source\PSoC4/UART_UART.c ****     }
  98              		.loc 1 285 0
  99 0064 BD46     		mov	sp, r7
 100              		@ sp needed
 101 0066 80BD     		pop	{r7, pc}
 102              	.L3:
 103              		.align	2
 104              	.L2:
 105 0068 00002740 		.word	1076297728
 106 006c 0F000002 		.word	33554447
 107 0070 40002740 		.word	1076297792
 108 0074 48002740 		.word	1076297800
 109 0078 00032740 		.word	1076298496
 110 007c 07000080 		.word	-2147483641
 111 0080 04032740 		.word	1076298500
 112 0084 10032740 		.word	1076298512
 113 0088 44002740 		.word	1076297796
 114 008c 00022740 		.word	1076298240
ARM GAS  C:\Users\passw\AppData\Local\Temp\ccAKcy8H.s 			page 8


 115 0090 04022740 		.word	1076298244
 116 0094 50002740 		.word	1076297808
 117 0098 880E2740 		.word	1076301448
 118 009c C80E2740 		.word	1076301512
 119 00a0 480F2740 		.word	1076301640
 120 00a4 080F2740 		.word	1076301576
 121 00a8 C80F2740 		.word	1076301768
 122 00ac 880F2740 		.word	1076301704
 123              		.cfi_endproc
 124              	.LFE1:
 125              		.size	UART_UartInit, .-UART_UartInit
 126              		.section	.text.UART_UartPostEnable,"ax",%progbits
 127              		.align	2
 128              		.global	UART_UartPostEnable
 129              		.code	16
 130              		.thumb_func
 131              		.type	UART_UartPostEnable, %function
 132              	UART_UartPostEnable:
 133              	.LFB2:
 286:.\Generated_Source\PSoC4/UART_UART.c **** #endif /* (UART_SCB_MODE_UNCONFIG_CONST_CFG) */
 287:.\Generated_Source\PSoC4/UART_UART.c **** 
 288:.\Generated_Source\PSoC4/UART_UART.c **** 
 289:.\Generated_Source\PSoC4/UART_UART.c **** /*******************************************************************************
 290:.\Generated_Source\PSoC4/UART_UART.c **** * Function Name: UART_UartPostEnable
 291:.\Generated_Source\PSoC4/UART_UART.c **** ********************************************************************************
 292:.\Generated_Source\PSoC4/UART_UART.c **** *
 293:.\Generated_Source\PSoC4/UART_UART.c **** * Summary:
 294:.\Generated_Source\PSoC4/UART_UART.c **** *  Restores HSIOM settings for the UART output pins (TX and/or RTS) to be 
 295:.\Generated_Source\PSoC4/UART_UART.c **** *  controlled by the SCB UART.
 296:.\Generated_Source\PSoC4/UART_UART.c **** *
 297:.\Generated_Source\PSoC4/UART_UART.c **** * Parameters:
 298:.\Generated_Source\PSoC4/UART_UART.c **** *  None
 299:.\Generated_Source\PSoC4/UART_UART.c **** *
 300:.\Generated_Source\PSoC4/UART_UART.c **** * Return:
 301:.\Generated_Source\PSoC4/UART_UART.c **** *  None
 302:.\Generated_Source\PSoC4/UART_UART.c **** *
 303:.\Generated_Source\PSoC4/UART_UART.c **** *******************************************************************************/
 304:.\Generated_Source\PSoC4/UART_UART.c **** void UART_UartPostEnable(void)
 305:.\Generated_Source\PSoC4/UART_UART.c **** {
 134              		.loc 1 305 0
 135              		.cfi_startproc
 136 0000 80B5     		push	{r7, lr}
 137              		.cfi_def_cfa_offset 8
 138              		.cfi_offset 7, -8
 139              		.cfi_offset 14, -4
 140 0002 00AF     		add	r7, sp, #0
 141              		.cfi_def_cfa_register 7
 306:.\Generated_Source\PSoC4/UART_UART.c **** #if (UART_SCB_MODE_UNCONFIG_CONST_CFG)
 307:.\Generated_Source\PSoC4/UART_UART.c **** 
 308:.\Generated_Source\PSoC4/UART_UART.c **** #if (UART_TX_SDA_MISO_PIN)
 309:.\Generated_Source\PSoC4/UART_UART.c ****     if (UART_CHECK_TX_SDA_MISO_PIN_USED)
 310:.\Generated_Source\PSoC4/UART_UART.c ****     {
 311:.\Generated_Source\PSoC4/UART_UART.c ****         /* Set SCB UART to drive the output pin */
 312:.\Generated_Source\PSoC4/UART_UART.c ****         UART_SET_HSIOM_SEL(UART_TX_SDA_MISO_HSIOM_REG, UART_TX_SDA_MISO_HSIOM_MASK,
 313:.\Generated_Source\PSoC4/UART_UART.c ****                                        UART_TX_SDA_MISO_HSIOM_POS, UART_HSIOM_UART_SEL);
 314:.\Generated_Source\PSoC4/UART_UART.c ****     }
 315:.\Generated_Source\PSoC4/UART_UART.c **** #endif /* (UART_TX_SDA_MISO_PIN_PIN) */
ARM GAS  C:\Users\passw\AppData\Local\Temp\ccAKcy8H.s 			page 9


 316:.\Generated_Source\PSoC4/UART_UART.c **** 
 317:.\Generated_Source\PSoC4/UART_UART.c **** #if (UART_RTS_SS0_PIN)
 318:.\Generated_Source\PSoC4/UART_UART.c ****     if (UART_CHECK_RTS_SS0_PIN_USED)
 319:.\Generated_Source\PSoC4/UART_UART.c ****     {
 320:.\Generated_Source\PSoC4/UART_UART.c ****         /* Set SCB UART to drive the output pin */
 321:.\Generated_Source\PSoC4/UART_UART.c ****         UART_SET_HSIOM_SEL(UART_RTS_SS0_HSIOM_REG, UART_RTS_SS0_HSIOM_MASK,
 322:.\Generated_Source\PSoC4/UART_UART.c ****                                        UART_RTS_SS0_HSIOM_POS, UART_HSIOM_UART_SEL);
 323:.\Generated_Source\PSoC4/UART_UART.c ****     }
 324:.\Generated_Source\PSoC4/UART_UART.c **** #endif /* (UART_RTS_SS0_PIN) */
 325:.\Generated_Source\PSoC4/UART_UART.c **** 
 326:.\Generated_Source\PSoC4/UART_UART.c **** #else
 327:.\Generated_Source\PSoC4/UART_UART.c **** #if (UART_UART_TX_PIN)
 328:.\Generated_Source\PSoC4/UART_UART.c ****      /* Set SCB UART to drive the output pin */
 329:.\Generated_Source\PSoC4/UART_UART.c ****     UART_SET_HSIOM_SEL(UART_TX_HSIOM_REG, UART_TX_HSIOM_MASK,
 142              		.loc 1 329 0
 143 0004 044B     		ldr	r3, .L5
 144 0006 044A     		ldr	r2, .L5
 145 0008 1268     		ldr	r2, [r2]
 146 000a F021     		mov	r1, #240
 147 000c 8A43     		bic	r2, r1
 148 000e 9021     		mov	r1, #144
 149 0010 0A43     		orr	r2, r1
 150 0012 1A60     		str	r2, [r3]
 330:.\Generated_Source\PSoC4/UART_UART.c ****                                    UART_TX_HSIOM_POS, UART_HSIOM_UART_SEL);
 331:.\Generated_Source\PSoC4/UART_UART.c **** #endif /* (UART_UART_TX_PIN) */
 332:.\Generated_Source\PSoC4/UART_UART.c **** 
 333:.\Generated_Source\PSoC4/UART_UART.c **** #if (UART_UART_RTS_PIN)
 334:.\Generated_Source\PSoC4/UART_UART.c ****     /* Set SCB UART to drive the output pin */
 335:.\Generated_Source\PSoC4/UART_UART.c ****     UART_SET_HSIOM_SEL(UART_RTS_HSIOM_REG, UART_RTS_HSIOM_MASK,
 336:.\Generated_Source\PSoC4/UART_UART.c ****                                    UART_RTS_HSIOM_POS, UART_HSIOM_UART_SEL);
 337:.\Generated_Source\PSoC4/UART_UART.c **** #endif /* (UART_UART_RTS_PIN) */
 338:.\Generated_Source\PSoC4/UART_UART.c **** 
 339:.\Generated_Source\PSoC4/UART_UART.c **** #endif /* (UART_SCB_MODE_UNCONFIG_CONST_CFG) */
 340:.\Generated_Source\PSoC4/UART_UART.c **** }
 151              		.loc 1 340 0
 152 0014 BD46     		mov	sp, r7
 153              		@ sp needed
 154 0016 80BD     		pop	{r7, pc}
 155              	.L6:
 156              		.align	2
 157              	.L5:
 158 0018 00070240 		.word	1073874688
 159              		.cfi_endproc
 160              	.LFE2:
 161              		.size	UART_UartPostEnable, .-UART_UartPostEnable
 162              		.section	.text.UART_UartStop,"ax",%progbits
 163              		.align	2
 164              		.global	UART_UartStop
 165              		.code	16
 166              		.thumb_func
 167              		.type	UART_UartStop, %function
 168              	UART_UartStop:
 169              	.LFB3:
 341:.\Generated_Source\PSoC4/UART_UART.c **** 
 342:.\Generated_Source\PSoC4/UART_UART.c **** 
 343:.\Generated_Source\PSoC4/UART_UART.c **** /*******************************************************************************
 344:.\Generated_Source\PSoC4/UART_UART.c **** * Function Name: UART_UartStop
ARM GAS  C:\Users\passw\AppData\Local\Temp\ccAKcy8H.s 			page 10


 345:.\Generated_Source\PSoC4/UART_UART.c **** ********************************************************************************
 346:.\Generated_Source\PSoC4/UART_UART.c **** *
 347:.\Generated_Source\PSoC4/UART_UART.c **** * Summary:
 348:.\Generated_Source\PSoC4/UART_UART.c **** *  Changes the HSIOM settings for the UART output pins (TX and/or RTS) to keep
 349:.\Generated_Source\PSoC4/UART_UART.c **** *  them inactive after the block is disabled. The output pins are controlled by
 350:.\Generated_Source\PSoC4/UART_UART.c **** *  the GPIO data register. Also, the function disables the skip start feature to
 351:.\Generated_Source\PSoC4/UART_UART.c **** *  not cause it to trigger after the component is enabled.
 352:.\Generated_Source\PSoC4/UART_UART.c **** *
 353:.\Generated_Source\PSoC4/UART_UART.c **** * Parameters:
 354:.\Generated_Source\PSoC4/UART_UART.c **** *  None
 355:.\Generated_Source\PSoC4/UART_UART.c **** *
 356:.\Generated_Source\PSoC4/UART_UART.c **** * Return:
 357:.\Generated_Source\PSoC4/UART_UART.c **** *  None
 358:.\Generated_Source\PSoC4/UART_UART.c **** *
 359:.\Generated_Source\PSoC4/UART_UART.c **** *******************************************************************************/
 360:.\Generated_Source\PSoC4/UART_UART.c **** void UART_UartStop(void)
 361:.\Generated_Source\PSoC4/UART_UART.c **** {
 170              		.loc 1 361 0
 171              		.cfi_startproc
 172 0000 80B5     		push	{r7, lr}
 173              		.cfi_def_cfa_offset 8
 174              		.cfi_offset 7, -8
 175              		.cfi_offset 14, -4
 176 0002 00AF     		add	r7, sp, #0
 177              		.cfi_def_cfa_register 7
 362:.\Generated_Source\PSoC4/UART_UART.c **** #if(UART_SCB_MODE_UNCONFIG_CONST_CFG)
 363:.\Generated_Source\PSoC4/UART_UART.c ****     #if (UART_TX_SDA_MISO_PIN)
 364:.\Generated_Source\PSoC4/UART_UART.c ****         if (UART_CHECK_TX_SDA_MISO_PIN_USED)
 365:.\Generated_Source\PSoC4/UART_UART.c ****         {
 366:.\Generated_Source\PSoC4/UART_UART.c ****             /* Set GPIO to drive output pin */
 367:.\Generated_Source\PSoC4/UART_UART.c ****             UART_SET_HSIOM_SEL(UART_TX_SDA_MISO_HSIOM_REG, UART_TX_SDA_MISO_HSIOM_MASK,
 368:.\Generated_Source\PSoC4/UART_UART.c ****                                            UART_TX_SDA_MISO_HSIOM_POS, UART_HSIOM_GPIO_SEL);
 369:.\Generated_Source\PSoC4/UART_UART.c ****         }
 370:.\Generated_Source\PSoC4/UART_UART.c ****     #endif /* (UART_TX_SDA_MISO_PIN_PIN) */
 371:.\Generated_Source\PSoC4/UART_UART.c **** 
 372:.\Generated_Source\PSoC4/UART_UART.c ****     #if (UART_RTS_SS0_PIN)
 373:.\Generated_Source\PSoC4/UART_UART.c ****         if (UART_CHECK_RTS_SS0_PIN_USED)
 374:.\Generated_Source\PSoC4/UART_UART.c ****         {
 375:.\Generated_Source\PSoC4/UART_UART.c ****             /* Set output pin state after block is disabled */
 376:.\Generated_Source\PSoC4/UART_UART.c ****             UART_uart_rts_spi_ss0_Write(UART_GET_UART_RTS_INACTIVE);
 377:.\Generated_Source\PSoC4/UART_UART.c **** 
 378:.\Generated_Source\PSoC4/UART_UART.c ****             /* Set GPIO to drive output pin */
 379:.\Generated_Source\PSoC4/UART_UART.c ****             UART_SET_HSIOM_SEL(UART_RTS_SS0_HSIOM_REG, UART_RTS_SS0_HSIOM_MASK,
 380:.\Generated_Source\PSoC4/UART_UART.c ****                                            UART_RTS_SS0_HSIOM_POS, UART_HSIOM_GPIO_SEL);
 381:.\Generated_Source\PSoC4/UART_UART.c ****         }
 382:.\Generated_Source\PSoC4/UART_UART.c ****     #endif /* (UART_SS0_PIN) */
 383:.\Generated_Source\PSoC4/UART_UART.c **** 
 384:.\Generated_Source\PSoC4/UART_UART.c **** #else
 385:.\Generated_Source\PSoC4/UART_UART.c ****     #if (UART_UART_TX_PIN)
 386:.\Generated_Source\PSoC4/UART_UART.c ****         /* Set GPIO to drive output pin */
 387:.\Generated_Source\PSoC4/UART_UART.c ****         UART_SET_HSIOM_SEL(UART_TX_HSIOM_REG, UART_TX_HSIOM_MASK,
 178              		.loc 1 387 0
 179 0004 034B     		ldr	r3, .L8
 180 0006 034A     		ldr	r2, .L8
 181 0008 1268     		ldr	r2, [r2]
 182 000a F021     		mov	r1, #240
 183 000c 8A43     		bic	r2, r1
ARM GAS  C:\Users\passw\AppData\Local\Temp\ccAKcy8H.s 			page 11


 184 000e 1A60     		str	r2, [r3]
 388:.\Generated_Source\PSoC4/UART_UART.c ****                                        UART_TX_HSIOM_POS, UART_HSIOM_GPIO_SEL);
 389:.\Generated_Source\PSoC4/UART_UART.c ****     #endif /* (UART_UART_TX_PIN) */
 390:.\Generated_Source\PSoC4/UART_UART.c **** 
 391:.\Generated_Source\PSoC4/UART_UART.c ****     #if (UART_UART_RTS_PIN)
 392:.\Generated_Source\PSoC4/UART_UART.c ****         /* Set output pin state after block is disabled */
 393:.\Generated_Source\PSoC4/UART_UART.c ****         UART_rts_Write(UART_GET_UART_RTS_INACTIVE);
 394:.\Generated_Source\PSoC4/UART_UART.c **** 
 395:.\Generated_Source\PSoC4/UART_UART.c ****         /* Set GPIO to drive output pin */
 396:.\Generated_Source\PSoC4/UART_UART.c ****         UART_SET_HSIOM_SEL(UART_RTS_HSIOM_REG, UART_RTS_HSIOM_MASK,
 397:.\Generated_Source\PSoC4/UART_UART.c ****                                        UART_RTS_HSIOM_POS, UART_HSIOM_GPIO_SEL);
 398:.\Generated_Source\PSoC4/UART_UART.c ****     #endif /* (UART_UART_RTS_PIN) */
 399:.\Generated_Source\PSoC4/UART_UART.c **** 
 400:.\Generated_Source\PSoC4/UART_UART.c **** #endif /* (UART_SCB_MODE_UNCONFIG_CONST_CFG) */
 401:.\Generated_Source\PSoC4/UART_UART.c **** 
 402:.\Generated_Source\PSoC4/UART_UART.c **** #if (UART_UART_WAKE_ENABLE_CONST)
 403:.\Generated_Source\PSoC4/UART_UART.c ****     /* Disable skip start feature used for wakeup */
 404:.\Generated_Source\PSoC4/UART_UART.c ****     UART_UART_RX_CTRL_REG &= (uint32) ~UART_UART_RX_CTRL_SKIP_START;
 405:.\Generated_Source\PSoC4/UART_UART.c **** #endif /* (UART_UART_WAKE_ENABLE_CONST) */
 406:.\Generated_Source\PSoC4/UART_UART.c **** }
 185              		.loc 1 406 0
 186 0010 BD46     		mov	sp, r7
 187              		@ sp needed
 188 0012 80BD     		pop	{r7, pc}
 189              	.L9:
 190              		.align	2
 191              	.L8:
 192 0014 00070240 		.word	1073874688
 193              		.cfi_endproc
 194              	.LFE3:
 195              		.size	UART_UartStop, .-UART_UartStop
 196              		.section	.text.UART_UartSetRxAddress,"ax",%progbits
 197              		.align	2
 198              		.global	UART_UartSetRxAddress
 199              		.code	16
 200              		.thumb_func
 201              		.type	UART_UartSetRxAddress, %function
 202              	UART_UartSetRxAddress:
 203              	.LFB4:
 407:.\Generated_Source\PSoC4/UART_UART.c **** 
 408:.\Generated_Source\PSoC4/UART_UART.c **** 
 409:.\Generated_Source\PSoC4/UART_UART.c **** /*******************************************************************************
 410:.\Generated_Source\PSoC4/UART_UART.c **** * Function Name: UART_UartSetRxAddress
 411:.\Generated_Source\PSoC4/UART_UART.c **** ********************************************************************************
 412:.\Generated_Source\PSoC4/UART_UART.c **** *
 413:.\Generated_Source\PSoC4/UART_UART.c **** * Summary:
 414:.\Generated_Source\PSoC4/UART_UART.c **** *  Sets the hardware detectable receiver address for the UART in the
 415:.\Generated_Source\PSoC4/UART_UART.c **** *  Multiprocessor mode.
 416:.\Generated_Source\PSoC4/UART_UART.c **** *
 417:.\Generated_Source\PSoC4/UART_UART.c **** * Parameters:
 418:.\Generated_Source\PSoC4/UART_UART.c **** *  address: Address for hardware address detection.
 419:.\Generated_Source\PSoC4/UART_UART.c **** *
 420:.\Generated_Source\PSoC4/UART_UART.c **** * Return:
 421:.\Generated_Source\PSoC4/UART_UART.c **** *  None
 422:.\Generated_Source\PSoC4/UART_UART.c **** *
 423:.\Generated_Source\PSoC4/UART_UART.c **** *******************************************************************************/
 424:.\Generated_Source\PSoC4/UART_UART.c **** void UART_UartSetRxAddress(uint32 address)
ARM GAS  C:\Users\passw\AppData\Local\Temp\ccAKcy8H.s 			page 12


 425:.\Generated_Source\PSoC4/UART_UART.c **** {
 204              		.loc 1 425 0
 205              		.cfi_startproc
 206 0000 80B5     		push	{r7, lr}
 207              		.cfi_def_cfa_offset 8
 208              		.cfi_offset 7, -8
 209              		.cfi_offset 14, -4
 210 0002 84B0     		sub	sp, sp, #16
 211              		.cfi_def_cfa_offset 24
 212 0004 00AF     		add	r7, sp, #0
 213              		.cfi_def_cfa_register 7
 214 0006 7860     		str	r0, [r7, #4]
 426:.\Generated_Source\PSoC4/UART_UART.c ****      uint32 matchReg;
 427:.\Generated_Source\PSoC4/UART_UART.c **** 
 428:.\Generated_Source\PSoC4/UART_UART.c ****     matchReg = UART_RX_MATCH_REG;
 215              		.loc 1 428 0
 216 0008 094B     		ldr	r3, .L11
 217 000a 1B68     		ldr	r3, [r3]
 218 000c FB60     		str	r3, [r7, #12]
 429:.\Generated_Source\PSoC4/UART_UART.c **** 
 430:.\Generated_Source\PSoC4/UART_UART.c ****     matchReg &= ((uint32) ~UART_RX_MATCH_ADDR_MASK); /* Clear address bits */
 219              		.loc 1 430 0
 220 000e FB68     		ldr	r3, [r7, #12]
 221 0010 FF22     		mov	r2, #255
 222 0012 9343     		bic	r3, r2
 223 0014 FB60     		str	r3, [r7, #12]
 431:.\Generated_Source\PSoC4/UART_UART.c ****     matchReg |= ((uint32)  (address & UART_RX_MATCH_ADDR_MASK)); /* Set address  */
 224              		.loc 1 431 0
 225 0016 7B68     		ldr	r3, [r7, #4]
 226 0018 FF22     		mov	r2, #255
 227 001a 1340     		and	r3, r2
 228 001c FA68     		ldr	r2, [r7, #12]
 229 001e 1343     		orr	r3, r2
 230 0020 FB60     		str	r3, [r7, #12]
 432:.\Generated_Source\PSoC4/UART_UART.c **** 
 433:.\Generated_Source\PSoC4/UART_UART.c ****     UART_RX_MATCH_REG = matchReg;
 231              		.loc 1 433 0
 232 0022 034B     		ldr	r3, .L11
 233 0024 FA68     		ldr	r2, [r7, #12]
 234 0026 1A60     		str	r2, [r3]
 434:.\Generated_Source\PSoC4/UART_UART.c **** }
 235              		.loc 1 434 0
 236 0028 BD46     		mov	sp, r7
 237 002a 04B0     		add	sp, sp, #16
 238              		@ sp needed
 239 002c 80BD     		pop	{r7, pc}
 240              	.L12:
 241 002e C046     		.align	2
 242              	.L11:
 243 0030 10032740 		.word	1076298512
 244              		.cfi_endproc
 245              	.LFE4:
 246              		.size	UART_UartSetRxAddress, .-UART_UartSetRxAddress
 247              		.section	.text.UART_UartSetRxAddressMask,"ax",%progbits
 248              		.align	2
 249              		.global	UART_UartSetRxAddressMask
 250              		.code	16
ARM GAS  C:\Users\passw\AppData\Local\Temp\ccAKcy8H.s 			page 13


 251              		.thumb_func
 252              		.type	UART_UartSetRxAddressMask, %function
 253              	UART_UartSetRxAddressMask:
 254              	.LFB5:
 435:.\Generated_Source\PSoC4/UART_UART.c **** 
 436:.\Generated_Source\PSoC4/UART_UART.c **** 
 437:.\Generated_Source\PSoC4/UART_UART.c **** /*******************************************************************************
 438:.\Generated_Source\PSoC4/UART_UART.c **** * Function Name: UART_UartSetRxAddressMask
 439:.\Generated_Source\PSoC4/UART_UART.c **** ********************************************************************************
 440:.\Generated_Source\PSoC4/UART_UART.c **** *
 441:.\Generated_Source\PSoC4/UART_UART.c **** * Summary:
 442:.\Generated_Source\PSoC4/UART_UART.c **** *  Sets the hardware address mask for the UART in the Multiprocessor mode.
 443:.\Generated_Source\PSoC4/UART_UART.c **** *
 444:.\Generated_Source\PSoC4/UART_UART.c **** * Parameters:
 445:.\Generated_Source\PSoC4/UART_UART.c **** *  addressMask: Address mask.
 446:.\Generated_Source\PSoC4/UART_UART.c **** *   0 - address bit does not care while comparison.
 447:.\Generated_Source\PSoC4/UART_UART.c **** *   1 - address bit is significant while comparison.
 448:.\Generated_Source\PSoC4/UART_UART.c **** *
 449:.\Generated_Source\PSoC4/UART_UART.c **** * Return:
 450:.\Generated_Source\PSoC4/UART_UART.c **** *  None
 451:.\Generated_Source\PSoC4/UART_UART.c **** *
 452:.\Generated_Source\PSoC4/UART_UART.c **** *******************************************************************************/
 453:.\Generated_Source\PSoC4/UART_UART.c **** void UART_UartSetRxAddressMask(uint32 addressMask)
 454:.\Generated_Source\PSoC4/UART_UART.c **** {
 255              		.loc 1 454 0
 256              		.cfi_startproc
 257 0000 80B5     		push	{r7, lr}
 258              		.cfi_def_cfa_offset 8
 259              		.cfi_offset 7, -8
 260              		.cfi_offset 14, -4
 261 0002 84B0     		sub	sp, sp, #16
 262              		.cfi_def_cfa_offset 24
 263 0004 00AF     		add	r7, sp, #0
 264              		.cfi_def_cfa_register 7
 265 0006 7860     		str	r0, [r7, #4]
 455:.\Generated_Source\PSoC4/UART_UART.c ****     uint32 matchReg;
 456:.\Generated_Source\PSoC4/UART_UART.c **** 
 457:.\Generated_Source\PSoC4/UART_UART.c ****     matchReg = UART_RX_MATCH_REG;
 266              		.loc 1 457 0
 267 0008 084B     		ldr	r3, .L14
 268 000a 1B68     		ldr	r3, [r3]
 269 000c FB60     		str	r3, [r7, #12]
 458:.\Generated_Source\PSoC4/UART_UART.c **** 
 459:.\Generated_Source\PSoC4/UART_UART.c ****     matchReg &= ((uint32) ~UART_RX_MATCH_MASK_MASK); /* Clear address mask bits */
 270              		.loc 1 459 0
 271 000e FB68     		ldr	r3, [r7, #12]
 272 0010 074A     		ldr	r2, .L14+4
 273 0012 1340     		and	r3, r2
 274 0014 FB60     		str	r3, [r7, #12]
 460:.\Generated_Source\PSoC4/UART_UART.c ****     matchReg |= ((uint32) (addressMask << UART_RX_MATCH_MASK_POS));
 275              		.loc 1 460 0
 276 0016 7B68     		ldr	r3, [r7, #4]
 277 0018 1B04     		lsl	r3, r3, #16
 278 001a FA68     		ldr	r2, [r7, #12]
 279 001c 1343     		orr	r3, r2
 280 001e FB60     		str	r3, [r7, #12]
 461:.\Generated_Source\PSoC4/UART_UART.c **** 
ARM GAS  C:\Users\passw\AppData\Local\Temp\ccAKcy8H.s 			page 14


 462:.\Generated_Source\PSoC4/UART_UART.c ****     UART_RX_MATCH_REG = matchReg;
 281              		.loc 1 462 0
 282 0020 024B     		ldr	r3, .L14
 283 0022 FA68     		ldr	r2, [r7, #12]
 284 0024 1A60     		str	r2, [r3]
 463:.\Generated_Source\PSoC4/UART_UART.c **** }
 285              		.loc 1 463 0
 286 0026 BD46     		mov	sp, r7
 287 0028 04B0     		add	sp, sp, #16
 288              		@ sp needed
 289 002a 80BD     		pop	{r7, pc}
 290              	.L15:
 291              		.align	2
 292              	.L14:
 293 002c 10032740 		.word	1076298512
 294 0030 FFFF00FF 		.word	-16711681
 295              		.cfi_endproc
 296              	.LFE5:
 297              		.size	UART_UartSetRxAddressMask, .-UART_UartSetRxAddressMask
 298              		.section	.text.UART_UartGetChar,"ax",%progbits
 299              		.align	2
 300              		.global	UART_UartGetChar
 301              		.code	16
 302              		.thumb_func
 303              		.type	UART_UartGetChar, %function
 304              	UART_UartGetChar:
 305              	.LFB6:
 464:.\Generated_Source\PSoC4/UART_UART.c **** 
 465:.\Generated_Source\PSoC4/UART_UART.c **** 
 466:.\Generated_Source\PSoC4/UART_UART.c **** #if(UART_UART_RX_DIRECTION)
 467:.\Generated_Source\PSoC4/UART_UART.c ****     /*******************************************************************************
 468:.\Generated_Source\PSoC4/UART_UART.c ****     * Function Name: UART_UartGetChar
 469:.\Generated_Source\PSoC4/UART_UART.c ****     ********************************************************************************
 470:.\Generated_Source\PSoC4/UART_UART.c ****     *
 471:.\Generated_Source\PSoC4/UART_UART.c ****     * Summary:
 472:.\Generated_Source\PSoC4/UART_UART.c ****     *  Retrieves the next data element from the receive buffer.
 473:.\Generated_Source\PSoC4/UART_UART.c ****     *  This function is designed for ASCII characters and returns a char
 474:.\Generated_Source\PSoC4/UART_UART.c ****     *  where 1 to 255 are valid characters and 0 indicates an error occurred or
 475:.\Generated_Source\PSoC4/UART_UART.c ****     *  no data present.
 476:.\Generated_Source\PSoC4/UART_UART.c ****     *  - The RX software buffer is disabled: returns the data element
 477:.\Generated_Source\PSoC4/UART_UART.c ****     *    retrieved from the RX FIFO.
 478:.\Generated_Source\PSoC4/UART_UART.c ****     *    Undefined data will be returned if the RX FIFO is empty.
 479:.\Generated_Source\PSoC4/UART_UART.c ****     *  - The RX software buffer is enabled: returns the data element from
 480:.\Generated_Source\PSoC4/UART_UART.c ****     *    the software receive buffer.
 481:.\Generated_Source\PSoC4/UART_UART.c ****     *
 482:.\Generated_Source\PSoC4/UART_UART.c ****     * Parameters:
 483:.\Generated_Source\PSoC4/UART_UART.c ****     *  None
 484:.\Generated_Source\PSoC4/UART_UART.c ****     *
 485:.\Generated_Source\PSoC4/UART_UART.c ****     * Return:
 486:.\Generated_Source\PSoC4/UART_UART.c ****     *  The next data element from the receive buffer.
 487:.\Generated_Source\PSoC4/UART_UART.c ****     *  ASCII character values from 1 to 255 are valid.
 488:.\Generated_Source\PSoC4/UART_UART.c ****     *  A returned zero signifies an error condition or no data available.
 489:.\Generated_Source\PSoC4/UART_UART.c ****     *
 490:.\Generated_Source\PSoC4/UART_UART.c ****     * Side Effects:
 491:.\Generated_Source\PSoC4/UART_UART.c ****     *  The errors bits may not correspond with reading characters due to RX FIFO
 492:.\Generated_Source\PSoC4/UART_UART.c ****     *  and software buffer usage.
 493:.\Generated_Source\PSoC4/UART_UART.c ****     *  RX software buffer is enabled: The internal software buffer overflow
ARM GAS  C:\Users\passw\AppData\Local\Temp\ccAKcy8H.s 			page 15


 494:.\Generated_Source\PSoC4/UART_UART.c ****     *  does not treat as an error condition.
 495:.\Generated_Source\PSoC4/UART_UART.c ****     *  Check SCB_rxBufferOverflow to capture that error condition.
 496:.\Generated_Source\PSoC4/UART_UART.c ****     *
 497:.\Generated_Source\PSoC4/UART_UART.c ****     *******************************************************************************/
 498:.\Generated_Source\PSoC4/UART_UART.c ****     uint32 UART_UartGetChar(void)
 499:.\Generated_Source\PSoC4/UART_UART.c ****     {
 306              		.loc 1 499 0
 307              		.cfi_startproc
 308 0000 80B5     		push	{r7, lr}
 309              		.cfi_def_cfa_offset 8
 310              		.cfi_offset 7, -8
 311              		.cfi_offset 14, -4
 312 0002 82B0     		sub	sp, sp, #8
 313              		.cfi_def_cfa_offset 16
 314 0004 00AF     		add	r7, sp, #0
 315              		.cfi_def_cfa_register 7
 500:.\Generated_Source\PSoC4/UART_UART.c ****         uint32 rxData = 0u;
 316              		.loc 1 500 0
 317 0006 0023     		mov	r3, #0
 318 0008 7B60     		str	r3, [r7, #4]
 501:.\Generated_Source\PSoC4/UART_UART.c **** 
 502:.\Generated_Source\PSoC4/UART_UART.c ****         /* Reads data only if there is data to read */
 503:.\Generated_Source\PSoC4/UART_UART.c ****         if (0u != UART_SpiUartGetRxBufferSize())
 319              		.loc 1 503 0
 320 000a FFF7FEFF 		bl	UART_SpiUartGetRxBufferSize
 321 000e 031E     		sub	r3, r0, #0
 322 0010 03D0     		beq	.L17
 504:.\Generated_Source\PSoC4/UART_UART.c ****         {
 505:.\Generated_Source\PSoC4/UART_UART.c ****             rxData = UART_SpiUartReadRxData();
 323              		.loc 1 505 0
 324 0012 FFF7FEFF 		bl	UART_SpiUartReadRxData
 325 0016 031C     		mov	r3, r0
 326 0018 7B60     		str	r3, [r7, #4]
 327              	.L17:
 506:.\Generated_Source\PSoC4/UART_UART.c ****         }
 507:.\Generated_Source\PSoC4/UART_UART.c **** 
 508:.\Generated_Source\PSoC4/UART_UART.c ****         if (UART_CHECK_INTR_RX(UART_INTR_RX_ERR))
 328              		.loc 1 508 0
 329 001a 084B     		ldr	r3, .L20
 330 001c 1A68     		ldr	r2, [r3]
 331 001e D823     		mov	r3, #216
 332 0020 9B00     		lsl	r3, r3, #2
 333 0022 1340     		and	r3, r2
 334 0024 05D0     		beq	.L18
 509:.\Generated_Source\PSoC4/UART_UART.c ****         {
 510:.\Generated_Source\PSoC4/UART_UART.c ****             rxData = 0u; /* Error occurred: returns zero */
 335              		.loc 1 510 0
 336 0026 0023     		mov	r3, #0
 337 0028 7B60     		str	r3, [r7, #4]
 511:.\Generated_Source\PSoC4/UART_UART.c ****             UART_ClearRxInterruptSource(UART_INTR_RX_ERR);
 338              		.loc 1 511 0
 339 002a 044B     		ldr	r3, .L20
 340 002c D822     		mov	r2, #216
 341 002e 9200     		lsl	r2, r2, #2
 342 0030 1A60     		str	r2, [r3]
 343              	.L18:
 512:.\Generated_Source\PSoC4/UART_UART.c ****         }
ARM GAS  C:\Users\passw\AppData\Local\Temp\ccAKcy8H.s 			page 16


 513:.\Generated_Source\PSoC4/UART_UART.c **** 
 514:.\Generated_Source\PSoC4/UART_UART.c ****         return (rxData);
 344              		.loc 1 514 0
 345 0032 7B68     		ldr	r3, [r7, #4]
 515:.\Generated_Source\PSoC4/UART_UART.c ****     }
 346              		.loc 1 515 0
 347 0034 181C     		mov	r0, r3
 348 0036 BD46     		mov	sp, r7
 349 0038 02B0     		add	sp, sp, #8
 350              		@ sp needed
 351 003a 80BD     		pop	{r7, pc}
 352              	.L21:
 353              		.align	2
 354              	.L20:
 355 003c C00F2740 		.word	1076301760
 356              		.cfi_endproc
 357              	.LFE6:
 358              		.size	UART_UartGetChar, .-UART_UartGetChar
 359              		.section	.text.UART_UartGetByte,"ax",%progbits
 360              		.align	2
 361              		.global	UART_UartGetByte
 362              		.code	16
 363              		.thumb_func
 364              		.type	UART_UartGetByte, %function
 365              	UART_UartGetByte:
 366              	.LFB7:
 516:.\Generated_Source\PSoC4/UART_UART.c **** 
 517:.\Generated_Source\PSoC4/UART_UART.c **** 
 518:.\Generated_Source\PSoC4/UART_UART.c ****     /*******************************************************************************
 519:.\Generated_Source\PSoC4/UART_UART.c ****     * Function Name: UART_UartGetByte
 520:.\Generated_Source\PSoC4/UART_UART.c ****     ********************************************************************************
 521:.\Generated_Source\PSoC4/UART_UART.c ****     *
 522:.\Generated_Source\PSoC4/UART_UART.c ****     * Summary:
 523:.\Generated_Source\PSoC4/UART_UART.c ****     *  Retrieves the next data element from the receive buffer, returns the
 524:.\Generated_Source\PSoC4/UART_UART.c ****     *  received byte and error condition.
 525:.\Generated_Source\PSoC4/UART_UART.c ****     *   - The RX software buffer is disabled: returns the data element retrieved
 526:.\Generated_Source\PSoC4/UART_UART.c ****     *     from the RX FIFO. Undefined data will be returned if the RX FIFO is
 527:.\Generated_Source\PSoC4/UART_UART.c ****     *     empty.
 528:.\Generated_Source\PSoC4/UART_UART.c ****     *   - The RX software buffer is enabled: returns data element from the
 529:.\Generated_Source\PSoC4/UART_UART.c ****     *     software receive buffer.
 530:.\Generated_Source\PSoC4/UART_UART.c ****     *
 531:.\Generated_Source\PSoC4/UART_UART.c ****     * Parameters:
 532:.\Generated_Source\PSoC4/UART_UART.c ****     *  None
 533:.\Generated_Source\PSoC4/UART_UART.c ****     *
 534:.\Generated_Source\PSoC4/UART_UART.c ****     * Return:
 535:.\Generated_Source\PSoC4/UART_UART.c ****     *  Bits 7-0 contain the next data element from the receive buffer and
 536:.\Generated_Source\PSoC4/UART_UART.c ****     *  other bits contain the error condition.
 537:.\Generated_Source\PSoC4/UART_UART.c ****     *
 538:.\Generated_Source\PSoC4/UART_UART.c ****     * Side Effects:
 539:.\Generated_Source\PSoC4/UART_UART.c ****     *  The errors bits may not correspond with reading characters due to RX FIFO
 540:.\Generated_Source\PSoC4/UART_UART.c ****     *  and software buffer usage.
 541:.\Generated_Source\PSoC4/UART_UART.c ****     *  RX software buffer is disabled: The internal software buffer overflow
 542:.\Generated_Source\PSoC4/UART_UART.c ****     *  is not returned as status by this function.
 543:.\Generated_Source\PSoC4/UART_UART.c ****     *  Check SCB_rxBufferOverflow to capture that error condition.
 544:.\Generated_Source\PSoC4/UART_UART.c ****     *
 545:.\Generated_Source\PSoC4/UART_UART.c ****     *******************************************************************************/
 546:.\Generated_Source\PSoC4/UART_UART.c ****     uint32 UART_UartGetByte(void)
ARM GAS  C:\Users\passw\AppData\Local\Temp\ccAKcy8H.s 			page 17


 547:.\Generated_Source\PSoC4/UART_UART.c ****     {
 367              		.loc 1 547 0
 368              		.cfi_startproc
 369 0000 80B5     		push	{r7, lr}
 370              		.cfi_def_cfa_offset 8
 371              		.cfi_offset 7, -8
 372              		.cfi_offset 14, -4
 373 0002 82B0     		sub	sp, sp, #8
 374              		.cfi_def_cfa_offset 16
 375 0004 00AF     		add	r7, sp, #0
 376              		.cfi_def_cfa_register 7
 548:.\Generated_Source\PSoC4/UART_UART.c ****         uint32 rxData;
 549:.\Generated_Source\PSoC4/UART_UART.c ****         uint32 tmpStatus;
 550:.\Generated_Source\PSoC4/UART_UART.c **** 
 551:.\Generated_Source\PSoC4/UART_UART.c ****         #if (UART_CHECK_RX_SW_BUFFER)
 552:.\Generated_Source\PSoC4/UART_UART.c ****         {
 553:.\Generated_Source\PSoC4/UART_UART.c ****             UART_DisableInt();
 554:.\Generated_Source\PSoC4/UART_UART.c ****         }
 555:.\Generated_Source\PSoC4/UART_UART.c ****         #endif
 556:.\Generated_Source\PSoC4/UART_UART.c **** 
 557:.\Generated_Source\PSoC4/UART_UART.c ****         if (0u != UART_SpiUartGetRxBufferSize())
 377              		.loc 1 557 0
 378 0006 FFF7FEFF 		bl	UART_SpiUartGetRxBufferSize
 379 000a 031E     		sub	r3, r0, #0
 380 000c 04D0     		beq	.L23
 558:.\Generated_Source\PSoC4/UART_UART.c ****         {
 559:.\Generated_Source\PSoC4/UART_UART.c ****             /* Enables interrupt to receive more bytes: at least one byte is in
 560:.\Generated_Source\PSoC4/UART_UART.c ****             * buffer.
 561:.\Generated_Source\PSoC4/UART_UART.c ****             */
 562:.\Generated_Source\PSoC4/UART_UART.c ****             #if (UART_CHECK_RX_SW_BUFFER)
 563:.\Generated_Source\PSoC4/UART_UART.c ****             {            
 564:.\Generated_Source\PSoC4/UART_UART.c ****                 UART_EnableInt();
 565:.\Generated_Source\PSoC4/UART_UART.c ****             }
 566:.\Generated_Source\PSoC4/UART_UART.c ****             #endif
 567:.\Generated_Source\PSoC4/UART_UART.c **** 
 568:.\Generated_Source\PSoC4/UART_UART.c ****             /* Get received byte */
 569:.\Generated_Source\PSoC4/UART_UART.c ****             rxData = UART_SpiUartReadRxData();
 381              		.loc 1 569 0
 382 000e FFF7FEFF 		bl	UART_SpiUartReadRxData
 383 0012 031C     		mov	r3, r0
 384 0014 7B60     		str	r3, [r7, #4]
 385 0016 02E0     		b	.L24
 386              	.L23:
 570:.\Generated_Source\PSoC4/UART_UART.c ****         }
 571:.\Generated_Source\PSoC4/UART_UART.c ****         else
 572:.\Generated_Source\PSoC4/UART_UART.c ****         {
 573:.\Generated_Source\PSoC4/UART_UART.c ****             /* Reads a byte directly from RX FIFO: underflow is raised in the case
 574:.\Generated_Source\PSoC4/UART_UART.c ****             * of empty. Otherwise the first received byte will be read.
 575:.\Generated_Source\PSoC4/UART_UART.c ****             */
 576:.\Generated_Source\PSoC4/UART_UART.c ****             rxData = UART_RX_FIFO_RD_REG;
 387              		.loc 1 576 0
 388 0018 0B4B     		ldr	r3, .L26
 389 001a 1B68     		ldr	r3, [r3]
 390 001c 7B60     		str	r3, [r7, #4]
 391              	.L24:
 577:.\Generated_Source\PSoC4/UART_UART.c **** 
 578:.\Generated_Source\PSoC4/UART_UART.c ****             /* Enables interrupt to receive more bytes.
ARM GAS  C:\Users\passw\AppData\Local\Temp\ccAKcy8H.s 			page 18


 579:.\Generated_Source\PSoC4/UART_UART.c ****             * The RX_NOT_EMPTY interrupt is cleared by the interrupt routine
 580:.\Generated_Source\PSoC4/UART_UART.c ****             * in case the byte was received and read by code above.
 581:.\Generated_Source\PSoC4/UART_UART.c ****             */
 582:.\Generated_Source\PSoC4/UART_UART.c ****             #if (UART_CHECK_RX_SW_BUFFER)
 583:.\Generated_Source\PSoC4/UART_UART.c ****             {
 584:.\Generated_Source\PSoC4/UART_UART.c ****                 UART_EnableInt();
 585:.\Generated_Source\PSoC4/UART_UART.c ****             }
 586:.\Generated_Source\PSoC4/UART_UART.c ****             #endif
 587:.\Generated_Source\PSoC4/UART_UART.c ****         }
 588:.\Generated_Source\PSoC4/UART_UART.c **** 
 589:.\Generated_Source\PSoC4/UART_UART.c ****         /* Get and clear RX error mask */
 590:.\Generated_Source\PSoC4/UART_UART.c ****         tmpStatus = (UART_GetRxInterruptSource() & UART_INTR_RX_ERR);
 392              		.loc 1 590 0
 393 001e 0B4B     		ldr	r3, .L26+4
 394 0020 1A68     		ldr	r2, [r3]
 395 0022 D823     		mov	r3, #216
 396 0024 9B00     		lsl	r3, r3, #2
 397 0026 1340     		and	r3, r2
 398 0028 3B60     		str	r3, [r7]
 591:.\Generated_Source\PSoC4/UART_UART.c ****         UART_ClearRxInterruptSource(UART_INTR_RX_ERR);
 399              		.loc 1 591 0
 400 002a 084B     		ldr	r3, .L26+4
 401 002c D822     		mov	r2, #216
 402 002e 9200     		lsl	r2, r2, #2
 403 0030 1A60     		str	r2, [r3]
 592:.\Generated_Source\PSoC4/UART_UART.c **** 
 593:.\Generated_Source\PSoC4/UART_UART.c ****         /* Puts together data and error status:
 594:.\Generated_Source\PSoC4/UART_UART.c ****         * MP mode and accept address: 9th bit is set to notify mark.
 595:.\Generated_Source\PSoC4/UART_UART.c ****         */
 596:.\Generated_Source\PSoC4/UART_UART.c ****         rxData |= ((uint32) (tmpStatus << 8u));
 404              		.loc 1 596 0
 405 0032 3B68     		ldr	r3, [r7]
 406 0034 1B02     		lsl	r3, r3, #8
 407 0036 7A68     		ldr	r2, [r7, #4]
 408 0038 1343     		orr	r3, r2
 409 003a 7B60     		str	r3, [r7, #4]
 597:.\Generated_Source\PSoC4/UART_UART.c **** 
 598:.\Generated_Source\PSoC4/UART_UART.c ****         return (rxData);
 410              		.loc 1 598 0
 411 003c 7B68     		ldr	r3, [r7, #4]
 599:.\Generated_Source\PSoC4/UART_UART.c ****     }
 412              		.loc 1 599 0
 413 003e 181C     		mov	r0, r3
 414 0040 BD46     		mov	sp, r7
 415 0042 02B0     		add	sp, sp, #8
 416              		@ sp needed
 417 0044 80BD     		pop	{r7, pc}
 418              	.L27:
 419 0046 C046     		.align	2
 420              	.L26:
 421 0048 40032740 		.word	1076298560
 422 004c C00F2740 		.word	1076301760
 423              		.cfi_endproc
 424              	.LFE7:
 425              		.size	UART_UartGetByte, .-UART_UartGetByte
 426              		.section	.text.UART_UartSetRtsPolarity,"ax",%progbits
 427              		.align	2
ARM GAS  C:\Users\passw\AppData\Local\Temp\ccAKcy8H.s 			page 19


 428              		.global	UART_UartSetRtsPolarity
 429              		.code	16
 430              		.thumb_func
 431              		.type	UART_UartSetRtsPolarity, %function
 432              	UART_UartSetRtsPolarity:
 433              	.LFB8:
 600:.\Generated_Source\PSoC4/UART_UART.c **** 
 601:.\Generated_Source\PSoC4/UART_UART.c **** 
 602:.\Generated_Source\PSoC4/UART_UART.c ****     #if !(UART_CY_SCBIP_V0 || UART_CY_SCBIP_V1)
 603:.\Generated_Source\PSoC4/UART_UART.c ****         /*******************************************************************************
 604:.\Generated_Source\PSoC4/UART_UART.c ****         * Function Name: UART_UartSetRtsPolarity
 605:.\Generated_Source\PSoC4/UART_UART.c ****         ********************************************************************************
 606:.\Generated_Source\PSoC4/UART_UART.c ****         *
 607:.\Generated_Source\PSoC4/UART_UART.c ****         * Summary:
 608:.\Generated_Source\PSoC4/UART_UART.c ****         *  Sets active polarity of RTS output signal.
 609:.\Generated_Source\PSoC4/UART_UART.c ****         *
 610:.\Generated_Source\PSoC4/UART_UART.c ****         * Parameters:
 611:.\Generated_Source\PSoC4/UART_UART.c ****         *  polarity: Active polarity of RTS output signal.
 612:.\Generated_Source\PSoC4/UART_UART.c ****         *   UART_UART_RTS_ACTIVE_LOW  - RTS signal is active low.
 613:.\Generated_Source\PSoC4/UART_UART.c ****         *   UART_UART_RTS_ACTIVE_HIGH - RTS signal is active high.
 614:.\Generated_Source\PSoC4/UART_UART.c ****         *
 615:.\Generated_Source\PSoC4/UART_UART.c ****         * Return:
 616:.\Generated_Source\PSoC4/UART_UART.c ****         *  None
 617:.\Generated_Source\PSoC4/UART_UART.c ****         *
 618:.\Generated_Source\PSoC4/UART_UART.c ****         *******************************************************************************/
 619:.\Generated_Source\PSoC4/UART_UART.c ****         void UART_UartSetRtsPolarity(uint32 polarity)
 620:.\Generated_Source\PSoC4/UART_UART.c ****         {
 434              		.loc 1 620 0
 435              		.cfi_startproc
 436 0000 80B5     		push	{r7, lr}
 437              		.cfi_def_cfa_offset 8
 438              		.cfi_offset 7, -8
 439              		.cfi_offset 14, -4
 440 0002 82B0     		sub	sp, sp, #8
 441              		.cfi_def_cfa_offset 16
 442 0004 00AF     		add	r7, sp, #0
 443              		.cfi_def_cfa_register 7
 444 0006 7860     		str	r0, [r7, #4]
 621:.\Generated_Source\PSoC4/UART_UART.c ****             if(0u != polarity)
 445              		.loc 1 621 0
 446 0008 7B68     		ldr	r3, [r7, #4]
 447 000a 002B     		cmp	r3, #0
 448 000c 07D0     		beq	.L29
 622:.\Generated_Source\PSoC4/UART_UART.c ****             {
 623:.\Generated_Source\PSoC4/UART_UART.c ****                 UART_UART_FLOW_CTRL_REG |= (uint32)  UART_UART_FLOW_CTRL_RTS_POLARITY;
 449              		.loc 1 623 0
 450 000e 084B     		ldr	r3, .L31
 451 0010 074A     		ldr	r2, .L31
 452 0012 1268     		ldr	r2, [r2]
 453 0014 8021     		mov	r1, #128
 454 0016 4902     		lsl	r1, r1, #9
 455 0018 0A43     		orr	r2, r1
 456 001a 1A60     		str	r2, [r3]
 457 001c 05E0     		b	.L28
 458              	.L29:
 624:.\Generated_Source\PSoC4/UART_UART.c ****             }
 625:.\Generated_Source\PSoC4/UART_UART.c ****             else
ARM GAS  C:\Users\passw\AppData\Local\Temp\ccAKcy8H.s 			page 20


 626:.\Generated_Source\PSoC4/UART_UART.c ****             {
 627:.\Generated_Source\PSoC4/UART_UART.c ****                 UART_UART_FLOW_CTRL_REG &= (uint32) ~UART_UART_FLOW_CTRL_RTS_POLARITY;
 459              		.loc 1 627 0
 460 001e 044B     		ldr	r3, .L31
 461 0020 034A     		ldr	r2, .L31
 462 0022 1268     		ldr	r2, [r2]
 463 0024 0349     		ldr	r1, .L31+4
 464 0026 0A40     		and	r2, r1
 465 0028 1A60     		str	r2, [r3]
 466              	.L28:
 628:.\Generated_Source\PSoC4/UART_UART.c ****             }
 629:.\Generated_Source\PSoC4/UART_UART.c ****         }
 467              		.loc 1 629 0
 468 002a BD46     		mov	sp, r7
 469 002c 02B0     		add	sp, sp, #8
 470              		@ sp needed
 471 002e 80BD     		pop	{r7, pc}
 472              	.L32:
 473              		.align	2
 474              	.L31:
 475 0030 50002740 		.word	1076297808
 476 0034 FFFFFEFF 		.word	-65537
 477              		.cfi_endproc
 478              	.LFE8:
 479              		.size	UART_UartSetRtsPolarity, .-UART_UartSetRtsPolarity
 480              		.section	.text.UART_UartSetRtsFifoLevel,"ax",%progbits
 481              		.align	2
 482              		.global	UART_UartSetRtsFifoLevel
 483              		.code	16
 484              		.thumb_func
 485              		.type	UART_UartSetRtsFifoLevel, %function
 486              	UART_UartSetRtsFifoLevel:
 487              	.LFB9:
 630:.\Generated_Source\PSoC4/UART_UART.c **** 
 631:.\Generated_Source\PSoC4/UART_UART.c **** 
 632:.\Generated_Source\PSoC4/UART_UART.c ****         /*******************************************************************************
 633:.\Generated_Source\PSoC4/UART_UART.c ****         * Function Name: UART_UartSetRtsFifoLevel
 634:.\Generated_Source\PSoC4/UART_UART.c ****         ********************************************************************************
 635:.\Generated_Source\PSoC4/UART_UART.c ****         *
 636:.\Generated_Source\PSoC4/UART_UART.c ****         * Summary:
 637:.\Generated_Source\PSoC4/UART_UART.c ****         *  Sets level in the RX FIFO for RTS signal activation.
 638:.\Generated_Source\PSoC4/UART_UART.c ****         *  While the RX FIFO has fewer entries than the RX FIFO level the RTS signal
 639:.\Generated_Source\PSoC4/UART_UART.c ****         *  remains active, otherwise the RTS signal becomes inactive.
 640:.\Generated_Source\PSoC4/UART_UART.c ****         *
 641:.\Generated_Source\PSoC4/UART_UART.c ****         * Parameters:
 642:.\Generated_Source\PSoC4/UART_UART.c ****         *  level: Level in the RX FIFO for RTS signal activation.
 643:.\Generated_Source\PSoC4/UART_UART.c ****         *         The range of valid level values is between 0 and RX FIFO depth - 1.
 644:.\Generated_Source\PSoC4/UART_UART.c ****         *         Setting level value to 0 disables RTS signal activation.
 645:.\Generated_Source\PSoC4/UART_UART.c ****         *
 646:.\Generated_Source\PSoC4/UART_UART.c ****         * Return:
 647:.\Generated_Source\PSoC4/UART_UART.c ****         *  None
 648:.\Generated_Source\PSoC4/UART_UART.c ****         *
 649:.\Generated_Source\PSoC4/UART_UART.c ****         *******************************************************************************/
 650:.\Generated_Source\PSoC4/UART_UART.c ****         void UART_UartSetRtsFifoLevel(uint32 level)
 651:.\Generated_Source\PSoC4/UART_UART.c ****         {
 488              		.loc 1 651 0
 489              		.cfi_startproc
ARM GAS  C:\Users\passw\AppData\Local\Temp\ccAKcy8H.s 			page 21


 490 0000 80B5     		push	{r7, lr}
 491              		.cfi_def_cfa_offset 8
 492              		.cfi_offset 7, -8
 493              		.cfi_offset 14, -4
 494 0002 84B0     		sub	sp, sp, #16
 495              		.cfi_def_cfa_offset 24
 496 0004 00AF     		add	r7, sp, #0
 497              		.cfi_def_cfa_register 7
 498 0006 7860     		str	r0, [r7, #4]
 652:.\Generated_Source\PSoC4/UART_UART.c ****             uint32 uartFlowCtrl;
 653:.\Generated_Source\PSoC4/UART_UART.c **** 
 654:.\Generated_Source\PSoC4/UART_UART.c ****             uartFlowCtrl = UART_UART_FLOW_CTRL_REG;
 499              		.loc 1 654 0
 500 0008 094B     		ldr	r3, .L34
 501 000a 1B68     		ldr	r3, [r3]
 502 000c FB60     		str	r3, [r7, #12]
 655:.\Generated_Source\PSoC4/UART_UART.c **** 
 656:.\Generated_Source\PSoC4/UART_UART.c ****             uartFlowCtrl &= ((uint32) ~UART_UART_FLOW_CTRL_TRIGGER_LEVEL_MASK); /* Clear level mask
 503              		.loc 1 656 0
 504 000e FB68     		ldr	r3, [r7, #12]
 505 0010 0F22     		mov	r2, #15
 506 0012 9343     		bic	r3, r2
 507 0014 FB60     		str	r3, [r7, #12]
 657:.\Generated_Source\PSoC4/UART_UART.c ****             uartFlowCtrl |= ((uint32) (UART_UART_FLOW_CTRL_TRIGGER_LEVEL_MASK & level));
 508              		.loc 1 657 0
 509 0016 7B68     		ldr	r3, [r7, #4]
 510 0018 0F22     		mov	r2, #15
 511 001a 1340     		and	r3, r2
 512 001c FA68     		ldr	r2, [r7, #12]
 513 001e 1343     		orr	r3, r2
 514 0020 FB60     		str	r3, [r7, #12]
 658:.\Generated_Source\PSoC4/UART_UART.c **** 
 659:.\Generated_Source\PSoC4/UART_UART.c ****             UART_UART_FLOW_CTRL_REG = uartFlowCtrl;
 515              		.loc 1 659 0
 516 0022 034B     		ldr	r3, .L34
 517 0024 FA68     		ldr	r2, [r7, #12]
 518 0026 1A60     		str	r2, [r3]
 660:.\Generated_Source\PSoC4/UART_UART.c ****         }
 519              		.loc 1 660 0
 520 0028 BD46     		mov	sp, r7
 521 002a 04B0     		add	sp, sp, #16
 522              		@ sp needed
 523 002c 80BD     		pop	{r7, pc}
 524              	.L35:
 525 002e C046     		.align	2
 526              	.L34:
 527 0030 50002740 		.word	1076297808
 528              		.cfi_endproc
 529              	.LFE9:
 530              		.size	UART_UartSetRtsFifoLevel, .-UART_UartSetRtsFifoLevel
 531              		.section	.text.UART_UartPutString,"ax",%progbits
 532              		.align	2
 533              		.global	UART_UartPutString
 534              		.code	16
 535              		.thumb_func
 536              		.type	UART_UartPutString, %function
 537              	UART_UartPutString:
ARM GAS  C:\Users\passw\AppData\Local\Temp\ccAKcy8H.s 			page 22


 538              	.LFB10:
 661:.\Generated_Source\PSoC4/UART_UART.c ****     #endif /* !(UART_CY_SCBIP_V0 || UART_CY_SCBIP_V1) */
 662:.\Generated_Source\PSoC4/UART_UART.c **** 
 663:.\Generated_Source\PSoC4/UART_UART.c **** #endif /* (UART_UART_RX_DIRECTION) */
 664:.\Generated_Source\PSoC4/UART_UART.c **** 
 665:.\Generated_Source\PSoC4/UART_UART.c **** 
 666:.\Generated_Source\PSoC4/UART_UART.c **** #if(UART_UART_TX_DIRECTION)
 667:.\Generated_Source\PSoC4/UART_UART.c ****     /*******************************************************************************
 668:.\Generated_Source\PSoC4/UART_UART.c ****     * Function Name: UART_UartPutString
 669:.\Generated_Source\PSoC4/UART_UART.c ****     ********************************************************************************
 670:.\Generated_Source\PSoC4/UART_UART.c ****     *
 671:.\Generated_Source\PSoC4/UART_UART.c ****     * Summary:
 672:.\Generated_Source\PSoC4/UART_UART.c ****     *  Places a NULL terminated string in the transmit buffer to be sent at the
 673:.\Generated_Source\PSoC4/UART_UART.c ****     *  next available bus time.
 674:.\Generated_Source\PSoC4/UART_UART.c ****     *  This function is blocking and waits until there is space available to put
 675:.\Generated_Source\PSoC4/UART_UART.c ****     *  all the requested data into the  transmit buffer.
 676:.\Generated_Source\PSoC4/UART_UART.c ****     *
 677:.\Generated_Source\PSoC4/UART_UART.c ****     * Parameters:
 678:.\Generated_Source\PSoC4/UART_UART.c ****     *  string: pointer to the null terminated string array to be placed in the
 679:.\Generated_Source\PSoC4/UART_UART.c ****     *          transmit buffer.
 680:.\Generated_Source\PSoC4/UART_UART.c ****     *
 681:.\Generated_Source\PSoC4/UART_UART.c ****     * Return:
 682:.\Generated_Source\PSoC4/UART_UART.c ****     *  None
 683:.\Generated_Source\PSoC4/UART_UART.c ****     *
 684:.\Generated_Source\PSoC4/UART_UART.c ****     *******************************************************************************/
 685:.\Generated_Source\PSoC4/UART_UART.c ****     void UART_UartPutString(const char8 string[])
 686:.\Generated_Source\PSoC4/UART_UART.c ****     {
 539              		.loc 1 686 0
 540              		.cfi_startproc
 541 0000 80B5     		push	{r7, lr}
 542              		.cfi_def_cfa_offset 8
 543              		.cfi_offset 7, -8
 544              		.cfi_offset 14, -4
 545 0002 84B0     		sub	sp, sp, #16
 546              		.cfi_def_cfa_offset 24
 547 0004 00AF     		add	r7, sp, #0
 548              		.cfi_def_cfa_register 7
 549 0006 7860     		str	r0, [r7, #4]
 687:.\Generated_Source\PSoC4/UART_UART.c ****         uint32 bufIndex;
 688:.\Generated_Source\PSoC4/UART_UART.c **** 
 689:.\Generated_Source\PSoC4/UART_UART.c ****         bufIndex = 0u;
 550              		.loc 1 689 0
 551 0008 0023     		mov	r3, #0
 552 000a FB60     		str	r3, [r7, #12]
 690:.\Generated_Source\PSoC4/UART_UART.c **** 
 691:.\Generated_Source\PSoC4/UART_UART.c ****         /* Blocks the control flow until all data has been sent */
 692:.\Generated_Source\PSoC4/UART_UART.c ****         while(string[bufIndex] != ((char8) 0))
 553              		.loc 1 692 0
 554 000c 09E0     		b	.L37
 555              	.L38:
 693:.\Generated_Source\PSoC4/UART_UART.c ****         {
 694:.\Generated_Source\PSoC4/UART_UART.c ****             UART_UartPutChar((uint32) string[bufIndex]);
 556              		.loc 1 694 0
 557 000e 7A68     		ldr	r2, [r7, #4]
 558 0010 FB68     		ldr	r3, [r7, #12]
 559 0012 D318     		add	r3, r2, r3
 560 0014 1B78     		ldrb	r3, [r3]
ARM GAS  C:\Users\passw\AppData\Local\Temp\ccAKcy8H.s 			page 23


 561 0016 181C     		mov	r0, r3
 562 0018 FFF7FEFF 		bl	UART_SpiUartWriteTxData
 695:.\Generated_Source\PSoC4/UART_UART.c ****             bufIndex++;
 563              		.loc 1 695 0
 564 001c FB68     		ldr	r3, [r7, #12]
 565 001e 0133     		add	r3, r3, #1
 566 0020 FB60     		str	r3, [r7, #12]
 567              	.L37:
 692:.\Generated_Source\PSoC4/UART_UART.c ****         {
 568              		.loc 1 692 0
 569 0022 7A68     		ldr	r2, [r7, #4]
 570 0024 FB68     		ldr	r3, [r7, #12]
 571 0026 D318     		add	r3, r2, r3
 572 0028 1B78     		ldrb	r3, [r3]
 573 002a 002B     		cmp	r3, #0
 574 002c EFD1     		bne	.L38
 696:.\Generated_Source\PSoC4/UART_UART.c ****         }
 697:.\Generated_Source\PSoC4/UART_UART.c ****     }
 575              		.loc 1 697 0
 576 002e BD46     		mov	sp, r7
 577 0030 04B0     		add	sp, sp, #16
 578              		@ sp needed
 579 0032 80BD     		pop	{r7, pc}
 580              		.cfi_endproc
 581              	.LFE10:
 582              		.size	UART_UartPutString, .-UART_UartPutString
 583              		.section	.text.UART_UartPutCRLF,"ax",%progbits
 584              		.align	2
 585              		.global	UART_UartPutCRLF
 586              		.code	16
 587              		.thumb_func
 588              		.type	UART_UartPutCRLF, %function
 589              	UART_UartPutCRLF:
 590              	.LFB11:
 698:.\Generated_Source\PSoC4/UART_UART.c **** 
 699:.\Generated_Source\PSoC4/UART_UART.c **** 
 700:.\Generated_Source\PSoC4/UART_UART.c ****     /*******************************************************************************
 701:.\Generated_Source\PSoC4/UART_UART.c ****     * Function Name: UART_UartPutCRLF
 702:.\Generated_Source\PSoC4/UART_UART.c ****     ********************************************************************************
 703:.\Generated_Source\PSoC4/UART_UART.c ****     *
 704:.\Generated_Source\PSoC4/UART_UART.c ****     * Summary:
 705:.\Generated_Source\PSoC4/UART_UART.c ****     *  Places a byte of data followed by a carriage return (0x0D) and
 706:.\Generated_Source\PSoC4/UART_UART.c ****     *  line feed (0x0A) into the transmit buffer.
 707:.\Generated_Source\PSoC4/UART_UART.c ****     *  This function is blocking and waits until there is space available to put
 708:.\Generated_Source\PSoC4/UART_UART.c ****     *  all the requested data into the  transmit buffer.
 709:.\Generated_Source\PSoC4/UART_UART.c ****     *
 710:.\Generated_Source\PSoC4/UART_UART.c ****     * Parameters:
 711:.\Generated_Source\PSoC4/UART_UART.c ****     *  txDataByte : the data to be transmitted.
 712:.\Generated_Source\PSoC4/UART_UART.c ****     *
 713:.\Generated_Source\PSoC4/UART_UART.c ****     * Return:
 714:.\Generated_Source\PSoC4/UART_UART.c ****     *  None
 715:.\Generated_Source\PSoC4/UART_UART.c ****     *
 716:.\Generated_Source\PSoC4/UART_UART.c ****     *******************************************************************************/
 717:.\Generated_Source\PSoC4/UART_UART.c ****     void UART_UartPutCRLF(uint32 txDataByte)
 718:.\Generated_Source\PSoC4/UART_UART.c ****     {
 591              		.loc 1 718 0
 592              		.cfi_startproc
ARM GAS  C:\Users\passw\AppData\Local\Temp\ccAKcy8H.s 			page 24


 593 0000 80B5     		push	{r7, lr}
 594              		.cfi_def_cfa_offset 8
 595              		.cfi_offset 7, -8
 596              		.cfi_offset 14, -4
 597 0002 82B0     		sub	sp, sp, #8
 598              		.cfi_def_cfa_offset 16
 599 0004 00AF     		add	r7, sp, #0
 600              		.cfi_def_cfa_register 7
 601 0006 7860     		str	r0, [r7, #4]
 719:.\Generated_Source\PSoC4/UART_UART.c ****         UART_UartPutChar(txDataByte);  /* Blocks control flow until all data has been sent */
 602              		.loc 1 719 0
 603 0008 7B68     		ldr	r3, [r7, #4]
 604 000a 181C     		mov	r0, r3
 605 000c FFF7FEFF 		bl	UART_SpiUartWriteTxData
 720:.\Generated_Source\PSoC4/UART_UART.c ****         UART_UartPutChar(0x0Du);       /* Blocks control flow until all data has been sent */
 606              		.loc 1 720 0
 607 0010 0D20     		mov	r0, #13
 608 0012 FFF7FEFF 		bl	UART_SpiUartWriteTxData
 721:.\Generated_Source\PSoC4/UART_UART.c ****         UART_UartPutChar(0x0Au);       /* Blocks control flow until all data has been sent */
 609              		.loc 1 721 0
 610 0016 0A20     		mov	r0, #10
 611 0018 FFF7FEFF 		bl	UART_SpiUartWriteTxData
 722:.\Generated_Source\PSoC4/UART_UART.c ****     }
 612              		.loc 1 722 0
 613 001c BD46     		mov	sp, r7
 614 001e 02B0     		add	sp, sp, #8
 615              		@ sp needed
 616 0020 80BD     		pop	{r7, pc}
 617              		.cfi_endproc
 618              	.LFE11:
 619              		.size	UART_UartPutCRLF, .-UART_UartPutCRLF
 620 0022 C046     		.section	.text.UART_UartEnableCts,"ax",%progbits
 621              		.align	2
 622              		.global	UART_UartEnableCts
 623              		.code	16
 624              		.thumb_func
 625              		.type	UART_UartEnableCts, %function
 626              	UART_UartEnableCts:
 627              	.LFB12:
 723:.\Generated_Source\PSoC4/UART_UART.c **** 
 724:.\Generated_Source\PSoC4/UART_UART.c **** 
 725:.\Generated_Source\PSoC4/UART_UART.c ****     #if !(UART_CY_SCBIP_V0 || UART_CY_SCBIP_V1)
 726:.\Generated_Source\PSoC4/UART_UART.c ****         /*******************************************************************************
 727:.\Generated_Source\PSoC4/UART_UART.c ****         * Function Name: UARTSCB_UartEnableCts
 728:.\Generated_Source\PSoC4/UART_UART.c ****         ********************************************************************************
 729:.\Generated_Source\PSoC4/UART_UART.c ****         *
 730:.\Generated_Source\PSoC4/UART_UART.c ****         * Summary:
 731:.\Generated_Source\PSoC4/UART_UART.c ****         *  Enables usage of CTS input signal by the UART transmitter.
 732:.\Generated_Source\PSoC4/UART_UART.c ****         *
 733:.\Generated_Source\PSoC4/UART_UART.c ****         * Parameters:
 734:.\Generated_Source\PSoC4/UART_UART.c ****         *  None
 735:.\Generated_Source\PSoC4/UART_UART.c ****         *
 736:.\Generated_Source\PSoC4/UART_UART.c ****         * Return:
 737:.\Generated_Source\PSoC4/UART_UART.c ****         *  None
 738:.\Generated_Source\PSoC4/UART_UART.c ****         *
 739:.\Generated_Source\PSoC4/UART_UART.c ****         *******************************************************************************/
 740:.\Generated_Source\PSoC4/UART_UART.c ****         void UART_UartEnableCts(void)
ARM GAS  C:\Users\passw\AppData\Local\Temp\ccAKcy8H.s 			page 25


 741:.\Generated_Source\PSoC4/UART_UART.c ****         {
 628              		.loc 1 741 0
 629              		.cfi_startproc
 630 0000 80B5     		push	{r7, lr}
 631              		.cfi_def_cfa_offset 8
 632              		.cfi_offset 7, -8
 633              		.cfi_offset 14, -4
 634 0002 00AF     		add	r7, sp, #0
 635              		.cfi_def_cfa_register 7
 742:.\Generated_Source\PSoC4/UART_UART.c ****             UART_UART_FLOW_CTRL_REG |= (uint32)  UART_UART_FLOW_CTRL_CTS_ENABLE;
 636              		.loc 1 742 0
 637 0004 044B     		ldr	r3, .L41
 638 0006 044A     		ldr	r2, .L41
 639 0008 1268     		ldr	r2, [r2]
 640 000a 8021     		mov	r1, #128
 641 000c 8904     		lsl	r1, r1, #18
 642 000e 0A43     		orr	r2, r1
 643 0010 1A60     		str	r2, [r3]
 743:.\Generated_Source\PSoC4/UART_UART.c ****         }
 644              		.loc 1 743 0
 645 0012 BD46     		mov	sp, r7
 646              		@ sp needed
 647 0014 80BD     		pop	{r7, pc}
 648              	.L42:
 649 0016 C046     		.align	2
 650              	.L41:
 651 0018 50002740 		.word	1076297808
 652              		.cfi_endproc
 653              	.LFE12:
 654              		.size	UART_UartEnableCts, .-UART_UartEnableCts
 655              		.section	.text.UART_UartDisableCts,"ax",%progbits
 656              		.align	2
 657              		.global	UART_UartDisableCts
 658              		.code	16
 659              		.thumb_func
 660              		.type	UART_UartDisableCts, %function
 661              	UART_UartDisableCts:
 662              	.LFB13:
 744:.\Generated_Source\PSoC4/UART_UART.c **** 
 745:.\Generated_Source\PSoC4/UART_UART.c **** 
 746:.\Generated_Source\PSoC4/UART_UART.c ****         /*******************************************************************************
 747:.\Generated_Source\PSoC4/UART_UART.c ****         * Function Name: UART_UartDisableCts
 748:.\Generated_Source\PSoC4/UART_UART.c ****         ********************************************************************************
 749:.\Generated_Source\PSoC4/UART_UART.c ****         *
 750:.\Generated_Source\PSoC4/UART_UART.c ****         * Summary:
 751:.\Generated_Source\PSoC4/UART_UART.c ****         *  Disables usage of CTS input signal by the UART transmitter.
 752:.\Generated_Source\PSoC4/UART_UART.c ****         *
 753:.\Generated_Source\PSoC4/UART_UART.c ****         * Parameters:
 754:.\Generated_Source\PSoC4/UART_UART.c ****         *  None
 755:.\Generated_Source\PSoC4/UART_UART.c ****         *
 756:.\Generated_Source\PSoC4/UART_UART.c ****         * Return:
 757:.\Generated_Source\PSoC4/UART_UART.c ****         *  None
 758:.\Generated_Source\PSoC4/UART_UART.c ****         *
 759:.\Generated_Source\PSoC4/UART_UART.c ****         *******************************************************************************/
 760:.\Generated_Source\PSoC4/UART_UART.c ****         void UART_UartDisableCts(void)
 761:.\Generated_Source\PSoC4/UART_UART.c ****         {
 663              		.loc 1 761 0
ARM GAS  C:\Users\passw\AppData\Local\Temp\ccAKcy8H.s 			page 26


 664              		.cfi_startproc
 665 0000 80B5     		push	{r7, lr}
 666              		.cfi_def_cfa_offset 8
 667              		.cfi_offset 7, -8
 668              		.cfi_offset 14, -4
 669 0002 00AF     		add	r7, sp, #0
 670              		.cfi_def_cfa_register 7
 762:.\Generated_Source\PSoC4/UART_UART.c ****             UART_UART_FLOW_CTRL_REG &= (uint32) ~UART_UART_FLOW_CTRL_CTS_ENABLE;
 671              		.loc 1 762 0
 672 0004 034B     		ldr	r3, .L44
 673 0006 034A     		ldr	r2, .L44
 674 0008 1268     		ldr	r2, [r2]
 675 000a 0349     		ldr	r1, .L44+4
 676 000c 0A40     		and	r2, r1
 677 000e 1A60     		str	r2, [r3]
 763:.\Generated_Source\PSoC4/UART_UART.c ****         }
 678              		.loc 1 763 0
 679 0010 BD46     		mov	sp, r7
 680              		@ sp needed
 681 0012 80BD     		pop	{r7, pc}
 682              	.L45:
 683              		.align	2
 684              	.L44:
 685 0014 50002740 		.word	1076297808
 686 0018 FFFFFFFD 		.word	-33554433
 687              		.cfi_endproc
 688              	.LFE13:
 689              		.size	UART_UartDisableCts, .-UART_UartDisableCts
 690              		.section	.text.UART_UartSetCtsPolarity,"ax",%progbits
 691              		.align	2
 692              		.global	UART_UartSetCtsPolarity
 693              		.code	16
 694              		.thumb_func
 695              		.type	UART_UartSetCtsPolarity, %function
 696              	UART_UartSetCtsPolarity:
 697              	.LFB14:
 764:.\Generated_Source\PSoC4/UART_UART.c **** 
 765:.\Generated_Source\PSoC4/UART_UART.c **** 
 766:.\Generated_Source\PSoC4/UART_UART.c ****         /*******************************************************************************
 767:.\Generated_Source\PSoC4/UART_UART.c ****         * Function Name: UART_UartSetCtsPolarity
 768:.\Generated_Source\PSoC4/UART_UART.c ****         ********************************************************************************
 769:.\Generated_Source\PSoC4/UART_UART.c ****         *
 770:.\Generated_Source\PSoC4/UART_UART.c ****         * Summary:
 771:.\Generated_Source\PSoC4/UART_UART.c ****         *  Sets active polarity of CTS input signal.
 772:.\Generated_Source\PSoC4/UART_UART.c ****         *
 773:.\Generated_Source\PSoC4/UART_UART.c ****         * Parameters:
 774:.\Generated_Source\PSoC4/UART_UART.c ****         *  polarity: Active polarity of CTS output signal.
 775:.\Generated_Source\PSoC4/UART_UART.c ****         *   UART_UART_CTS_ACTIVE_LOW  - CTS signal is active low.
 776:.\Generated_Source\PSoC4/UART_UART.c ****         *   UART_UART_CTS_ACTIVE_HIGH - CTS signal is active high.
 777:.\Generated_Source\PSoC4/UART_UART.c ****         *
 778:.\Generated_Source\PSoC4/UART_UART.c ****         * Return:
 779:.\Generated_Source\PSoC4/UART_UART.c ****         *  None
 780:.\Generated_Source\PSoC4/UART_UART.c ****         *
 781:.\Generated_Source\PSoC4/UART_UART.c ****         *******************************************************************************/
 782:.\Generated_Source\PSoC4/UART_UART.c ****         void UART_UartSetCtsPolarity(uint32 polarity)
 783:.\Generated_Source\PSoC4/UART_UART.c ****         {
 698              		.loc 1 783 0
ARM GAS  C:\Users\passw\AppData\Local\Temp\ccAKcy8H.s 			page 27


 699              		.cfi_startproc
 700 0000 80B5     		push	{r7, lr}
 701              		.cfi_def_cfa_offset 8
 702              		.cfi_offset 7, -8
 703              		.cfi_offset 14, -4
 704 0002 82B0     		sub	sp, sp, #8
 705              		.cfi_def_cfa_offset 16
 706 0004 00AF     		add	r7, sp, #0
 707              		.cfi_def_cfa_register 7
 708 0006 7860     		str	r0, [r7, #4]
 784:.\Generated_Source\PSoC4/UART_UART.c ****             if (0u != polarity)
 709              		.loc 1 784 0
 710 0008 7B68     		ldr	r3, [r7, #4]
 711 000a 002B     		cmp	r3, #0
 712 000c 07D0     		beq	.L47
 785:.\Generated_Source\PSoC4/UART_UART.c ****             {
 786:.\Generated_Source\PSoC4/UART_UART.c ****                 UART_UART_FLOW_CTRL_REG |= (uint32)  UART_UART_FLOW_CTRL_CTS_POLARITY;
 713              		.loc 1 786 0
 714 000e 084B     		ldr	r3, .L49
 715 0010 074A     		ldr	r2, .L49
 716 0012 1268     		ldr	r2, [r2]
 717 0014 8021     		mov	r1, #128
 718 0016 4904     		lsl	r1, r1, #17
 719 0018 0A43     		orr	r2, r1
 720 001a 1A60     		str	r2, [r3]
 721 001c 05E0     		b	.L46
 722              	.L47:
 787:.\Generated_Source\PSoC4/UART_UART.c ****             }
 788:.\Generated_Source\PSoC4/UART_UART.c ****             else
 789:.\Generated_Source\PSoC4/UART_UART.c ****             {
 790:.\Generated_Source\PSoC4/UART_UART.c ****                 UART_UART_FLOW_CTRL_REG &= (uint32) ~UART_UART_FLOW_CTRL_CTS_POLARITY;
 723              		.loc 1 790 0
 724 001e 044B     		ldr	r3, .L49
 725 0020 034A     		ldr	r2, .L49
 726 0022 1268     		ldr	r2, [r2]
 727 0024 0349     		ldr	r1, .L49+4
 728 0026 0A40     		and	r2, r1
 729 0028 1A60     		str	r2, [r3]
 730              	.L46:
 791:.\Generated_Source\PSoC4/UART_UART.c ****             }
 792:.\Generated_Source\PSoC4/UART_UART.c ****         }
 731              		.loc 1 792 0
 732 002a BD46     		mov	sp, r7
 733 002c 02B0     		add	sp, sp, #8
 734              		@ sp needed
 735 002e 80BD     		pop	{r7, pc}
 736              	.L50:
 737              		.align	2
 738              	.L49:
 739 0030 50002740 		.word	1076297808
 740 0034 FFFFFFFE 		.word	-16777217
 741              		.cfi_endproc
 742              	.LFE14:
 743              		.size	UART_UartSetCtsPolarity, .-UART_UartSetCtsPolarity
 744              		.text
 745              	.Letext0:
 746              		.file 2 "Generated_Source\\PSoC4/cytypes.h"
ARM GAS  C:\Users\passw\AppData\Local\Temp\ccAKcy8H.s 			page 28

