ARM GAS  C:\Users\passw\AppData\Local\Temp\ccAKcy8H.s 			page 1


   1              		.cpu cortex-m0
   2              		.fpu softvfp
   3              		.eabi_attribute 20, 1
   4              		.eabi_attribute 21, 1
   5              		.eabi_attribute 23, 3
   6              		.eabi_attribute 24, 1
   7              		.eabi_attribute 25, 1
   8              		.eabi_attribute 26, 1
   9              		.eabi_attribute 30, 6
  10              		.eabi_attribute 34, 0
  11              		.eabi_attribute 18, 4
  12              		.code	16
  13              		.file	"UART_UART.c"
  14              		.text
  15              	.Ltext0:
  16              		.cfi_sections	.debug_frame
  17              		.section	.text.UART_UartInit,"ax",%progbits
  18              		.align	2
  19              		.global	UART_UartInit
  20              		.code	16
  21              		.thumb_func
  22              		.type	UART_UartInit, %function
  23              	UART_UartInit:
  24              	.LFB1:
  25              		.file 1 ".\\Generated_Source\\PSoC4\\UART_UART.c"
   1:.\Generated_Source\PSoC4/UART_UART.c **** /*******************************************************************************
   2:.\Generated_Source\PSoC4/UART_UART.c **** * File Name: UART_UART.c
   3:.\Generated_Source\PSoC4/UART_UART.c **** * Version 3.10
   4:.\Generated_Source\PSoC4/UART_UART.c **** *
   5:.\Generated_Source\PSoC4/UART_UART.c **** * Description:
   6:.\Generated_Source\PSoC4/UART_UART.c **** *  This file provides the source code to the API for the SCB Component in
   7:.\Generated_Source\PSoC4/UART_UART.c **** *  UART mode.
   8:.\Generated_Source\PSoC4/UART_UART.c **** *
   9:.\Generated_Source\PSoC4/UART_UART.c **** * Note:
  10:.\Generated_Source\PSoC4/UART_UART.c **** *
  11:.\Generated_Source\PSoC4/UART_UART.c **** *******************************************************************************
  12:.\Generated_Source\PSoC4/UART_UART.c **** * Copyright 2013-2015, Cypress Semiconductor Corporation.  All rights reserved.
  13:.\Generated_Source\PSoC4/UART_UART.c **** * You may use this file only in accordance with the license, terms, conditions,
  14:.\Generated_Source\PSoC4/UART_UART.c **** * disclaimers, and limitations in the end user license agreement accompanying
  15:.\Generated_Source\PSoC4/UART_UART.c **** * the software package with which this file was provided.
  16:.\Generated_Source\PSoC4/UART_UART.c **** *******************************************************************************/
  17:.\Generated_Source\PSoC4/UART_UART.c **** 
  18:.\Generated_Source\PSoC4/UART_UART.c **** #include "UART_PVT.h"
  19:.\Generated_Source\PSoC4/UART_UART.c **** #include "UART_SPI_UART_PVT.h"
  20:.\Generated_Source\PSoC4/UART_UART.c **** #include "cyapicallbacks.h"
  21:.\Generated_Source\PSoC4/UART_UART.c **** 
  22:.\Generated_Source\PSoC4/UART_UART.c **** #if(UART_SCB_MODE_UNCONFIG_CONST_CFG)
  23:.\Generated_Source\PSoC4/UART_UART.c **** 
  24:.\Generated_Source\PSoC4/UART_UART.c ****     /***************************************
  25:.\Generated_Source\PSoC4/UART_UART.c ****     *  Configuration Structure Initialization
  26:.\Generated_Source\PSoC4/UART_UART.c ****     ***************************************/
  27:.\Generated_Source\PSoC4/UART_UART.c **** 
  28:.\Generated_Source\PSoC4/UART_UART.c ****     const UART_UART_INIT_STRUCT UART_configUart =
  29:.\Generated_Source\PSoC4/UART_UART.c ****     {
  30:.\Generated_Source\PSoC4/UART_UART.c ****         UART_UART_SUB_MODE,
  31:.\Generated_Source\PSoC4/UART_UART.c ****         UART_UART_DIRECTION,
  32:.\Generated_Source\PSoC4/UART_UART.c ****         UART_UART_DATA_BITS_NUM,
ARM GAS  C:\Users\passw\AppData\Local\Temp\ccAKcy8H.s 			page 2


  33:.\Generated_Source\PSoC4/UART_UART.c ****         UART_UART_PARITY_TYPE,
  34:.\Generated_Source\PSoC4/UART_UART.c ****         UART_UART_STOP_BITS_NUM,
  35:.\Generated_Source\PSoC4/UART_UART.c ****         UART_UART_OVS_FACTOR,
  36:.\Generated_Source\PSoC4/UART_UART.c ****         UART_UART_IRDA_LOW_POWER,
  37:.\Generated_Source\PSoC4/UART_UART.c ****         UART_UART_MEDIAN_FILTER_ENABLE,
  38:.\Generated_Source\PSoC4/UART_UART.c ****         UART_UART_RETRY_ON_NACK,
  39:.\Generated_Source\PSoC4/UART_UART.c ****         UART_UART_IRDA_POLARITY,
  40:.\Generated_Source\PSoC4/UART_UART.c ****         UART_UART_DROP_ON_PARITY_ERR,
  41:.\Generated_Source\PSoC4/UART_UART.c ****         UART_UART_DROP_ON_FRAME_ERR,
  42:.\Generated_Source\PSoC4/UART_UART.c ****         UART_UART_WAKE_ENABLE,
  43:.\Generated_Source\PSoC4/UART_UART.c ****         0u,
  44:.\Generated_Source\PSoC4/UART_UART.c ****         NULL,
  45:.\Generated_Source\PSoC4/UART_UART.c ****         0u,
  46:.\Generated_Source\PSoC4/UART_UART.c ****         NULL,
  47:.\Generated_Source\PSoC4/UART_UART.c ****         UART_UART_MP_MODE_ENABLE,
  48:.\Generated_Source\PSoC4/UART_UART.c ****         UART_UART_MP_ACCEPT_ADDRESS,
  49:.\Generated_Source\PSoC4/UART_UART.c ****         UART_UART_MP_RX_ADDRESS,
  50:.\Generated_Source\PSoC4/UART_UART.c ****         UART_UART_MP_RX_ADDRESS_MASK,
  51:.\Generated_Source\PSoC4/UART_UART.c ****         (uint32) UART_SCB_IRQ_INTERNAL,
  52:.\Generated_Source\PSoC4/UART_UART.c ****         UART_UART_INTR_RX_MASK,
  53:.\Generated_Source\PSoC4/UART_UART.c ****         UART_UART_RX_TRIGGER_LEVEL,
  54:.\Generated_Source\PSoC4/UART_UART.c ****         UART_UART_INTR_TX_MASK,
  55:.\Generated_Source\PSoC4/UART_UART.c ****         UART_UART_TX_TRIGGER_LEVEL,
  56:.\Generated_Source\PSoC4/UART_UART.c ****         (uint8) UART_UART_BYTE_MODE_ENABLE,
  57:.\Generated_Source\PSoC4/UART_UART.c ****         (uint8) UART_UART_CTS_ENABLE,
  58:.\Generated_Source\PSoC4/UART_UART.c ****         (uint8) UART_UART_CTS_POLARITY,
  59:.\Generated_Source\PSoC4/UART_UART.c ****         (uint8) UART_UART_RTS_POLARITY,
  60:.\Generated_Source\PSoC4/UART_UART.c ****         (uint8) UART_UART_RTS_FIFO_LEVEL
  61:.\Generated_Source\PSoC4/UART_UART.c ****     };
  62:.\Generated_Source\PSoC4/UART_UART.c **** 
  63:.\Generated_Source\PSoC4/UART_UART.c **** 
  64:.\Generated_Source\PSoC4/UART_UART.c ****     /*******************************************************************************
  65:.\Generated_Source\PSoC4/UART_UART.c ****     * Function Name: UART_UartInit
  66:.\Generated_Source\PSoC4/UART_UART.c ****     ********************************************************************************
  67:.\Generated_Source\PSoC4/UART_UART.c ****     *
  68:.\Generated_Source\PSoC4/UART_UART.c ****     * Summary:
  69:.\Generated_Source\PSoC4/UART_UART.c ****     *  Configures the SCB for the UART operation.
  70:.\Generated_Source\PSoC4/UART_UART.c ****     *
  71:.\Generated_Source\PSoC4/UART_UART.c ****     * Parameters:
  72:.\Generated_Source\PSoC4/UART_UART.c ****     *  config:  Pointer to a structure that contains the following ordered list of
  73:.\Generated_Source\PSoC4/UART_UART.c ****     *           fields. These fields match the selections available in the
  74:.\Generated_Source\PSoC4/UART_UART.c ****     *           customizer.
  75:.\Generated_Source\PSoC4/UART_UART.c ****     *
  76:.\Generated_Source\PSoC4/UART_UART.c ****     * Return:
  77:.\Generated_Source\PSoC4/UART_UART.c ****     *  None
  78:.\Generated_Source\PSoC4/UART_UART.c ****     *
  79:.\Generated_Source\PSoC4/UART_UART.c ****     *******************************************************************************/
  80:.\Generated_Source\PSoC4/UART_UART.c ****     void UART_UartInit(const UART_UART_INIT_STRUCT *config)
  81:.\Generated_Source\PSoC4/UART_UART.c ****     {
  82:.\Generated_Source\PSoC4/UART_UART.c ****         uint32 pinsConfig;
  83:.\Generated_Source\PSoC4/UART_UART.c **** 
  84:.\Generated_Source\PSoC4/UART_UART.c ****         if (NULL == config)
  85:.\Generated_Source\PSoC4/UART_UART.c ****         {
  86:.\Generated_Source\PSoC4/UART_UART.c ****             CYASSERT(0u != 0u); /* Halt execution due to bad function parameter */
  87:.\Generated_Source\PSoC4/UART_UART.c ****         }
  88:.\Generated_Source\PSoC4/UART_UART.c ****         else
  89:.\Generated_Source\PSoC4/UART_UART.c ****         {
ARM GAS  C:\Users\passw\AppData\Local\Temp\ccAKcy8H.s 			page 3


  90:.\Generated_Source\PSoC4/UART_UART.c ****             /* Get direction to configure UART pins: TX, RX or TX+RX */
  91:.\Generated_Source\PSoC4/UART_UART.c ****             pinsConfig  = config->direction;
  92:.\Generated_Source\PSoC4/UART_UART.c **** 
  93:.\Generated_Source\PSoC4/UART_UART.c ****         #if !(UART_CY_SCBIP_V0 || UART_CY_SCBIP_V1)
  94:.\Generated_Source\PSoC4/UART_UART.c ****             /* Add RTS and CTS pins to configure */
  95:.\Generated_Source\PSoC4/UART_UART.c ****             pinsConfig |= (0u != config->rtsRxFifoLevel) ? (UART_UART_RTS_PIN_ENABLE) : (0u);
  96:.\Generated_Source\PSoC4/UART_UART.c ****             pinsConfig |= (0u != config->enableCts)      ? (UART_UART_CTS_PIN_ENABLE) : (0u);
  97:.\Generated_Source\PSoC4/UART_UART.c ****         #endif /* !(UART_CY_SCBIP_V0 || UART_CY_SCBIP_V1) */
  98:.\Generated_Source\PSoC4/UART_UART.c **** 
  99:.\Generated_Source\PSoC4/UART_UART.c ****             /* Configure pins */
 100:.\Generated_Source\PSoC4/UART_UART.c ****             UART_SetPins(UART_SCB_MODE_UART, config->mode, pinsConfig);
 101:.\Generated_Source\PSoC4/UART_UART.c **** 
 102:.\Generated_Source\PSoC4/UART_UART.c ****             /* Store internal configuration */
 103:.\Generated_Source\PSoC4/UART_UART.c ****             UART_scbMode       = (uint8) UART_SCB_MODE_UART;
 104:.\Generated_Source\PSoC4/UART_UART.c ****             UART_scbEnableWake = (uint8) config->enableWake;
 105:.\Generated_Source\PSoC4/UART_UART.c ****             UART_scbEnableIntr = (uint8) config->enableInterrupt;
 106:.\Generated_Source\PSoC4/UART_UART.c **** 
 107:.\Generated_Source\PSoC4/UART_UART.c ****             /* Set RX direction internal variables */
 108:.\Generated_Source\PSoC4/UART_UART.c ****             UART_rxBuffer      =         config->rxBuffer;
 109:.\Generated_Source\PSoC4/UART_UART.c ****             UART_rxDataBits    = (uint8) config->dataBits;
 110:.\Generated_Source\PSoC4/UART_UART.c ****             UART_rxBufferSize  = (uint8) config->rxBufferSize;
 111:.\Generated_Source\PSoC4/UART_UART.c **** 
 112:.\Generated_Source\PSoC4/UART_UART.c ****             /* Set TX direction internal variables */
 113:.\Generated_Source\PSoC4/UART_UART.c ****             UART_txBuffer      =         config->txBuffer;
 114:.\Generated_Source\PSoC4/UART_UART.c ****             UART_txDataBits    = (uint8) config->dataBits;
 115:.\Generated_Source\PSoC4/UART_UART.c ****             UART_txBufferSize  = (uint8) config->txBufferSize;
 116:.\Generated_Source\PSoC4/UART_UART.c **** 
 117:.\Generated_Source\PSoC4/UART_UART.c ****             /* Configure UART interface */
 118:.\Generated_Source\PSoC4/UART_UART.c ****             if(UART_UART_MODE_IRDA == config->mode)
 119:.\Generated_Source\PSoC4/UART_UART.c ****             {
 120:.\Generated_Source\PSoC4/UART_UART.c ****                 /* OVS settings: IrDA */
 121:.\Generated_Source\PSoC4/UART_UART.c ****                 UART_CTRL_REG  = ((0u != config->enableIrdaLowPower) ?
 122:.\Generated_Source\PSoC4/UART_UART.c ****                                                 (UART_UART_GET_CTRL_OVS_IRDA_LP(config->oversample)
 123:.\Generated_Source\PSoC4/UART_UART.c ****                                                 (UART_CTRL_OVS_IRDA_OVS16));
 124:.\Generated_Source\PSoC4/UART_UART.c ****             }
 125:.\Generated_Source\PSoC4/UART_UART.c ****             else
 126:.\Generated_Source\PSoC4/UART_UART.c ****             {
 127:.\Generated_Source\PSoC4/UART_UART.c ****                 /* OVS settings: UART and SmartCard */
 128:.\Generated_Source\PSoC4/UART_UART.c ****                 UART_CTRL_REG  = UART_GET_CTRL_OVS(config->oversample);
 129:.\Generated_Source\PSoC4/UART_UART.c ****             }
 130:.\Generated_Source\PSoC4/UART_UART.c **** 
 131:.\Generated_Source\PSoC4/UART_UART.c ****             UART_CTRL_REG     |= UART_GET_CTRL_BYTE_MODE  (config->enableByteMode)      |
 132:.\Generated_Source\PSoC4/UART_UART.c ****                                              UART_GET_CTRL_ADDR_ACCEPT(config->multiprocAcceptAddr)
 133:.\Generated_Source\PSoC4/UART_UART.c ****                                              UART_CTRL_UART;
 134:.\Generated_Source\PSoC4/UART_UART.c **** 
 135:.\Generated_Source\PSoC4/UART_UART.c ****             /* Configure sub-mode: UART, SmartCard or IrDA */
 136:.\Generated_Source\PSoC4/UART_UART.c ****             UART_UART_CTRL_REG = UART_GET_UART_CTRL_MODE(config->mode);
 137:.\Generated_Source\PSoC4/UART_UART.c **** 
 138:.\Generated_Source\PSoC4/UART_UART.c ****             /* Configure RX direction */
 139:.\Generated_Source\PSoC4/UART_UART.c ****             UART_UART_RX_CTRL_REG = UART_GET_UART_RX_CTRL_MODE(config->stopBits)              |
 140:.\Generated_Source\PSoC4/UART_UART.c ****                                         UART_GET_UART_RX_CTRL_POLARITY(config->enableInvertedRx)   
 141:.\Generated_Source\PSoC4/UART_UART.c ****                                         UART_GET_UART_RX_CTRL_MP_MODE(config->enableMultiproc)     
 142:.\Generated_Source\PSoC4/UART_UART.c ****                                         UART_GET_UART_RX_CTRL_DROP_ON_PARITY_ERR(config->dropOnPari
 143:.\Generated_Source\PSoC4/UART_UART.c ****                                         UART_GET_UART_RX_CTRL_DROP_ON_FRAME_ERR(config->dropOnFrame
 144:.\Generated_Source\PSoC4/UART_UART.c **** 
 145:.\Generated_Source\PSoC4/UART_UART.c ****             if(UART_UART_PARITY_NONE != config->parity)
 146:.\Generated_Source\PSoC4/UART_UART.c ****             {
ARM GAS  C:\Users\passw\AppData\Local\Temp\ccAKcy8H.s 			page 4


 147:.\Generated_Source\PSoC4/UART_UART.c ****                UART_UART_RX_CTRL_REG |= UART_GET_UART_RX_CTRL_PARITY(config->parity) |
 148:.\Generated_Source\PSoC4/UART_UART.c ****                                                     UART_UART_RX_CTRL_PARITY_ENABLED;
 149:.\Generated_Source\PSoC4/UART_UART.c ****             }
 150:.\Generated_Source\PSoC4/UART_UART.c **** 
 151:.\Generated_Source\PSoC4/UART_UART.c ****             UART_RX_CTRL_REG      = UART_GET_RX_CTRL_DATA_WIDTH(config->dataBits)       |
 152:.\Generated_Source\PSoC4/UART_UART.c ****                                                 UART_GET_RX_CTRL_MEDIAN(config->enableMedianFilter)
 153:.\Generated_Source\PSoC4/UART_UART.c ****                                                 UART_GET_UART_RX_CTRL_ENABLED(config->direction);
 154:.\Generated_Source\PSoC4/UART_UART.c **** 
 155:.\Generated_Source\PSoC4/UART_UART.c ****             UART_RX_FIFO_CTRL_REG = UART_GET_RX_FIFO_CTRL_TRIGGER_LEVEL(config->rxTriggerLevel);
 156:.\Generated_Source\PSoC4/UART_UART.c **** 
 157:.\Generated_Source\PSoC4/UART_UART.c ****             /* Configure MP address */
 158:.\Generated_Source\PSoC4/UART_UART.c ****             UART_RX_MATCH_REG     = UART_GET_RX_MATCH_ADDR(config->multiprocAddr) |
 159:.\Generated_Source\PSoC4/UART_UART.c ****                                                 UART_GET_RX_MATCH_MASK(config->multiprocAddrMask);
 160:.\Generated_Source\PSoC4/UART_UART.c **** 
 161:.\Generated_Source\PSoC4/UART_UART.c ****             /* Configure RX direction */
 162:.\Generated_Source\PSoC4/UART_UART.c ****             UART_UART_TX_CTRL_REG = UART_GET_UART_TX_CTRL_MODE(config->stopBits) |
 163:.\Generated_Source\PSoC4/UART_UART.c ****                                                 UART_GET_UART_TX_CTRL_RETRY_NACK(config->enableRetr
 164:.\Generated_Source\PSoC4/UART_UART.c **** 
 165:.\Generated_Source\PSoC4/UART_UART.c ****             if(UART_UART_PARITY_NONE != config->parity)
 166:.\Generated_Source\PSoC4/UART_UART.c ****             {
 167:.\Generated_Source\PSoC4/UART_UART.c ****                UART_UART_TX_CTRL_REG |= UART_GET_UART_TX_CTRL_PARITY(config->parity) |
 168:.\Generated_Source\PSoC4/UART_UART.c ****                                                     UART_UART_TX_CTRL_PARITY_ENABLED;
 169:.\Generated_Source\PSoC4/UART_UART.c ****             }
 170:.\Generated_Source\PSoC4/UART_UART.c **** 
 171:.\Generated_Source\PSoC4/UART_UART.c ****             UART_TX_CTRL_REG      = UART_GET_TX_CTRL_DATA_WIDTH(config->dataBits)    |
 172:.\Generated_Source\PSoC4/UART_UART.c ****                                                 UART_GET_UART_TX_CTRL_ENABLED(config->direction);
 173:.\Generated_Source\PSoC4/UART_UART.c **** 
 174:.\Generated_Source\PSoC4/UART_UART.c ****             UART_TX_FIFO_CTRL_REG = UART_GET_TX_FIFO_CTRL_TRIGGER_LEVEL(config->txTriggerLevel);
 175:.\Generated_Source\PSoC4/UART_UART.c **** 
 176:.\Generated_Source\PSoC4/UART_UART.c ****         #if !(UART_CY_SCBIP_V0 || UART_CY_SCBIP_V1)
 177:.\Generated_Source\PSoC4/UART_UART.c ****             UART_UART_FLOW_CTRL_REG = UART_GET_UART_FLOW_CTRL_CTS_ENABLE(config->enableCts) | \
 178:.\Generated_Source\PSoC4/UART_UART.c ****                                             UART_GET_UART_FLOW_CTRL_CTS_POLARITY (config->ctsPolari
 179:.\Generated_Source\PSoC4/UART_UART.c ****                                             UART_GET_UART_FLOW_CTRL_RTS_POLARITY (config->rtsPolari
 180:.\Generated_Source\PSoC4/UART_UART.c ****                                             UART_GET_UART_FLOW_CTRL_TRIGGER_LEVEL(config->rtsRxFifo
 181:.\Generated_Source\PSoC4/UART_UART.c ****         #endif /* !(UART_CY_SCBIP_V0 || UART_CY_SCBIP_V1) */
 182:.\Generated_Source\PSoC4/UART_UART.c **** 
 183:.\Generated_Source\PSoC4/UART_UART.c ****             /* Configure interrupt with UART handler but do not enable it */
 184:.\Generated_Source\PSoC4/UART_UART.c ****             CyIntDisable    (UART_ISR_NUMBER);
 185:.\Generated_Source\PSoC4/UART_UART.c ****             CyIntSetPriority(UART_ISR_NUMBER, UART_ISR_PRIORITY);
 186:.\Generated_Source\PSoC4/UART_UART.c ****             (void) CyIntSetVector(UART_ISR_NUMBER, &UART_SPI_UART_ISR);
 187:.\Generated_Source\PSoC4/UART_UART.c **** 
 188:.\Generated_Source\PSoC4/UART_UART.c ****             /* Configure WAKE interrupt */
 189:.\Generated_Source\PSoC4/UART_UART.c ****         #if(UART_UART_RX_WAKEUP_IRQ)
 190:.\Generated_Source\PSoC4/UART_UART.c ****             CyIntDisable    (UART_RX_WAKE_ISR_NUMBER);
 191:.\Generated_Source\PSoC4/UART_UART.c ****             CyIntSetPriority(UART_RX_WAKE_ISR_NUMBER, UART_RX_WAKE_ISR_PRIORITY);
 192:.\Generated_Source\PSoC4/UART_UART.c ****             (void) CyIntSetVector(UART_RX_WAKE_ISR_NUMBER, &UART_UART_WAKEUP_ISR);
 193:.\Generated_Source\PSoC4/UART_UART.c ****         #endif /* (UART_UART_RX_WAKEUP_IRQ) */
 194:.\Generated_Source\PSoC4/UART_UART.c **** 
 195:.\Generated_Source\PSoC4/UART_UART.c ****             /* Configure interrupt sources */
 196:.\Generated_Source\PSoC4/UART_UART.c ****             UART_INTR_I2C_EC_MASK_REG = UART_NO_INTR_SOURCES;
 197:.\Generated_Source\PSoC4/UART_UART.c ****             UART_INTR_SPI_EC_MASK_REG = UART_NO_INTR_SOURCES;
 198:.\Generated_Source\PSoC4/UART_UART.c ****             UART_INTR_SLAVE_MASK_REG  = UART_NO_INTR_SOURCES;
 199:.\Generated_Source\PSoC4/UART_UART.c ****             UART_INTR_MASTER_MASK_REG = UART_NO_INTR_SOURCES;
 200:.\Generated_Source\PSoC4/UART_UART.c ****             UART_INTR_RX_MASK_REG     = config->rxInterruptMask;
 201:.\Generated_Source\PSoC4/UART_UART.c ****             UART_INTR_TX_MASK_REG     = config->txInterruptMask;
 202:.\Generated_Source\PSoC4/UART_UART.c **** 
 203:.\Generated_Source\PSoC4/UART_UART.c ****             /* Clear RX buffer indexes */
ARM GAS  C:\Users\passw\AppData\Local\Temp\ccAKcy8H.s 			page 5


 204:.\Generated_Source\PSoC4/UART_UART.c ****             UART_rxBufferHead     = 0u;
 205:.\Generated_Source\PSoC4/UART_UART.c ****             UART_rxBufferTail     = 0u;
 206:.\Generated_Source\PSoC4/UART_UART.c ****             UART_rxBufferOverflow = 0u;
 207:.\Generated_Source\PSoC4/UART_UART.c **** 
 208:.\Generated_Source\PSoC4/UART_UART.c ****             /* Clear TX buffer indexes */
 209:.\Generated_Source\PSoC4/UART_UART.c ****             UART_txBufferHead = 0u;
 210:.\Generated_Source\PSoC4/UART_UART.c ****             UART_txBufferTail = 0u;
 211:.\Generated_Source\PSoC4/UART_UART.c ****         }
 212:.\Generated_Source\PSoC4/UART_UART.c ****     }
 213:.\Generated_Source\PSoC4/UART_UART.c **** 
 214:.\Generated_Source\PSoC4/UART_UART.c **** #else
 215:.\Generated_Source\PSoC4/UART_UART.c **** 
 216:.\Generated_Source\PSoC4/UART_UART.c ****     /*******************************************************************************
 217:.\Generated_Source\PSoC4/UART_UART.c ****     * Function Name: UART_UartInit
 218:.\Generated_Source\PSoC4/UART_UART.c ****     ********************************************************************************
 219:.\Generated_Source\PSoC4/UART_UART.c ****     *
 220:.\Generated_Source\PSoC4/UART_UART.c ****     * Summary:
 221:.\Generated_Source\PSoC4/UART_UART.c ****     *  Configures the SCB for the UART operation.
 222:.\Generated_Source\PSoC4/UART_UART.c ****     *
 223:.\Generated_Source\PSoC4/UART_UART.c ****     * Parameters:
 224:.\Generated_Source\PSoC4/UART_UART.c ****     *  None
 225:.\Generated_Source\PSoC4/UART_UART.c ****     *
 226:.\Generated_Source\PSoC4/UART_UART.c ****     * Return:
 227:.\Generated_Source\PSoC4/UART_UART.c ****     *  None
 228:.\Generated_Source\PSoC4/UART_UART.c ****     *
 229:.\Generated_Source\PSoC4/UART_UART.c ****     *******************************************************************************/
 230:.\Generated_Source\PSoC4/UART_UART.c ****     void UART_UartInit(void)
 231:.\Generated_Source\PSoC4/UART_UART.c ****     {
  26              		.loc 1 231 0
  27              		.cfi_startproc
  28 0000 80B5     		push	{r7, lr}
  29              		.cfi_def_cfa_offset 8
  30              		.cfi_offset 7, -8
  31              		.cfi_offset 14, -4
  32 0002 00AF     		add	r7, sp, #0
  33              		.cfi_def_cfa_register 7
 232:.\Generated_Source\PSoC4/UART_UART.c ****         /* Configure UART interface */
 233:.\Generated_Source\PSoC4/UART_UART.c ****         UART_CTRL_REG = UART_UART_DEFAULT_CTRL;
  34              		.loc 1 233 0
  35 0004 184B     		ldr	r3, .L2
  36 0006 194A     		ldr	r2, .L2+4
  37 0008 1A60     		str	r2, [r3]
 234:.\Generated_Source\PSoC4/UART_UART.c **** 
 235:.\Generated_Source\PSoC4/UART_UART.c ****         /* Configure sub-mode: UART, SmartCard or IrDA */
 236:.\Generated_Source\PSoC4/UART_UART.c ****         UART_UART_CTRL_REG = UART_UART_DEFAULT_UART_CTRL;
  38              		.loc 1 236 0
  39 000a 194B     		ldr	r3, .L2+8
  40 000c 0022     		mov	r2, #0
  41 000e 1A60     		str	r2, [r3]
 237:.\Generated_Source\PSoC4/UART_UART.c **** 
 238:.\Generated_Source\PSoC4/UART_UART.c ****         /* Configure RX direction */
 239:.\Generated_Source\PSoC4/UART_UART.c ****         UART_UART_RX_CTRL_REG = UART_UART_DEFAULT_UART_RX_CTRL;
  42              		.loc 1 239 0
  43 0010 184B     		ldr	r3, .L2+12
  44 0012 0122     		mov	r2, #1
  45 0014 1A60     		str	r2, [r3]
 240:.\Generated_Source\PSoC4/UART_UART.c ****         UART_RX_CTRL_REG      = UART_UART_DEFAULT_RX_CTRL;
ARM GAS  C:\Users\passw\AppData\Local\Temp\ccAKcy8H.s 			page 6


  46              		.loc 1 240 0
  47 0016 184B     		ldr	r3, .L2+16
  48 0018 184A     		ldr	r2, .L2+20
  49 001a 1A60     		str	r2, [r3]
 241:.\Generated_Source\PSoC4/UART_UART.c ****         UART_RX_FIFO_CTRL_REG = UART_UART_DEFAULT_RX_FIFO_CTRL;
  50              		.loc 1 241 0
  51 001c 184B     		ldr	r3, .L2+24
  52 001e 0722     		mov	r2, #7
  53 0020 1A60     		str	r2, [r3]
 242:.\Generated_Source\PSoC4/UART_UART.c ****         UART_RX_MATCH_REG     = UART_UART_DEFAULT_RX_MATCH_REG;
  54              		.loc 1 242 0
  55 0022 184B     		ldr	r3, .L2+28
  56 0024 0022     		mov	r2, #0
  57 0026 1A60     		str	r2, [r3]
 243:.\Generated_Source\PSoC4/UART_UART.c **** 
 244:.\Generated_Source\PSoC4/UART_UART.c ****         /* Configure TX direction */
 245:.\Generated_Source\PSoC4/UART_UART.c ****         UART_UART_TX_CTRL_REG = UART_UART_DEFAULT_UART_TX_CTRL;
  58              		.loc 1 245 0
  59 0028 174B     		ldr	r3, .L2+32
  60 002a 0122     		mov	r2, #1
  61 002c 1A60     		str	r2, [r3]
 246:.\Generated_Source\PSoC4/UART_UART.c ****         UART_TX_CTRL_REG      = UART_UART_DEFAULT_TX_CTRL;
  62              		.loc 1 246 0
  63 002e 174B     		ldr	r3, .L2+36
  64 0030 124A     		ldr	r2, .L2+20
  65 0032 1A60     		str	r2, [r3]
 247:.\Generated_Source\PSoC4/UART_UART.c ****         UART_TX_FIFO_CTRL_REG = UART_UART_DEFAULT_TX_FIFO_CTRL;
  66              		.loc 1 247 0
  67 0034 164B     		ldr	r3, .L2+40
  68 0036 0022     		mov	r2, #0
  69 0038 1A60     		str	r2, [r3]
 248:.\Generated_Source\PSoC4/UART_UART.c **** 
 249:.\Generated_Source\PSoC4/UART_UART.c ****     #if !(UART_CY_SCBIP_V0 || UART_CY_SCBIP_V1)
 250:.\Generated_Source\PSoC4/UART_UART.c ****         UART_UART_FLOW_CTRL_REG = UART_UART_DEFAULT_FLOW_CTRL;
  70              		.loc 1 250 0
  71 003a 164B     		ldr	r3, .L2+44
  72 003c 0422     		mov	r2, #4
  73 003e 1A60     		str	r2, [r3]
 251:.\Generated_Source\PSoC4/UART_UART.c ****     #endif /* !(UART_CY_SCBIP_V0 || UART_CY_SCBIP_V1) */
 252:.\Generated_Source\PSoC4/UART_UART.c **** 
 253:.\Generated_Source\PSoC4/UART_UART.c ****         /* Configure interrupt with UART handler but do not enable it */
 254:.\Generated_Source\PSoC4/UART_UART.c ****     #if(UART_SCB_IRQ_INTERNAL)
 255:.\Generated_Source\PSoC4/UART_UART.c ****         CyIntDisable    (UART_ISR_NUMBER);
 256:.\Generated_Source\PSoC4/UART_UART.c ****         CyIntSetPriority(UART_ISR_NUMBER, UART_ISR_PRIORITY);
 257:.\Generated_Source\PSoC4/UART_UART.c ****         (void) CyIntSetVector(UART_ISR_NUMBER, &UART_SPI_UART_ISR);
 258:.\Generated_Source\PSoC4/UART_UART.c ****     #endif /* (UART_SCB_IRQ_INTERNAL) */
 259:.\Generated_Source\PSoC4/UART_UART.c **** 
 260:.\Generated_Source\PSoC4/UART_UART.c ****         /* Configure WAKE interrupt */
 261:.\Generated_Source\PSoC4/UART_UART.c ****     #if(UART_UART_RX_WAKEUP_IRQ)
 262:.\Generated_Source\PSoC4/UART_UART.c ****         CyIntDisable    (UART_RX_WAKE_ISR_NUMBER);
 263:.\Generated_Source\PSoC4/UART_UART.c ****         CyIntSetPriority(UART_RX_WAKE_ISR_NUMBER, UART_RX_WAKE_ISR_PRIORITY);
 264:.\Generated_Source\PSoC4/UART_UART.c ****         (void) CyIntSetVector(UART_RX_WAKE_ISR_NUMBER, &UART_UART_WAKEUP_ISR);
 265:.\Generated_Source\PSoC4/UART_UART.c ****     #endif /* (UART_UART_RX_WAKEUP_IRQ) */
 266:.\Generated_Source\PSoC4/UART_UART.c **** 
 267:.\Generated_Source\PSoC4/UART_UART.c ****         /* Configure interrupt sources */
 268:.\Generated_Source\PSoC4/UART_UART.c ****         UART_INTR_I2C_EC_MASK_REG = UART_UART_DEFAULT_INTR_I2C_EC_MASK;
  74              		.loc 1 268 0
ARM GAS  C:\Users\passw\AppData\Local\Temp\ccAKcy8H.s 			page 7


  75 0040 154B     		ldr	r3, .L2+48
  76 0042 0022     		mov	r2, #0
  77 0044 1A60     		str	r2, [r3]
 269:.\Generated_Source\PSoC4/UART_UART.c ****         UART_INTR_SPI_EC_MASK_REG = UART_UART_DEFAULT_INTR_SPI_EC_MASK;
  78              		.loc 1 269 0
  79 0046 154B     		ldr	r3, .L2+52
  80 0048 0022     		mov	r2, #0
  81 004a 1A60     		str	r2, [r3]
 270:.\Generated_Source\PSoC4/UART_UART.c ****         UART_INTR_SLAVE_MASK_REG  = UART_UART_DEFAULT_INTR_SLAVE_MASK;
  82              		.loc 1 270 0
  83 004c 144B     		ldr	r3, .L2+56
  84 004e 0022     		mov	r2, #0
  85 0050 1A60     		str	r2, [r3]
 271:.\Generated_Source\PSoC4/UART_UART.c ****         UART_INTR_MASTER_MASK_REG = UART_UART_DEFAULT_INTR_MASTER_MASK;
  86              		.loc 1 271 0
  87 0052 144B     		ldr	r3, .L2+60
  88 0054 0022     		mov	r2, #0
  89 0056 1A60     		str	r2, [r3]
 272:.\Generated_Source\PSoC4/UART_UART.c ****         UART_INTR_RX_MASK_REG     = UART_UART_DEFAULT_INTR_RX_MASK;
  90              		.loc 1 272 0
  91 0058 134B     		ldr	r3, .L2+64
  92 005a 0022     		mov	r2, #0
  93 005c 1A60     		str	r2, [r3]
 273:.\Generated_Source\PSoC4/UART_UART.c ****         UART_INTR_TX_MASK_REG     = UART_UART_DEFAULT_INTR_TX_MASK;
  94              		.loc 1 273 0
  95 005e 134B     		ldr	r3, .L2+68
  96 0060 0022     		mov	r2, #0
  97 0062 1A60     		str	r2, [r3]
 274:.\Generated_Source\PSoC4/UART_UART.c **** 
 275:.\Generated_Source\PSoC4/UART_UART.c ****     #if(UART_INTERNAL_RX_SW_BUFFER_CONST)
 276:.\Generated_Source\PSoC4/UART_UART.c ****         UART_rxBufferHead     = 0u;
 277:.\Generated_Source\PSoC4/UART_UART.c ****         UART_rxBufferTail     = 0u;
 278:.\Generated_Source\PSoC4/UART_UART.c ****         UART_rxBufferOverflow = 0u;
 279:.\Generated_Source\PSoC4/UART_UART.c ****     #endif /* (UART_INTERNAL_RX_SW_BUFFER_CONST) */
 280:.\Generated_Source\PSoC4/UART_UART.c **** 
 281:.\Generated_Source\PSoC4/UART_UART.c ****     #if(UART_INTERNAL_TX_SW_BUFFER_CONST)
 282:.\Generated_Source\PSoC4/UART_UART.c ****         UART_txBufferHead = 0u;
 283:.\Generated_Source\PSoC4/UART_UART.c ****         UART_txBufferTail = 0u;
 284:.\Generated_Source\PSoC4/UART_UART.c ****     #endif /* (UART_INTERNAL_TX_SW_BUFFER_CONST) */
 285:.\Generated_Source\PSoC4/UART_UART.c ****     }
  98              		.loc 1 285 0
  99 0064 BD46     		mov	sp, r7
 100              		@ sp needed
 101 0066 80BD     		pop	{r7, pc}
 102              	.L3:
 103              		.align	2
 104              	.L2:
 105 0068 00002740 		.word	1076297728
 106 006c 0F000002 		.word	33554447
 107 0070 40002740 		.word	1076297792
 108 0074 48002740 		.word	1076297800
 109 0078 00032740 		.word	1076298496
 110 007c 07000080 		.word	-2147483641
 111 0080 04032740 		.word	1076298500
 112 0084 10032740 		.word	1076298512
 113 0088 44002740 		.word	1076297796
 114 008c 00022740 		.word	1076298240
ARM GAS  C:\Users\passw\AppData\Local\Temp\ccAKcy8H.s 			page 8


 115 0090 04022740 		.word	1076298244
 116 0094 50002740 		.word	1076297808
 117 0098 880E2740 		.word	1076301448
 118 009c C80E2740 		.word	1076301512
 119 00a0 480F2740 		.word	1076301640
 120 00a4 080F2740 		.word	1076301576
 121 00a8 C80F2740 		.word	1076301768
 122 00ac 880F2740 		.word	1076301704
 123              		.cfi_endproc
 124              	.LFE1:
 125              		.size	UART_UartInit, .-UART_UartInit
 126              		.section	.text.UART_UartPostEnable,"ax",%progbits
 127              		.align	2
 128              		.global	UART_UartPostEnable
 129              		.code	16
 130              		.thumb_func
 131              		.type	UART_UartPostEnable, %function
 132              	UART_UartPostEnable:
 133              	.LFB2:
 286:.\Generated_Source\PSoC4/UART_UART.c **** #endif /* (UART_SCB_MODE_UNCONFIG_CONST_CFG) */
 287:.\Generated_Source\PSoC4/UART_UART.c **** 
 288:.\Generated_Source\PSoC4/UART_UART.c **** 
 289:.\Generated_Source\PSoC4/UART_UART.c **** /*******************************************************************************
 290:.\Generated_Source\PSoC4/UART_UART.c **** * Function Name: UART_UartPostEnable
 291:.\Generated_Source\PSoC4/UART_UART.c **** ********************************************************************************
 292:.\Generated_Source\PSoC4/UART_UART.c **** *
 293:.\Generated_Source\PSoC4/UART_UART.c **** * Summary:
 294:.\Generated_Source\PSoC4/UART_UART.c **** *  Restores HSIOM settings for the UART output pins (TX and/or RTS) to be 
 295:.\Generated_Source\PSoC4/UART_UART.c **** *  controlled by the SCB UART.
 296:.\Generated_Source\PSoC4/UART_UART.c **** *
 297:.\Generated_Source\PSoC4/UART_UART.c **** * Parameters:
 298:.\Generated_Source\PSoC4/UART_UART.c **** *  None
 299:.\Generated_Source\PSoC4/UART_UART.c **** *
 300:.\Generated_Source\PSoC4/UART_UART.c **** * Return:
 301:.\Generated_Source\PSoC4/UART_UART.c **** *  None
 302:.\Generated_Source\PSoC4/UART_UART.c **** *
 303:.\Generated_Source\PSoC4/UART_UART.c **** *******************************************************************************/
 304:.\Generated_Source\PSoC4/UART_UART.c **** void UART_UartPostEnable(void)
 305:.\Generated_Source\PSoC4/UART_UART.c **** {
 134              		.loc 1 305 0
 135              		.cfi_startproc
 136 0000 80B5     		push	{r7, lr}
 137              		.cfi_def_cfa_offset 8
 138              		.cfi_offset 7, -8
 139              		.cfi_offset 14, -4
 140 0002 00AF     		add	r7, sp, #0
 141              		.cfi_def_cfa_register 7
 306:.\Generated_Source\PSoC4/UART_UART.c **** #if (UART_SCB_MODE_UNCONFIG_CONST_CFG)
 307:.\Generated_Source\PSoC4/UART_UART.c **** 
 308:.\Generated_Source\PSoC4/UART_UART.c **** #if (UART_TX_SDA_MISO_PIN)
 309:.\Generated_Source\PSoC4/UART_UART.c ****     if (UART_CHECK_TX_SDA_MISO_PIN_USED)
 310:.\Generated_Source\PSoC4/UART_UART.c ****     {
 311:.\Generated_Source\PSoC4/UART_UART.c ****         /* Set SCB UART to drive the output pin */
 312:.\Generated_Source\PSoC4/UART_UART.c ****         UART_SET_HSIOM_SEL(UART_TX_SDA_MISO_HSIOM_REG, UART_TX_SDA_MISO_HSIOM_MASK,
 313:.\Generated_Source\PSoC4/UART_UART.c ****                                        UART_TX_SDA_MISO_HSIOM_POS, UART_HSIOM_UART_SEL);
 314:.\Generated_Source\PSoC4/UART_UART.c ****     }
 315:.\Generated_Source\PSoC4/UART_UART.c **** #endif /* (UART_TX_SDA_MISO_PIN_PIN) */
ARM GAS  C:\Users\passw\AppData\Local\Temp\ccAKcy8H.s 			page 9


 316:.\Generated_Source\PSoC4/UART_UART.c **** 
 317:.\Generated_Source\PSoC4/UART_UART.c **** #if (UART_RTS_SS0_PIN)
 318:.\Generated_Source\PSoC4/UART_UART.c ****     if (UART_CHECK_RTS_SS0_PIN_USED)
 319:.\Generated_Source\PSoC4/UART_UART.c ****     {
 320:.\Generated_Source\PSoC4/UART_UART.c ****         /* Set SCB UART to drive the output pin */
 321:.\Generated_Source\PSoC4/UART_UART.c ****         UART_SET_HSIOM_SEL(UART_RTS_SS0_HSIOM_REG, UART_RTS_SS0_HSIOM_MASK,
 322:.\Generated_Source\PSoC4/UART_UART.c ****                                        UART_RTS_SS0_HSIOM_POS, UART_HSIOM_UART_SEL);
 323:.\Generated_Source\PSoC4/UART_UART.c ****     }
 324:.\Generated_Source\PSoC4/UART_UART.c **** #endif /* (UART_RTS_SS0_PIN) */
 325:.\Generated_Source\PSoC4/UART_UART.c **** 
 326:.\Generated_Source\PSoC4/UART_UART.c **** #else
 327:.\Generated_Source\PSoC4/UART_UART.c **** #if (UART_UART_TX_PIN)
 328:.\Generated_Source\PSoC4/UART_UART.c ****      /* Set SCB UART to drive the output pin */
 329:.\Generated_Source\PSoC4/UART_UART.c ****     UART_SET_HSIOM_SEL(UART_TX_HSIOM_REG, UART_TX_HSIOM_MASK,
 142              		.loc 1 329 0
 143 0004 044B     		ldr	r3, .L5
 144 0006 044A     		ldr	r2, .L5
 145 0008 1268     		ldr	r2, [r2]
 146 000a F021     		mov	r1, #240
 147 000c 8A43     		bic	r2, r1
 148 000e 9021     		mov	r1, #144
 149 0010 0A43     		orr	r2, r1
 150 0012 1A60     		str	r2, [r3]
 330:.\Generated_Source\PSoC4/UART_UART.c ****                                    UART_TX_HSIOM_POS, UART_HSIOM_UART_SEL);
 331:.\Generated_Source\PSoC4/UART_UART.c **** #endif /* (UART_UART_TX_PIN) */
 332:.\Generated_Source\PSoC4/UART_UART.c **** 
 333:.\Generated_Source\PSoC4/UART_UART.c **** #if (UART_UART_RTS_PIN)
 334:.\Generated_Source\PSoC4/UART_UART.c ****     /* Set SCB UART to drive the output pin */
 335:.\Generated_Source\PSoC4/UART_UART.c ****     UART_SET_HSIOM_SEL(UART_RTS_HSIOM_REG, UART_RTS_HSIOM_MASK,
 336:.\Generated_Source\PSoC4/UART_UART.c ****                                    UART_RTS_HSIOM_POS, UART_HSIOM_UART_SEL);
 337:.\Generated_Source\PSoC4/UART_UART.c **** #endif /* (UART_UART_RTS_PIN) */
 338:.\Generated_Source\PSoC4/UART_UART.c **** 
 339:.\Generated_Source\PSoC4/UART_UART.c **** #endif /* (UART_SCB_MODE_UNCONFIG_CONST_CFG) */
 340:.\Generated_Source\PSoC4/UART_UART.c **** }
 151              		.loc 1 340 0
 152 0014 BD46     		mov	sp, r7
 153              		@ sp needed
 154 0016 80BD     		pop	{r7, pc}
 155              	.L6:
 156              		.align	2
 157              	.L5:
 158 0018 00070240 		.word	1073874688
 159              		.cfi_endproc
 160              	.LFE2:
 161              		.size	UART_UartPostEnable, .-UART_UartPostEnable
 162              		.section	.text.UART_UartStop,"ax",%progbits
 163              		.align	2
 164              		.global	UART_UartStop
 165              		.code	16
 166              		.thumb_func
 167              		.type	UART_UartStop, %function
 168              	UART_UartStop:
 169              	.LFB3:
 341:.\Generated_Source\PSoC4/UART_UART.c **** 
 342:.\Generated_Source\PSoC4/UART_UART.c **** 
 343:.\Generated_Source\PSoC4/UART_UART.c **** /*******************************************************************************
 344:.\Generated_Source\PSoC4/UART_UART.c **** * Function Name: UART_UartStop
ARM GAS  C:\Users\passw\AppData\Local\Temp\ccAKcy8H.s 			page 10


 345:.\Generated_Source\PSoC4/UART_UART.c **** ********************************************************************************
 346:.\Generated_Source\PSoC4/UART_UART.c **** *
 347:.\Generated_Source\PSoC4/UART_UART.c **** * Summary:
 348:.\Generated_Source\PSoC4/UART_UART.c **** *  Changes the HSIOM settings for the UART output pins (TX and/or RTS) to keep
 349:.\Generated_Source\PSoC4/UART_UART.c **** *  them inactive after the block is disabled. The output pins are controlled by
 350:.\Generated_Source\PSoC4/UART_UART.c **** *  the GPIO data register. Also, the function disables the skip start feature to
 351:.\Generated_Source\PSoC4/UART_UART.c **** *  not cause it to trigger after the component is enabled.
 352:.\Generated_Source\PSoC4/UART_UART.c **** *
 353:.\Generated_Source\PSoC4/UART_UART.c **** * Parameters:
 354:.\Generated_Source\PSoC4/UART_UART.c **** *  None
 355:.\Generated_Source\PSoC4/UART_UART.c **** *
 356:.\Generated_Source\PSoC4/UART_UART.c **** * Return:
 357:.\Generated_Source\PSoC4/UART_UART.c **** *  None
 358:.\Generated_Source\PSoC4/UART_UART.c **** *
 359:.\Generated_Source\PSoC4/UART_UART.c **** *******************************************************************************/
 360:.\Generated_Source\PSoC4/UART_UART.c **** void UART_UartStop(void)
 361:.\Generated_Source\PSoC4/UART_UART.c **** {
 170              		.loc 1 361 0
 171              		.cfi_startproc
 172 0000 80B5     		push	{r7, lr}
 173              		.cfi_def_cfa_offset 8
 174              		.cfi_offset 7, -8
 175              		.cfi_offset 14, -4
 176 0002 00AF     		add	r7, sp, #0
 177              		.cfi_def_cfa_register 7
 362:.\Generated_Source\PSoC4/UART_UART.c **** #if(UART_SCB_MODE_UNCONFIG_CONST_CFG)
 363:.\Generated_Source\PSoC4/UART_UART.c ****     #if (UART_TX_SDA_MISO_PIN)
 364:.\Generated_Source\PSoC4/UART_UART.c ****         if (UART_CHECK_TX_SDA_MISO_PIN_USED)
 365:.\Generated_Source\PSoC4/UART_UART.c ****         {
 366:.\Generated_Source\PSoC4/UART_UART.c ****             /* Set GPIO to drive output pin */
 367:.\Generated_Source\PSoC4/UART_UART.c ****             UART_SET_HSIOM_SEL(UART_TX_SDA_MISO_HSIOM_REG, UART_TX_SDA_MISO_HSIOM_MASK,
 368:.\Generated_Source\PSoC4/UART_UART.c ****                                            UART_TX_SDA_MISO_HSIOM_POS, UART_HSIOM_GPIO_SEL);
 369:.\Generated_Source\PSoC4/UART_UART.c ****         }
 370:.\Generated_Source\PSoC4/UART_UART.c ****     #endif /* (UART_TX_SDA_MISO_PIN_PIN) */
 371:.\Generated_Source\PSoC4/UART_UART.c **** 
 372:.\Generated_Source\PSoC4/UART_UART.c ****     #if (UART_RTS_SS0_PIN)
 373:.\Generated_Source\PSoC4/UART_UART.c ****         if (UART_CHECK_RTS_SS0_PIN_USED)
 374:.\Generated_Source\PSoC4/UART_UART.c ****         {
 375:.\Generated_Source\PSoC4/UART_UART.c ****             /* Set output pin state after block is disabled */
 376:.\Generated_Source\PSoC4/UART_UART.c ****             UART_uart_rts_spi_ss0_Write(UART_GET_UART_RTS_INACTIVE);
 377:.\Generated_Source\PSoC4/UART_UART.c **** 
 378:.\Generated_Source\PSoC4/UART_UART.c ****             /* Set GPIO to drive output pin */
 379:.\Generated_Source\PSoC4/UART_UART.c ****             UART_SET_HSIOM_SEL(UART_RTS_SS0_HSIOM_REG, UART_RTS_SS0_HSIOM_MASK,
 380:.\Generated_Source\PSoC4/UART_UART.c ****                                            UART_RTS_SS0_HSIOM_POS, UART_HSIOM_GPIO_SEL);
 381:.\Generated_Source\PSoC4/UART_UART.c ****         }
 382:.\Generated_Source\PSoC4/UART_UART.c ****     #endif /* (UART_SS0_PIN) */
 383:.\Generated_Source\PSoC4/UART_UART.c **** 
 384:.\Generated_Source\PSoC4/UART_UART.c **** #else
 385:.\Generated_Source\PSoC4/UART_UART.c ****     #if (UART_UART_TX_PIN)
 386:.\Generated_Source\PSoC4/UART_UART.c ****         /* Set GPIO to drive output pin */
 387:.\Generated_Source\PSoC4/UART_UART.c ****         UART_SET_HSIOM_SEL(UART_TX_HSIOM_REG, UART_TX_HSIOM_MASK,
 178              		.loc 1 387 0
 179 0004 034B     		ldr	r3, .L8
 180 0006 034A     		ldr	r2, .L8
 181 0008 1268     		ldr	r2, [r2]
 182 000a F021     		mov	r1, #240
 183 000c 8A43     		bic	r2, r1
ARM GAS  C:\Users\passw\AppData\Local\Temp\ccAKcy8H.s 			page 11


 184 000e 1A60     		str	r2, [r3]
 388:.\Generated_Source\PSoC4/UART_UART.c ****                                        UART_TX_HSIOM_POS, UART_HSIOM_GPIO_SEL);
 389:.\Generated_Source\PSoC4/UART_UART.c ****     #endif /* (UART_UART_TX_PIN) */
 390:.\Generated_Source\PSoC4/UART_UART.c **** 
 391:.\Generated_Source\PSoC4/UART_UART.c ****     #if (UART_UART_RTS_PIN)
 392:.\Generated_Source\PSoC4/UART_UART.c ****         /* Set output pin state after block is disabled */
 393:.\Generated_Source\PSoC4/UART_UART.c ****         UART_rts_Write(UART_GET_UART_RTS_INACTIVE);
 394:.\Generated_Source\PSoC4/UART_UART.c **** 
 395:.\Generated_Source\PSoC4/UART_UART.c ****         /* Set GPIO to drive output pin */
 396:.\Generated_Source\PSoC4/UART_UART.c ****         UART_SET_HSIOM_SEL(UART_RTS_HSIOM_REG, UART_RTS_HSIOM_MASK,
 397:.\Generated_Source\PSoC4/UART_UART.c ****                                        UART_RTS_HSIOM_POS, UART_HSIOM_GPIO_SEL);
 398:.\Generated_Source\PSoC4/UART_UART.c ****     #endif /* (UART_UART_RTS_PIN) */
 399:.\Generated_Source\PSoC4/UART_UART.c **** 
 400:.\Generated_Source\PSoC4/UART_UART.c **** #endif /* (UART_SCB_MODE_UNCONFIG_CONST_CFG) */
 401:.\Generated_Source\PSoC4/UART_UART.c **** 
 402:.\Generated_Source\PSoC4/UART_UART.c **** #if (UART_UART_WAKE_ENABLE_CONST)
 403:.\Generated_Source\PSoC4/UART_UART.c ****     /* Disable skip start feature used for wakeup */
 404:.\Generated_Source\PSoC4/UART_UART.c ****     UART_UART_RX_CTRL_REG &= (uint32) ~UART_UART_RX_CTRL_SKIP_START;
 405:.\Generated_Source\PSoC4/UART_UART.c **** #endif /* (UART_UART_WAKE_ENABLE_CONST) */
 406:.\Generated_Source\PSoC4/UART_UART.c **** }
 185              		.loc 1 406 0
 186 0010 BD46     		mov	sp, r7
 187              		@ sp needed
 188 0012 80BD     		pop	{r7, pc}
 189              	.L9:
 190              		.align	2
 191              	.L8:
 192 0014 00070240 		.word	1073874688
 193              		.cfi_endproc
 194              	.LFE3:
 195              		.size	UART_UartStop, .-UART_UartStop
 196              		.section	.text.UART_UartSetRxAddress,"ax",%progbits
 197              		.align	2
 198              		.global	UART_UartSetRxAddress
 199              		.code	16
 200              		.thumb_func
 201              		.type	UART_UartSetRxAddress, %function
 202              	UART_UartSetRxAddress:
 203              	.LFB4:
 407:.\Generated_Source\PSoC4/UART_UART.c **** 
 408:.\Generated_Source\PSoC4/UART_UART.c **** 
 409:.\Generated_Source\PSoC4/UART_UART.c **** /*******************************************************************************
 410:.\Generated_Source\PSoC4/UART_UART.c **** * Function Name: UART_UartSetRxAddress
 411:.\Generated_Source\PSoC4/UART_UART.c **** ********************************************************************************
 412:.\Generated_Source\PSoC4/UART_UART.c **** *
 413:.\Generated_Source\PSoC4/UART_UART.c **** * Summary:
 414:.\Generated_Source\PSoC4/UART_UART.c **** *  Sets the hardware detectable receiver address for the UART in the
 415:.\Generated_Source\PSoC4/UART_UART.c **** *  Multiprocessor mode.
 416:.\Generated_Source\PSoC4/UART_UART.c **** *
 417:.\Generated_Source\PSoC4/UART_UART.c **** * Parameters:
 418:.\Generated_Source\PSoC4/UART_UART.c **** *  address: Address for hardware address detection.
 419:.\Generated_Source\PSoC4/UART_UART.c **** *
 420:.\Generated_Source\PSoC4/UART_UART.c **** * Return:
 421:.\Generated_Source\PSoC4/UART_UART.c **** *  None
 422:.\Generated_Source\PSoC4/UART_UART.c **** *
 423:.\Generated_Source\PSoC4/UART_UART.c **** *******************************************************************************/
 424:.\Generated_Source\PSoC4/UART_UART.c **** void UART_UartSetRxAddress(uint32 address)
ARM GAS  C:\Users\passw\AppData\Local\Temp\ccAKcy8H.s 			page 12


 425:.\Generated_Source\PSoC4/UART_UART.c **** {
 204              		.loc 1 425 0
 205              		.cfi_startproc
 206 0000 80B5     		push	{r7, lr}
 207              		.cfi_def_cfa_offset 8
 208              		.cfi_offset 7, -8
 209              		.cfi_offset 14, -4
 210 0002 84B0     		sub	sp, sp, #16
 211              		.cfi_def_cfa_offset 24
 212 0004 00AF     		add	r7, sp, #0
 213              		.cfi_def_cfa_register 7
 214 0006 7860     		str	r0, [r7, #4]
 426:.\Generated_Source\PSoC4/UART_UART.c ****      uint32 matchReg;
 427:.\Generated_Source\PSoC4/UART_UART.c **** 
 428:.\Generated_Source\PSoC4/UART_UART.c ****     matchReg = UART_RX_MATCH_REG;
 215              		.loc 1 428 0
 216 0008 094B     		ldr	r3, .L11
 217 000a 1B68     		ldr	r3, [r3]
 218 000c FB60     		str	r3, [r7, #12]
 429:.\Generated_Source\PSoC4/UART_UART.c **** 
 430:.\Generated_Source\PSoC4/UART_UART.c ****     matchReg &= ((uint32) ~UART_RX_MATCH_ADDR_MASK); /* Clear address bits */
 219              		.loc 1 430 0
 220 000e FB68     		ldr	r3, [r7, #12]
 221 0010 FF22     		mov	r2, #255
 222 0012 9343     		bic	r3, r2
 223 0014 FB60     		str	r3, [r7, #12]
 431:.\Generated_Source\PSoC4/UART_UART.c ****     matchReg |= ((uint32)  (address & UART_RX_MATCH_ADDR_MASK)); /* Set address  */
 224              		.loc 1 431 0
 225 0016 7B68     		ldr	r3, [r7, #4]
 226 0018 FF22     		mov	r2, #255
 227 001a 1340     		and	r3, r2
 228 001c FA68     		ldr	r2, [r7, #12]
 229 001e 1343     		orr	r3, r2
 230 0020 FB60     		str	r3, [r7, #12]
 432:.\Generated_Source\PSoC4/UART_UART.c **** 
 433:.\Generated_Source\PSoC4/UART_UART.c ****     UART_RX_MATCH_REG = matchReg;
 231              		.loc 1 433 0
 232 0022 034B     		ldr	r3, .L11
 233 0024 FA68     		ldr	r2, [r7, #12]
 234 0026 1A60     		str	r2, [r3]
 434:.\Generated_Source\PSoC4/UART_UART.c **** }
 235              		.loc 1 434 0
 236 0028 BD46     		mov	sp, r7
 237 002a 04B0     		add	sp, sp, #16
 238              		@ sp needed
 239 002c 80BD     		pop	{r7, pc}
 240              	.L12:
 241 002e C046     		.align	2
 242              	.L11:
 243 0030 10032740 		.word	1076298512
 244              		.cfi_endproc
 245              	.LFE4:
 246              		.size	UART_UartSetRxAddress, .-UART_UartSetRxAddress
 247              		.section	.text.UART_UartSetRxAddressMask,"ax",%progbits
 248              		.align	2
 249              		.global	UART_UartSetRxAddressMask
 250              		.code	16
ARM GAS  C:\Users\passw\AppData\Local\Temp\ccAKcy8H.s 			page 13


 251              		.thumb_func
 252              		.type	UART_UartSetRxAddressMask, %function
 253              	UART_UartSetRxAddressMask:
 254              	.LFB5:
 435:.\Generated_Source\PSoC4/UART_UART.c **** 
 436:.\Generated_Source\PSoC4/UART_UART.c **** 
 437:.\Generated_Source\PSoC4/UART_UART.c **** /*******************************************************************************
 438:.\Generated_Source\PSoC4/UART_UART.c **** * Function Name: UART_UartSetRxAddressMask
 439:.\Generated_Source\PSoC4/UART_UART.c **** ********************************************************************************
 440:.\Generated_Source\PSoC4/UART_UART.c **** *
 441:.\Generated_Source\PSoC4/UART_UART.c **** * Summary:
 442:.\Generated_Source\PSoC4/UART_UART.c **** *  Sets the hardware address mask for the UART in the Multiprocessor mode.
 443:.\Generated_Source\PSoC4/UART_UART.c **** *
 444:.\Generated_Source\PSoC4/UART_UART.c **** * Parameters:
 445:.\Generated_Source\PSoC4/UART_UART.c **** *  addressMask: Address mask.
 446:.\Generated_Source\PSoC4/UART_UART.c **** *   0 - address bit does not care while comparison.
 447:.\Generated_Source\PSoC4/UART_UART.c **** *   1 - address bit is significant while comparison.
 448:.\Generated_Source\PSoC4/UART_UART.c **** *
 449:.\Generated_Source\PSoC4/UART_UART.c **** * Return:
 450:.\Generated_Source\PSoC4/UART_UART.c **** *  None
 451:.\Generated_Source\PSoC4/UART_UART.c **** *
 452:.\Generated_Source\PSoC4/UART_UART.c **** *******************************************************************************/
 453:.\Generated_Source\PSoC4/UART_UART.c **** void UART_UartSetRxAddressMask(uint32 addressMask)
 454:.\Generated_Source\PSoC4/UART_UART.c **** {
 255              		.loc 1 454 0
 256              		.cfi_startproc
 257 0000 80B5     		push	{r7, lr}
 258              		.cfi_def_cfa_offset 8
 259              		.cfi_offset 7, -8
 260              		.cfi_offset 14, -4
 261 0002 84B0     		sub	sp, sp, #16
 262              		.cfi_def_cfa_offset 24
 263 0004 00AF     		add	r7, sp, #0
 264              		.cfi_def_cfa_register 7
 265 0006 7860     		str	r0, [r7, #4]
 455:.\Generated_Source\PSoC4/UART_UART.c ****     uint32 matchReg;
 456:.\Generated_Source\PSoC4/UART_UART.c **** 
 457:.\Generated_Source\PSoC4/UART_UART.c ****     matchReg = UART_RX_MATCH_REG;
 266              		.loc 1 457 0
 267 0008 084B     		ldr	r3, .L14
 268 000a 1B68     		ldr	r3, [r3]
 269 000c FB60     		str	r3, [r7, #12]
 458:.\Generated_Source\PSoC4/UART_UART.c **** 
 459:.\Generated_Source\PSoC4/UART_UART.c ****     matchReg &= ((uint32) ~UART_RX_MATCH_MASK_MASK); /* Clear address mask bits */
 270              		.loc 1 459 0
 271 000e FB68     		ldr	r3, [r7, #12]
 272 0010 074A     		ldr	r2, .L14+4
 273 0012 1340     		and	r3, r2
 274 0014 FB60     		str	r3, [r7, #12]
 460:.\Generated_Source\PSoC4/UART_UART.c ****     matchReg |= ((uint32) (addressMask << UART_RX_MATCH_MASK_POS));
 275              		.loc 1 460 0
 276 0016 7B68     		ldr	r3, [r7, #4]
 277 0018 1B04     		lsl	r3, r3, #16
 278 001a FA68     		ldr	r2, [r7, #12]
 279 001c 1343     		orr	r3, r2
 280 001e FB60     		str	r3, [r7, #12]
 461:.\Generated_Source\PSoC4/UART_UART.c **** 
ARM GAS  C:\Users\passw\AppData\Local\Temp\ccAKcy8H.s 			page 14


 462:.\Generated_Source\PSoC4/UART_UART.c ****     UART_RX_MATCH_REG = matchReg;
 281              		.loc 1 462 0
 282 0020 024B     		ldr	r3, .L14
 283 0022 FA68     		ldr	r2, [r7, #12]
 284 0024 1A60     		str	r2, [r3]
 463:.\Generated_Source\PSoC4/UART_UART.c **** }
 285              		.loc 1 463 0
 286 0026 BD46     		mov	sp, r7
 287 0028 04B0     		add	sp, sp, #16
 288              		@ sp needed
 289 002a 80BD     		pop	{r7, pc}
 290              	.L15:
 291              		.align	2
 292              	.L14:
 293 002c 10032740 		.word	1076298512
 294 0030 FFFF00FF 		.word	-16711681
 295              		.cfi_endproc
 296              	.LFE5:
 297              		.size	UART_UartSetRxAddressMask, .-UART_UartSetRxAddressMask
 298              		.section	.text.UART_UartGetChar,"ax",%progbits
 299              		.align	2
 300              		.global	UART_UartGetChar
 301              		.code	16
 302              		.thumb_func
 303              		.type	UART_UartGetChar, %function
 304              	UART_UartGetChar:
 305              	.LFB6:
 464:.\Generated_Source\PSoC4/UART_UART.c **** 
 465:.\Generated_Source\PSoC4/UART_UART.c **** 
 466:.\Generated_Source\PSoC4/UART_UART.c **** #if(UART_UART_RX_DIRECTION)
 467:.\Generated_Source\PSoC4/UART_UART.c ****     /*******************************************************************************
 468:.\Generated_Source\PSoC4/UART_UART.c ****     * Function Name: UART_UartGetChar
 469:.\Generated_Source\PSoC4/UART_UART.c ****     ********************************************************************************
 470:.\Generated_Source\PSoC4/UART_UART.c ****     *
 471:.\Generated_Source\PSoC4/UART_UART.c ****     * Summary:
 472:.\Generated_Source\PSoC4/UART_UART.c ****     *  Retrieves the next data element from the receive buffer.
 473:.\Generated_Source\PSoC4/UART_UART.c ****     *  This function is designed for ASCII characters and returns a char
 474:.\Generated_Source\PSoC4/UART_UART.c ****     *  where 1 to 255 are valid characters and 0 indicates an error occurred or
 475:.\Generated_Source\PSoC4/UART_UART.c ****     *  no data present.
 476:.\Generated_Source\PSoC4/UART_UART.c ****     *  - The RX software buffer is disabled: returns the data element
 477:.\Generated_Source\PSoC4/UART_UART.c ****     *    retrieved from the RX FIFO.
 478:.\Generated_Source\PSoC4/UART_UART.c ****     *    Undefined data will be returned if the RX FIFO is empty.
 479:.\Generated_Source\PSoC4/UART_UART.c ****     *  - The RX software buffer is enabled: returns the data element from
 480:.\Generated_Source\PSoC4/UART_UART.c ****     *    the software receive buffer.
 481:.\Generated_Source\PSoC4/UART_UART.c ****     *
 482:.\Generated_Source\PSoC4/UART_UART.c ****     * Parameters:
 483:.\Generated_Source\PSoC4/UART_UART.c ****     *  None
 484:.\Generated_Source\PSoC4/UART_UART.c ****     *
 485:.\Generated_Source\PSoC4/UART_UART.c ****     * Return:
 486:.\Generated_Source\PSoC4/UART_UART.c ****     *  The next data element from the receive buffer.
 487:.\Generated_Source\PSoC4/UART_UART.c ****     *  ASCII character values from 1 to 255 are valid.
 488:.\Generated_Source\PSoC4/UART_UART.c ****     *  A returned zero signifies an error condition or no data available.
 489:.\Generated_Source\PSoC4/UART_UART.c ****     *
 490:.\Generated_Source\PSoC4/UART_UART.c ****     * Side Effects:
 491:.\Generated_Source\PSoC4/UART_UART.c ****     *  The errors bits may not correspond with reading characters due to RX FIFO
 492:.\Generated_Source\PSoC4/UART_UART.c ****     *  and software buffer usage.
 493:.\Generated_Source\PSoC4/UART_UART.c ****     *  RX software buffer is enabled: The internal software buffer overflow
ARM GAS  C:\Users\passw\AppData\Local\Temp\ccAKcy8H.s 			page 15


 494:.\Generated_Source\PSoC4/UART_UART.c ****     *  does not treat as an error condition.
 495:.\Generated_Source\PSoC4/UART_UART.c ****     *  Check SCB_rxBufferOverflow to capture that error condition.
 496:.\Generated_Source\PSoC4/UART_UART.c ****     *
 497:.\Generated_Source\PSoC4/UART_UART.c ****     *******************************************************************************/
 498:.\Generated_Source\PSoC4/UART_UART.c ****     uint32 UART_UartGetChar(void)
 499:.\Generated_Source\PSoC4/UART_UART.c ****     {
 306              		.loc 1 499 0
 307              		.cfi_startproc
 308 0000 80B5     		push	{r7, lr}
 309              		.cfi_def_cfa_offset 8
 310              		.cfi_offset 7, -8
 311              		.cfi_offset 14, -4
 312 0002 82B0     		sub	sp, sp, #8
 313              		.cfi_def_cfa_offset 16
 314 0004 00AF     		add	r7, sp, #0
 315              		.cfi_def_cfa_register 7
 500:.\Generated_Source\PSoC4/UART_UART.c ****         uint32 rxData = 0u;
 316              		.loc 1 500 0
 317 0006 0023     		mov	r3, #0
 318 0008 7B60     		str	r3, [r7, #4]
 501:.\Generated_Source\PSoC4/UART_UART.c **** 
 502:.\Generated_Source\PSoC4/UART_UART.c ****         /* Reads data only if there is data to read */
 503:.\Generated_Source\PSoC4/UART_UART.c ****         if (0u != UART_SpiUartGetRxBufferSize())
 319              		.loc 1 503 0
 320 000a FFF7FEFF 		bl	UART_SpiUartGetRxBufferSize
 321 000e 031E     		sub	r3, r0, #0
 322 0010 03D0     		beq	.L17
 504:.\Generated_Source\PSoC4/UART_UART.c ****         {
 505:.\Generated_Source\PSoC4/UART_UART.c ****             rxData = UART_SpiUartReadRxData();
 323              		.loc 1 505 0
 324 0012 FFF7FEFF 		bl	UART_SpiUartReadRxData
 325 0016 031C     		mov	r3, r0
 326 0018 7B60     		str	r3, [r7, #4]
 327              	.L17:
 506:.\Generated_Source\PSoC4/UART_UART.c ****         }
 507:.\Generated_Source\PSoC4/UART_UART.c **** 
 508:.\Generated_Source\PSoC4/UART_UART.c ****         if (UART_CHECK_INTR_RX(UART_INTR_RX_ERR))
 328              		.loc 1 508 0
 329 001a 084B     		ldr	r3, .L20
 330 001c 1A68     		ldr	r2, [r3]
 331 001e D823     		mov	r3, #216
 332 0020 9B00     		lsl	r3, r3, #2
 333 0022 1340     		and	r3, r2
 334 0024 05D0     		beq	.L18
 509:.\Generated_Source\PSoC4/UART_UART.c ****         {
 510:.\Generated_Source\PSoC4/UART_UART.c ****             rxData = 0u; /* Error occurred: returns zero */
 335              		.loc 1 510 0
 336 0026 0023     		mov	r3, #0
 337 0028 7B60     		str	r3, [r7, #4]
 511:.\Generated_Source\PSoC4/UART_UART.c ****             UART_ClearRxInterruptSource(UART_INTR_RX_ERR);
 338              		.loc 1 511 0
 339 002a 044B     		ldr	r3, .L20
 340 002c D822     		mov	r2, #216
 341 002e 9200     		lsl	r2, r2, #2
 342 0030 1A60     		str	r2, [r3]
 343              	.L18:
 512:.\Generated_Source\PSoC4/UART_UART.c ****         }
ARM GAS  C:\Users\passw\AppData\Local\Temp\ccAKcy8H.s 			page 16


 513:.\Generated_Source\PSoC4/UART_UART.c **** 
 514:.\Generated_Source\PSoC4/UART_UART.c ****         return (rxData);
 344              		.loc 1 514 0
 345 0032 7B68     		ldr	r3, [r7, #4]
 515:.\Generated_Source\PSoC4/UART_UART.c ****     }
 346              		.loc 1 515 0
 347 0034 181C     		mov	r0, r3
 348 0036 BD46     		mov	sp, r7
 349 0038 02B0     		add	sp, sp, #8
 350              		@ sp needed
 351 003a 80BD     		pop	{r7, pc}
 352              	.L21:
 353              		.align	2
 354              	.L20:
 355 003c C00F2740 		.word	1076301760
 356              		.cfi_endproc
 357              	.LFE6:
 358              		.size	UART_UartGetChar, .-UART_UartGetChar
 359              		.section	.text.UART_UartGetByte,"ax",%progbits
 360              		.align	2
 361              		.global	UART_UartGetByte
 362              		.code	16
 363              		.thumb_func
 364              		.type	UART_UartGetByte, %function
 365              	UART_UartGetByte:
 366              	.LFB7:
 516:.\Generated_Source\PSoC4/UART_UART.c **** 
 517:.\Generated_Source\PSoC4/UART_UART.c **** 
 518:.\Generated_Source\PSoC4/UART_UART.c ****     /*******************************************************************************
 519:.\Generated_Source\PSoC4/UART_UART.c ****     * Function Name: UART_UartGetByte
 520:.\Generated_Source\PSoC4/UART_UART.c ****     ********************************************************************************
 521:.\Generated_Source\PSoC4/UART_UART.c ****     *
 522:.\Generated_Source\PSoC4/UART_UART.c ****     * Summary:
 523:.\Generated_Source\PSoC4/UART_UART.c ****     *  Retrieves the next data element from the receive buffer, returns the
 524:.\Generated_Source\PSoC4/UART_UART.c ****     *  received byte and error condition.
 525:.\Generated_Source\PSoC4/UART_UART.c ****     *   - The RX software buffer is disabled: returns the data element retrieved
 526:.\Generated_Source\PSoC4/UART_UART.c ****     *     from the RX FIFO. Undefined data will be returned if the RX FIFO is
 527:.\Generated_Source\PSoC4/UART_UART.c ****     *     empty.
 528:.\Generated_Source\PSoC4/UART_UART.c ****     *   - The RX software buffer is enabled: returns data element from the
 529:.\Generated_Source\PSoC4/UART_UART.c ****     *     software receive buffer.
 530:.\Generated_Source\PSoC4/UART_UART.c ****     *
 531:.\Generated_Source\PSoC4/UART_UART.c ****     * Parameters:
 532:.\Generated_Source\PSoC4/UART_UART.c ****     *  None
 533:.\Generated_Source\PSoC4/UART_UART.c ****     *
 534:.\Generated_Source\PSoC4/UART_UART.c ****     * Return:
 535:.\Generated_Source\PSoC4/UART_UART.c ****     *  Bits 7-0 contain the next data element from the receive buffer and
 536:.\Generated_Source\PSoC4/UART_UART.c ****     *  other bits contain the error condition.
 537:.\Generated_Source\PSoC4/UART_UART.c ****     *
 538:.\Generated_Source\PSoC4/UART_UART.c ****     * Side Effects:
 539:.\Generated_Source\PSoC4/UART_UART.c ****     *  The errors bits may not correspond with reading characters due to RX FIFO
 540:.\Generated_Source\PSoC4/UART_UART.c ****     *  and software buffer usage.
 541:.\Generated_Source\PSoC4/UART_UART.c ****     *  RX software buffer is disabled: The internal software buffer overflow
 542:.\Generated_Source\PSoC4/UART_UART.c ****     *  is not returned as status by this function.
 543:.\Generated_Source\PSoC4/UART_UART.c ****     *  Check SCB_rxBufferOverflow to capture that error condition.
 544:.\Generated_Source\PSoC4/UART_UART.c ****     *
 545:.\Generated_Source\PSoC4/UART_UART.c ****     *******************************************************************************/
 546:.\Generated_Source\PSoC4/UART_UART.c ****     uint32 UART_UartGetByte(void)
ARM GAS  C:\Users\passw\AppData\Local\Temp\ccAKcy8H.s 			page 17


 547:.\Generated_Source\PSoC4/UART_UART.c ****     {
 367              		.loc 1 547 0
 368              		.cfi_startproc
 369 0000 80B5     		push	{r7, lr}
 370              		.cfi_def_cfa_offset 8
 371              		.cfi_offset 7, -8
 372              		.cfi_offset 14, -4
 373 0002 82B0     		sub	sp, sp, #8
 374              		.cfi_def_cfa_offset 16
 375 0004 00AF     		add	r7, sp, #0
 376              		.cfi_def_cfa_register 7
 548:.\Generated_Source\PSoC4/UART_UART.c ****         uint32 rxData;
 549:.\Generated_Source\PSoC4/UART_UART.c ****         uint32 tmpStatus;
 550:.\Generated_Source\PSoC4/UART_UART.c **** 
 551:.\Generated_Source\PSoC4/UART_UART.c ****         #if (UART_CHECK_RX_SW_BUFFER)
 552:.\Generated_Source\PSoC4/UART_UART.c ****         {
 553:.\Generated_Source\PSoC4/UART_UART.c ****             UART_DisableInt();
 554:.\Generated_Source\PSoC4/UART_UART.c ****         }
 555:.\Generated_Source\PSoC4/UART_UART.c ****         #endif
 556:.\Generated_Source\PSoC4/UART_UART.c **** 
 557:.\Generated_Source\PSoC4/UART_UART.c ****         if (0u != UART_SpiUartGetRxBufferSize())
 377              		.loc 1 557 0
 378 0006 FFF7FEFF 		bl	UART_SpiUartGetRxBufferSize
 379 000a 031E     		sub	r3, r0, #0
 380 000c 04D0     		beq	.L23
 558:.\Generated_Source\PSoC4/UART_UART.c ****         {
 559:.\Generated_Source\PSoC4/UART_UART.c ****             /* Enables interrupt to receive more bytes: at least one byte is in
 560:.\Generated_Source\PSoC4/UART_UART.c ****             * buffer.
 561:.\Generated_Source\PSoC4/UART_UART.c ****             */
 562:.\Generated_Source\PSoC4/UART_UART.c ****             #if (UART_CHECK_RX_SW_BUFFER)
 563:.\Generated_Source\PSoC4/UART_UART.c ****             {            
 564:.\Generated_Source\PSoC4/UART_UART.c ****                 UART_EnableInt();
 565:.\Generated_Source\PSoC4/UART_UART.c ****             }
 566:.\Generated_Source\PSoC4/UART_UART.c ****             #endif
 567:.\Generated_Source\PSoC4/UART_UART.c **** 
 568:.\Generated_Source\PSoC4/UART_UART.c ****             /* Get received byte */
 569:.\Generated_Source\PSoC4/UART_UART.c ****             rxData = UART_SpiUartReadRxData();
 381              		.loc 1 569 0
 382 000e FFF7FEFF 		bl	UART_SpiUartReadRxData
 383 0012 031C     		mov	r3, r0
 384 0014 7B60     		str	r3, [r7, #4]
 385 0016 02E0     		b	.L24
 386              	.L23:
 570:.\Generated_Source\PSoC4/UART_UART.c ****         }
 571:.\Generated_Source\PSoC4/UART_UART.c ****         else
 572:.\Generated_Source\PSoC4/UART_UART.c ****         {
 573:.\Generated_Source\PSoC4/UART_UART.c ****             /* Reads a byte directly from RX FIFO: underflow is raised in the case
 574:.\Generated_Source\PSoC4/UART_UART.c ****             * of empty. Otherwise the first received byte will be read.
 575:.\Generated_Source\PSoC4/UART_UART.c ****             */
 576:.\Generated_Source\PSoC4/UART_UART.c ****             rxData = UART_RX_FIFO_RD_REG;
 387              		.loc 1 576 0
 388 0018 0B4B     		ldr	r3, .L26
 389 001a 1B68     		ldr	r3, [r3]
 390 001c 7B60     		str	r3, [r7, #4]
 391              	.L24:
 577:.\Generated_Source\PSoC4/UART_UART.c **** 
 578:.\Generated_Source\PSoC4/UART_UART.c ****             /* Enables interrupt to receive more bytes.
ARM GAS  C:\Users\passw\AppData\Local\Temp\ccAKcy8H.s 			page 18


 579:.\Generated_Source\PSoC4/UART_UART.c ****             * The RX_NOT_EMPTY interrupt is cleared by the interrupt routine
 580:.\Generated_Source\PSoC4/UART_UART.c ****             * in case the byte was received and read by code above.
 581:.\Generated_Source\PSoC4/UART_UART.c ****             */
 582:.\Generated_Source\PSoC4/UART_UART.c ****             #if (UART_CHECK_RX_SW_BUFFER)
 583:.\Generated_Source\PSoC4/UART_UART.c ****             {
 584:.\Generated_Source\PSoC4/UART_UART.c ****                 UART_EnableInt();
 585:.\Generated_Source\PSoC4/UART_UART.c ****             }
 586:.\Generated_Source\PSoC4/UART_UART.c ****             #endif
 587:.\Generated_Source\PSoC4/UART_UART.c ****         }
 588:.\Generated_Source\PSoC4/UART_UART.c **** 
 589:.\Generated_Source\PSoC4/UART_UART.c ****         /* Get and clear RX error mask */
 590:.\Generated_Source\PSoC4/UART_UART.c ****         tmpStatus = (UART_GetRxInterruptSource() & UART_INTR_RX_ERR);
 392              		.loc 1 590 0
 393 001e 0B4B     		ldr	r3, .L26+4
 394 0020 1A68     		ldr	r2, [r3]
 395 0022 D823     		mov	r3, #216
 396 0024 9B00     		lsl	r3, r3, #2
 397 0026 1340     		and	r3, r2
 398 0028 3B60     		str	r3, [r7]
 591:.\Generated_Source\PSoC4/UART_UART.c ****         UART_ClearRxInterruptSource(UART_INTR_RX_ERR);
 399              		.loc 1 591 0
 400 002a 084B     		ldr	r3, .L26+4
 401 002c D822     		mov	r2, #216
 402 002e 9200     		lsl	r2, r2, #2
 403 0030 1A60     		str	r2, [r3]
 592:.\Generated_Source\PSoC4/UART_UART.c **** 
 593:.\Generated_Source\PSoC4/UART_UART.c ****         /* Puts together data and error status:
 594:.\Generated_Source\PSoC4/UART_UART.c ****         * MP mode and accept address: 9th bit is set to notify mark.
 595:.\Generated_Source\PSoC4/UART_UART.c ****         */
 596:.\Generated_Source\PSoC4/UART_UART.c ****         rxData |= ((uint32) (tmpStatus << 8u));
 404              		.loc 1 596 0
 405 0032 3B68     		ldr	r3, [r7]
 406 0034 1B02     		lsl	r3, r3, #8
 407 0036 7A68     		ldr	r2, [r7, #4]
 408 0038 1343     		orr	r3, r2
 409 003a 7B60     		str	r3, [r7, #4]
 597:.\Generated_Source\PSoC4/UART_UART.c **** 
 598:.\Generated_Source\PSoC4/UART_UART.c ****         return (rxData);
 410              		.loc 1 598 0
 411 003c 7B68     		ldr	r3, [r7, #4]
 599:.\Generated_Source\PSoC4/UART_UART.c ****     }
 412              		.loc 1 599 0
 413 003e 181C     		mov	r0, r3
 414 0040 BD46     		mov	sp, r7
 415 0042 02B0     		add	sp, sp, #8
 416              		@ sp needed
 417 0044 80BD     		pop	{r7, pc}
 418              	.L27:
 419 0046 C046     		.align	2
 420              	.L26:
 421 0048 40032740 		.word	1076298560
 422 004c C00F2740 		.word	1076301760
 423              		.cfi_endproc
 424              	.LFE7:
 425              		.size	UART_UartGetByte, .-UART_UartGetByte
 426              		.section	.text.UART_UartSetRtsPolarity,"ax",%progbits
 427              		.align	2
ARM GAS  C:\Users\passw\AppData\Local\Temp\ccAKcy8H.s 			page 19


 428              		.global	UART_UartSetRtsPolarity
 429              		.code	16
 430              		.thumb_func
 431              		.type	UART_UartSetRtsPolarity, %function
 432              	UART_UartSetRtsPolarity:
 433              	.LFB8:
 600:.\Generated_Source\PSoC4/UART_UART.c **** 
 601:.\Generated_Source\PSoC4/UART_UART.c **** 
 602:.\Generated_Source\PSoC4/UART_UART.c ****     #if !(UART_CY_SCBIP_V0 || UART_CY_SCBIP_V1)
 603:.\Generated_Source\PSoC4/UART_UART.c ****         /*******************************************************************************
 604:.\Generated_Source\PSoC4/UART_UART.c ****         * Function Name: UART_UartSetRtsPolarity
 605:.\Generated_Source\PSoC4/UART_UART.c ****         ********************************************************************************
 606:.\Generated_Source\PSoC4/UART_UART.c ****         *
 607:.\Generated_Source\PSoC4/UART_UART.c ****         * Summary:
 608:.\Generated_Source\PSoC4/UART_UART.c ****         *  Sets active polarity of RTS output signal.
 609:.\Generated_Source\PSoC4/UART_UART.c ****         *
 610:.\Generated_Source\PSoC4/UART_UART.c ****         * Parameters:
 611:.\Generated_Source\PSoC4/UART_UART.c ****         *  polarity: Active polarity of RTS output signal.
 612:.\Generated_Source\PSoC4/UART_UART.c ****         *   UART_UART_RTS_ACTIVE_LOW  - RTS signal is active low.
 613:.\Generated_Source\PSoC4/UART_UART.c ****         *   UART_UART_RTS_ACTIVE_HIGH - RTS signal is active high.
 614:.\Generated_Source\PSoC4/UART_UART.c ****         *
 615:.\Generated_Source\PSoC4/UART_UART.c ****         * Return:
 616:.\Generated_Source\PSoC4/UART_UART.c ****         *  None
 617:.\Generated_Source\PSoC4/UART_UART.c ****         *
 618:.\Generated_Source\PSoC4/UART_UART.c ****         *******************************************************************************/
 619:.\Generated_Source\PSoC4/UART_UART.c ****         void UART_UartSetRtsPolarity(uint32 polarity)
 620:.\Generated_Source\PSoC4/UART_UART.c ****         {
 434              		.loc 1 620 0
 435              		.cfi_startproc
 436 0000 80B5     		push	{r7, lr}
 437              		.cfi_def_cfa_offset 8
 438              		.cfi_offset 7, -8
 439              		.cfi_offset 14, -4
 440 0002 82B0     		sub	sp, sp, #8
 441              		.cfi_def_cfa_offset 16
 442 0004 00AF     		add	r7, sp, #0
 443              		.cfi_def_cfa_register 7
 444 0006 7860     		str	r0, [r7, #4]
 621:.\Generated_Source\PSoC4/UART_UART.c ****             if(0u != polarity)
 445              		.loc 1 621 0
 446 0008 7B68     		ldr	r3, [r7, #4]
 447 000a 002B     		cmp	r3, #0
 448 000c 07D0     		beq	.L29
 622:.\Generated_Source\PSoC4/UART_UART.c ****             {
 623:.\Generated_Source\PSoC4/UART_UART.c ****                 UART_UART_FLOW_CTRL_REG |= (uint32)  UART_UART_FLOW_CTRL_RTS_POLARITY;
 449              		.loc 1 623 0
 450 000e 084B     		ldr	r3, .L31
 451 0010 074A     		ldr	r2, .L31
 452 0012 1268     		ldr	r2, [r2]
 453 0014 8021     		mov	r1, #128
 454 0016 4902     		lsl	r1, r1, #9
 455 0018 0A43     		orr	r2, r1
 456 001a 1A60     		str	r2, [r3]
 457 001c 05E0     		b	.L28
 458              	.L29:
 624:.\Generated_Source\PSoC4/UART_UART.c ****             }
 625:.\Generated_Source\PSoC4/UART_UART.c ****             else
ARM GAS  C:\Users\passw\AppData\Local\Temp\ccAKcy8H.s 			page 20


 626:.\Generated_Source\PSoC4/UART_UART.c ****             {
 627:.\Generated_Source\PSoC4/UART_UART.c ****                 UART_UART_FLOW_CTRL_REG &= (uint32) ~UART_UART_FLOW_CTRL_RTS_POLARITY;
 459              		.loc 1 627 0
 460 001e 044B     		ldr	r3, .L31
 461 0020 034A     		ldr	r2, .L31
 462 0022 1268     		ldr	r2, [r2]
 463 0024 0349     		ldr	r1, .L31+4
 464 0026 0A40     		and	r2, r1
 465 0028 1A60     		str	r2, [r3]
 466              	.L28:
 628:.\Generated_Source\PSoC4/UART_UART.c ****             }
 629:.\Generated_Source\PSoC4/UART_UART.c ****         }
 467              		.loc 1 629 0
 468 002a BD46     		mov	sp, r7
 469 002c 02B0     		add	sp, sp, #8
 470              		@ sp needed
 471 002e 80BD     		pop	{r7, pc}
 472              	.L32:
 473              		.align	2
 474              	.L31:
 475 0030 50002740 		.word	1076297808
 476 0034 FFFFFEFF 		.word	-65537
 477              		.cfi_endproc
 478              	.LFE8:
 479              		.size	UART_UartSetRtsPolarity, .-UART_UartSetRtsPolarity
 480              		.section	.text.UART_UartSetRtsFifoLevel,"ax",%progbits
 481              		.align	2
 482              		.global	UART_UartSetRtsFifoLevel
 483              		.code	16
 484              		.thumb_func
 485              		.type	UART_UartSetRtsFifoLevel, %function
 486              	UART_UartSetRtsFifoLevel:
 487              	.LFB9:
 630:.\Generated_Source\PSoC4/UART_UART.c **** 
 631:.\Generated_Source\PSoC4/UART_UART.c **** 
 632:.\Generated_Source\PSoC4/UART_UART.c ****         /*******************************************************************************
 633:.\Generated_Source\PSoC4/UART_UART.c ****         * Function Name: UART_UartSetRtsFifoLevel
 634:.\Generated_Source\PSoC4/UART_UART.c ****         ********************************************************************************
 635:.\Generated_Source\PSoC4/UART_UART.c ****         *
 636:.\Generated_Source\PSoC4/UART_UART.c ****         * Summary:
 637:.\Generated_Source\PSoC4/UART_UART.c ****         *  Sets level in the RX FIFO for RTS signal activation.
 638:.\Generated_Source\PSoC4/UART_UART.c ****         *  While the RX FIFO has fewer entries than the RX FIFO level the RTS signal
 639:.\Generated_Source\PSoC4/UART_UART.c ****         *  remains active, otherwise the RTS signal becomes inactive.
 640:.\Generated_Source\PSoC4/UART_UART.c ****         *
 641:.\Generated_Source\PSoC4/UART_UART.c ****         * Parameters:
 642:.\Generated_Source\PSoC4/UART_UART.c ****         *  level: Level in the RX FIFO for RTS signal activation.
 643:.\Generated_Source\PSoC4/UART_UART.c ****         *         The range of valid level values is between 0 and RX FIFO depth - 1.
 644:.\Generated_Source\PSoC4/UART_UART.c ****         *         Setting level value to 0 disables RTS signal activation.
 645:.\Generated_Source\PSoC4/UART_UART.c ****         *
 646:.\Generated_Source\PSoC4/UART_UART.c ****         * Return:
 647:.\Generated_Source\PSoC4/UART_UART.c ****         *  None
 648:.\Generated_Source\PSoC4/UART_UART.c ****         *
 649:.\Generated_Source\PSoC4/UART_UART.c ****         *******************************************************************************/
 650:.\Generated_Source\PSoC4/UART_UART.c ****         void UART_UartSetRtsFifoLevel(uint32 level)
 651:.\Generated_Source\PSoC4/UART_UART.c ****         {
 488              		.loc 1 651 0
 489              		.cfi_startproc
ARM GAS  C:\Users\passw\AppData\Local\Temp\ccAKcy8H.s 			page 21


 490 0000 80B5     		push	{r7, lr}
 491              		.cfi_def_cfa_offset 8
 492              		.cfi_offset 7, -8
 493              		.cfi_offset 14, -4
 494 0002 84B0     		sub	sp, sp, #16
 495              		.cfi_def_cfa_offset 24
 496 0004 00AF     		add	r7, sp, #0
 497              		.cfi_def_cfa_register 7
 498 0006 7860     		str	r0, [r7, #4]
 652:.\Generated_Source\PSoC4/UART_UART.c ****             uint32 uartFlowCtrl;
 653:.\Generated_Source\PSoC4/UART_UART.c **** 
 654:.\Generated_Source\PSoC4/UART_UART.c ****             uartFlowCtrl = UART_UART_FLOW_CTRL_REG;
 499              		.loc 1 654 0
 500 0008 094B     		ldr	r3, .L34
 501 000a 1B68     		ldr	r3, [r3]
 502 000c FB60     		str	r3, [r7, #12]
 655:.\Generated_Source\PSoC4/UART_UART.c **** 
 656:.\Generated_Source\PSoC4/UART_UART.c ****             uartFlowCtrl &= ((uint32) ~UART_UART_FLOW_CTRL_TRIGGER_LEVEL_MASK); /* Clear level mask
 503              		.loc 1 656 0
 504 000e FB68     		ldr	r3, [r7, #12]
 505 0010 0F22     		mov	r2, #15
 506 0012 9343     		bic	r3, r2
 507 0014 FB60     		str	r3, [r7, #12]
 657:.\Generated_Source\PSoC4/UART_UART.c ****             uartFlowCtrl |= ((uint32) (UART_UART_FLOW_CTRL_TRIGGER_LEVEL_MASK & level));
 508              		.loc 1 657 0
 509 0016 7B68     		ldr	r3, [r7, #4]
 510 0018 0F22     		mov	r2, #15
 511 001a 1340     		and	r3, r2
 512 001c FA68     		ldr	r2, [r7, #12]
 513 001e 1343     		orr	r3, r2
 514 0020 FB60     		str	r3, [r7, #12]
 658:.\Generated_Source\PSoC4/UART_UART.c **** 
 659:.\Generated_Source\PSoC4/UART_UART.c ****             UART_UART_FLOW_CTRL_REG = uartFlowCtrl;
 515              		.loc 1 659 0
 516 0022 034B     		ldr	r3, .L34
 517 0024 FA68     		ldr	r2, [r7, #12]
 518 0026 1A60     		str	r2, [r3]
 660:.\Generated_Source\PSoC4/UART_UART.c ****         }
 519              		.loc 1 660 0
 520 0028 BD46     		mov	sp, r7
 521 002a 04B0     		add	sp, sp, #16
 522              		@ sp needed
 523 002c 80BD     		pop	{r7, pc}
 524              	.L35:
 525 002e C046     		.align	2
 526              	.L34:
 527 0030 50002740 		.word	1076297808
 528              		.cfi_endproc
 529              	.LFE9:
 530              		.size	UART_UartSetRtsFifoLevel, .-UART_UartSetRtsFifoLevel
 531              		.section	.text.UART_UartPutString,"ax",%progbits
 532              		.align	2
 533              		.global	UART_UartPutString
 534              		.code	16
 535              		.thumb_func
 536              		.type	UART_UartPutString, %function
 537              	UART_UartPutString:
ARM GAS  C:\Users\passw\AppData\Local\Temp\ccAKcy8H.s 			page 22


 538              	.LFB10:
 661:.\Generated_Source\PSoC4/UART_UART.c ****     #endif /* !(UART_CY_SCBIP_V0 || UART_CY_SCBIP_V1) */
 662:.\Generated_Source\PSoC4/UART_UART.c **** 
 663:.\Generated_Source\PSoC4/UART_UART.c **** #endif /* (UART_UART_RX_DIRECTION) */
 664:.\Generated_Source\PSoC4/UART_UART.c **** 
 665:.\Generated_Source\PSoC4/UART_UART.c **** 
 666:.\Generated_Source\PSoC4/UART_UART.c **** #if(UART_UART_TX_DIRECTION)
 667:.\Generated_Source\PSoC4/UART_UART.c ****     /*******************************************************************************
 668:.\Generated_Source\PSoC4/UART_UART.c ****     * Function Name: UART_UartPutString
 669:.\Generated_Source\PSoC4/UART_UART.c ****     ********************************************************************************
 670:.\Generated_Source\PSoC4/UART_UART.c ****     *
 671:.\Generated_Source\PSoC4/UART_UART.c ****     * Summary:
 672:.\Generated_Source\PSoC4/UART_UART.c ****     *  Places a NULL terminated string in the transmit buffer to be sent at the
 673:.\Generated_Source\PSoC4/UART_UART.c ****     *  next available bus time.
 674:.\Generated_Source\PSoC4/UART_UART.c ****     *  This function is blocking and waits until there is space available to put
 675:.\Generated_Source\PSoC4/UART_UART.c ****     *  all the requested data into the  transmit buffer.
 676:.\Generated_Source\PSoC4/UART_UART.c ****     *
 677:.\Generated_Source\PSoC4/UART_UART.c ****     * Parameters:
 678:.\Generated_Source\PSoC4/UART_UART.c ****     *  string: pointer to the null terminated string array to be placed in the
 679:.\Generated_Source\PSoC4/UART_UART.c ****     *          transmit buffer.
 680:.\Generated_Source\PSoC4/UART_UART.c ****     *
 681:.\Generated_Source\PSoC4/UART_UART.c ****     * Return:
 682:.\Generated_Source\PSoC4/UART_UART.c ****     *  None
 683:.\Generated_Source\PSoC4/UART_UART.c ****     *
 684:.\Generated_Source\PSoC4/UART_UART.c ****     *******************************************************************************/
 685:.\Generated_Source\PSoC4/UART_UART.c ****     void UART_UartPutString(const char8 string[])
 686:.\Generated_Source\PSoC4/UART_UART.c ****     {
 539              		.loc 1 686 0
 540              		.cfi_startproc
 541 0000 80B5     		push	{r7, lr}
 542              		.cfi_def_cfa_offset 8
 543              		.cfi_offset 7, -8
 544              		.cfi_offset 14, -4
 545 0002 84B0     		sub	sp, sp, #16
 546              		.cfi_def_cfa_offset 24
 547 0004 00AF     		add	r7, sp, #0
 548              		.cfi_def_cfa_register 7
 549 0006 7860     		str	r0, [r7, #4]
 687:.\Generated_Source\PSoC4/UART_UART.c ****         uint32 bufIndex;
 688:.\Generated_Source\PSoC4/UART_UART.c **** 
 689:.\Generated_Source\PSoC4/UART_UART.c ****         bufIndex = 0u;
 550              		.loc 1 689 0
 551 0008 0023     		mov	r3, #0
 552 000a FB60     		str	r3, [r7, #12]
 690:.\Generated_Source\PSoC4/UART_UART.c **** 
 691:.\Generated_Source\PSoC4/UART_UART.c ****         /* Blocks the control flow until all data has been sent */
 692:.\Generated_Source\PSoC4/UART_UART.c ****         while(string[bufIndex] != ((char8) 0))
 553              		.loc 1 692 0
 554 000c 09E0     		b	.L37
 555              	.L38:
 693:.\Generated_Source\PSoC4/UART_UART.c ****         {
 694:.\Generated_Source\PSoC4/UART_UART.c ****             UART_UartPutChar((uint32) string[bufIndex]);
 556              		.loc 1 694 0
 557 000e 7A68     		ldr	r2, [r7, #4]
 558 0010 FB68     		ldr	r3, [r7, #12]
 559 0012 D318     		add	r3, r2, r3
 560 0014 1B78     		ldrb	r3, [r3]
ARM GAS  C:\Users\passw\AppData\Local\Temp\ccAKcy8H.s 			page 23


 561 0016 181C     		mov	r0, r3
 562 0018 FFF7FEFF 		bl	UART_SpiUartWriteTxData
 695:.\Generated_Source\PSoC4/UART_UART.c ****             bufIndex++;
 563              		.loc 1 695 0
 564 001c FB68     		ldr	r3, [r7, #12]
 565 001e 0133     		add	r3, r3, #1
 566 0020 FB60     		str	r3, [r7, #12]
 567              	.L37:
 692:.\Generated_Source\PSoC4/UART_UART.c ****         {
 568              		.loc 1 692 0
 569 0022 7A68     		ldr	r2, [r7, #4]
 570 0024 FB68     		ldr	r3, [r7, #12]
 571 0026 D318     		add	r3, r2, r3
 572 0028 1B78     		ldrb	r3, [r3]
 573 002a 002B     		cmp	r3, #0
 574 002c EFD1     		bne	.L38
 696:.\Generated_Source\PSoC4/UART_UART.c ****         }
 697:.\Generated_Source\PSoC4/UART_UART.c ****     }
 575              		.loc 1 697 0
 576 002e BD46     		mov	sp, r7
 577 0030 04B0     		add	sp, sp, #16
 578              		@ sp needed
 579 0032 80BD     		pop	{r7, pc}
 580              		.cfi_endproc
 581              	.LFE10:
 582              		.size	UART_UartPutString, .-UART_UartPutString
 583              		.section	.text.UART_UartPutCRLF,"ax",%progbits
 584              		.align	2
 585              		.global	UART_UartPutCRLF
 586              		.code	16
 587              		.thumb_func
 588              		.type	UART_UartPutCRLF, %function
 589              	UART_UartPutCRLF:
 590              	.LFB11:
 698:.\Generated_Source\PSoC4/UART_UART.c **** 
 699:.\Generated_Source\PSoC4/UART_UART.c **** 
 700:.\Generated_Source\PSoC4/UART_UART.c ****     /*******************************************************************************
 701:.\Generated_Source\PSoC4/UART_UART.c ****     * Function Name: UART_UartPutCRLF
 702:.\Generated_Source\PSoC4/UART_UART.c ****     ********************************************************************************
 703:.\Generated_Source\PSoC4/UART_UART.c ****     *
 704:.\Generated_Source\PSoC4/UART_UART.c ****     * Summary:
 705:.\Generated_Source\PSoC4/UART_UART.c ****     *  Places a byte of data followed by a carriage return (0x0D) and
 706:.\Generated_Source\PSoC4/UART_UART.c ****     *  line feed (0x0A) into the transmit buffer.
 707:.\Generated_Source\PSoC4/UART_UART.c ****     *  This function is blocking and waits until there is space available to put
 708:.\Generated_Source\PSoC4/UART_UART.c ****     *  all the requested data into the  transmit buffer.
 709:.\Generated_Source\PSoC4/UART_UART.c ****     *
 710:.\Generated_Source\PSoC4/UART_UART.c ****     * Parameters:
 711:.\Generated_Source\PSoC4/UART_UART.c ****     *  txDataByte : the data to be transmitted.
 712:.\Generated_Source\PSoC4/UART_UART.c ****     *
 713:.\Generated_Source\PSoC4/UART_UART.c ****     * Return:
 714:.\Generated_Source\PSoC4/UART_UART.c ****     *  None
 715:.\Generated_Source\PSoC4/UART_UART.c ****     *
 716:.\Generated_Source\PSoC4/UART_UART.c ****     *******************************************************************************/
 717:.\Generated_Source\PSoC4/UART_UART.c ****     void UART_UartPutCRLF(uint32 txDataByte)
 718:.\Generated_Source\PSoC4/UART_UART.c ****     {
 591              		.loc 1 718 0
 592              		.cfi_startproc
ARM GAS  C:\Users\passw\AppData\Local\Temp\ccAKcy8H.s 			page 24


 593 0000 80B5     		push	{r7, lr}
 594              		.cfi_def_cfa_offset 8
 595              		.cfi_offset 7, -8
 596              		.cfi_offset 14, -4
 597 0002 82B0     		sub	sp, sp, #8
 598              		.cfi_def_cfa_offset 16
 599 0004 00AF     		add	r7, sp, #0
 600              		.cfi_def_cfa_register 7
 601 0006 7860     		str	r0, [r7, #4]
 719:.\Generated_Source\PSoC4/UART_UART.c ****         UART_UartPutChar(txDataByte);  /* Blocks control flow until all data has been sent */
 602              		.loc 1 719 0
 603 0008 7B68     		ldr	r3, [r7, #4]
 604 000a 181C     		mov	r0, r3
 605 000c FFF7FEFF 		bl	UART_SpiUartWriteTxData
 720:.\Generated_Source\PSoC4/UART_UART.c ****         UART_UartPutChar(0x0Du);       /* Blocks control flow until all data has been sent */
 606              		.loc 1 720 0
 607 0010 0D20     		mov	r0, #13
 608 0012 FFF7FEFF 		bl	UART_SpiUartWriteTxData
 721:.\Generated_Source\PSoC4/UART_UART.c ****         UART_UartPutChar(0x0Au);       /* Blocks control flow until all data has been sent */
 609              		.loc 1 721 0
 610 0016 0A20     		mov	r0, #10
 611 0018 FFF7FEFF 		bl	UART_SpiUartWriteTxData
 722:.\Generated_Source\PSoC4/UART_UART.c ****     }
 612              		.loc 1 722 0
 613 001c BD46     		mov	sp, r7
 614 001e 02B0     		add	sp, sp, #8
 615              		@ sp needed
 616 0020 80BD     		pop	{r7, pc}
 617              		.cfi_endproc
 618              	.LFE11:
 619              		.size	UART_UartPutCRLF, .-UART_UartPutCRLF
 620 0022 C046     		.section	.text.UART_UartEnableCts,"ax",%progbits
 621              		.align	2
 622              		.global	UART_UartEnableCts
 623              		.code	16
 624              		.thumb_func
 625              		.type	UART_UartEnableCts, %function
 626              	UART_UartEnableCts:
 627              	.LFB12:
 723:.\Generated_Source\PSoC4/UART_UART.c **** 
 724:.\Generated_Source\PSoC4/UART_UART.c **** 
 725:.\Generated_Source\PSoC4/UART_UART.c ****     #if !(UART_CY_SCBIP_V0 || UART_CY_SCBIP_V1)
 726:.\Generated_Source\PSoC4/UART_UART.c ****         /*******************************************************************************
 727:.\Generated_Source\PSoC4/UART_UART.c ****         * Function Name: UARTSCB_UartEnableCts
 728:.\Generated_Source\PSoC4/UART_UART.c ****         ********************************************************************************
 729:.\Generated_Source\PSoC4/UART_UART.c ****         *
 730:.\Generated_Source\PSoC4/UART_UART.c ****         * Summary:
 731:.\Generated_Source\PSoC4/UART_UART.c ****         *  Enables usage of CTS input signal by the UART transmitter.
 732:.\Generated_Source\PSoC4/UART_UART.c ****         *
 733:.\Generated_Source\PSoC4/UART_UART.c ****         * Parameters:
 734:.\Generated_Source\PSoC4/UART_UART.c ****         *  None
 735:.\Generated_Source\PSoC4/UART_UART.c ****         *
 736:.\Generated_Source\PSoC4/UART_UART.c ****         * Return:
 737:.\Generated_Source\PSoC4/UART_UART.c ****         *  None
 738:.\Generated_Source\PSoC4/UART_UART.c ****         *
 739:.\Generated_Source\PSoC4/UART_UART.c ****         *******************************************************************************/
 740:.\Generated_Source\PSoC4/UART_UART.c ****         void UART_UartEnableCts(void)
ARM GAS  C:\Users\passw\AppData\Local\Temp\ccAKcy8H.s 			page 25


 741:.\Generated_Source\PSoC4/UART_UART.c ****         {
 628              		.loc 1 741 0
 629              		.cfi_startproc
 630 0000 80B5     		push	{r7, lr}
 631              		.cfi_def_cfa_offset 8
 632              		.cfi_offset 7, -8
 633              		.cfi_offset 14, -4
 634 0002 00AF     		add	r7, sp, #0
 635              		.cfi_def_cfa_register 7
 742:.\Generated_Source\PSoC4/UART_UART.c ****             UART_UART_FLOW_CTRL_REG |= (uint32)  UART_UART_FLOW_CTRL_CTS_ENABLE;
 636              		.loc 1 742 0
 637 0004 044B     		ldr	r3, .L41
 638 0006 044A     		ldr	r2, .L41
 639 0008 1268     		ldr	r2, [r2]
 640 000a 8021     		mov	r1, #128
 641 000c 8904     		lsl	r1, r1, #18
 642 000e 0A43     		orr	r2, r1
 643 0010 1A60     		str	r2, [r3]
 743:.\Generated_Source\PSoC4/UART_UART.c ****         }
 644              		.loc 1 743 0
 645 0012 BD46     		mov	sp, r7
 646              		@ sp needed
 647 0014 80BD     		pop	{r7, pc}
 648              	.L42:
 649 0016 C046     		.align	2
 650              	.L41:
 651 0018 50002740 		.word	1076297808
 652              		.cfi_endproc
 653              	.LFE12:
 654              		.size	UART_UartEnableCts, .-UART_UartEnableCts
 655              		.section	.text.UART_UartDisableCts,"ax",%progbits
 656              		.align	2
 657              		.global	UART_UartDisableCts
 658              		.code	16
 659              		.thumb_func
 660              		.type	UART_UartDisableCts, %function
 661              	UART_UartDisableCts:
 662              	.LFB13:
 744:.\Generated_Source\PSoC4/UART_UART.c **** 
 745:.\Generated_Source\PSoC4/UART_UART.c **** 
 746:.\Generated_Source\PSoC4/UART_UART.c ****         /*******************************************************************************
 747:.\Generated_Source\PSoC4/UART_UART.c ****         * Function Name: UART_UartDisableCts
 748:.\Generated_Source\PSoC4/UART_UART.c ****         ********************************************************************************
 749:.\Generated_Source\PSoC4/UART_UART.c ****         *
 750:.\Generated_Source\PSoC4/UART_UART.c ****         * Summary:
 751:.\Generated_Source\PSoC4/UART_UART.c ****         *  Disables usage of CTS input signal by the UART transmitter.
 752:.\Generated_Source\PSoC4/UART_UART.c ****         *
 753:.\Generated_Source\PSoC4/UART_UART.c ****         * Parameters:
 754:.\Generated_Source\PSoC4/UART_UART.c ****         *  None
 755:.\Generated_Source\PSoC4/UART_UART.c ****         *
 756:.\Generated_Source\PSoC4/UART_UART.c ****         * Return:
 757:.\Generated_Source\PSoC4/UART_UART.c ****         *  None
 758:.\Generated_Source\PSoC4/UART_UART.c ****         *
 759:.\Generated_Source\PSoC4/UART_UART.c ****         *******************************************************************************/
 760:.\Generated_Source\PSoC4/UART_UART.c ****         void UART_UartDisableCts(void)
 761:.\Generated_Source\PSoC4/UART_UART.c ****         {
 663              		.loc 1 761 0
ARM GAS  C:\Users\passw\AppData\Local\Temp\ccAKcy8H.s 			page 26


 664              		.cfi_startproc
 665 0000 80B5     		push	{r7, lr}
 666              		.cfi_def_cfa_offset 8
 667              		.cfi_offset 7, -8
 668              		.cfi_offset 14, -4
 669 0002 00AF     		add	r7, sp, #0
 670              		.cfi_def_cfa_register 7
 762:.\Generated_Source\PSoC4/UART_UART.c ****             UART_UART_FLOW_CTRL_REG &= (uint32) ~UART_UART_FLOW_CTRL_CTS_ENABLE;
 671              		.loc 1 762 0
 672 0004 034B     		ldr	r3, .L44
 673 0006 034A     		ldr	r2, .L44
 674 0008 1268     		ldr	r2, [r2]
 675 000a 0349     		ldr	r1, .L44+4
 676 000c 0A40     		and	r2, r1
 677 000e 1A60     		str	r2, [r3]
 763:.\Generated_Source\PSoC4/UART_UART.c ****         }
 678              		.loc 1 763 0
 679 0010 BD46     		mov	sp, r7
 680              		@ sp needed
 681 0012 80BD     		pop	{r7, pc}
 682              	.L45:
 683              		.align	2
 684              	.L44:
 685 0014 50002740 		.word	1076297808
 686 0018 FFFFFFFD 		.word	-33554433
 687              		.cfi_endproc
 688              	.LFE13:
 689              		.size	UART_UartDisableCts, .-UART_UartDisableCts
 690              		.section	.text.UART_UartSetCtsPolarity,"ax",%progbits
 691              		.align	2
 692              		.global	UART_UartSetCtsPolarity
 693              		.code	16
 694              		.thumb_func
 695              		.type	UART_UartSetCtsPolarity, %function
 696              	UART_UartSetCtsPolarity:
 697              	.LFB14:
 764:.\Generated_Source\PSoC4/UART_UART.c **** 
 765:.\Generated_Source\PSoC4/UART_UART.c **** 
 766:.\Generated_Source\PSoC4/UART_UART.c ****         /*******************************************************************************
 767:.\Generated_Source\PSoC4/UART_UART.c ****         * Function Name: UART_UartSetCtsPolarity
 768:.\Generated_Source\PSoC4/UART_UART.c ****         ********************************************************************************
 769:.\Generated_Source\PSoC4/UART_UART.c ****         *
 770:.\Generated_Source\PSoC4/UART_UART.c ****         * Summary:
 771:.\Generated_Source\PSoC4/UART_UART.c ****         *  Sets active polarity of CTS input signal.
 772:.\Generated_Source\PSoC4/UART_UART.c ****         *
 773:.\Generated_Source\PSoC4/UART_UART.c ****         * Parameters:
 774:.\Generated_Source\PSoC4/UART_UART.c ****         *  polarity: Active polarity of CTS output signal.
 775:.\Generated_Source\PSoC4/UART_UART.c ****         *   UART_UART_CTS_ACTIVE_LOW  - CTS signal is active low.
 776:.\Generated_Source\PSoC4/UART_UART.c ****         *   UART_UART_CTS_ACTIVE_HIGH - CTS signal is active high.
 777:.\Generated_Source\PSoC4/UART_UART.c ****         *
 778:.\Generated_Source\PSoC4/UART_UART.c ****         * Return:
 779:.\Generated_Source\PSoC4/UART_UART.c ****         *  None
 780:.\Generated_Source\PSoC4/UART_UART.c ****         *
 781:.\Generated_Source\PSoC4/UART_UART.c ****         *******************************************************************************/
 782:.\Generated_Source\PSoC4/UART_UART.c ****         void UART_UartSetCtsPolarity(uint32 polarity)
 783:.\Generated_Source\PSoC4/UART_UART.c ****         {
 698              		.loc 1 783 0
ARM GAS  C:\Users\passw\AppData\Local\Temp\ccAKcy8H.s 			page 27


 699              		.cfi_startproc
 700 0000 80B5     		push	{r7, lr}
 701              		.cfi_def_cfa_offset 8
 702              		.cfi_offset 7, -8
 703              		.cfi_offset 14, -4
 704 0002 82B0     		sub	sp, sp, #8
 705              		.cfi_def_cfa_offset 16
 706 0004 00AF     		add	r7, sp, #0
 707              		.cfi_def_cfa_register 7
 708 0006 7860     		str	r0, [r7, #4]
 784:.\Generated_Source\PSoC4/UART_UART.c ****             if (0u != polarity)
 709              		.loc 1 784 0
 710 0008 7B68     		ldr	r3, [r7, #4]
 711 000a 002B     		cmp	r3, #0
 712 000c 07D0     		beq	.L47
 785:.\Generated_Source\PSoC4/UART_UART.c ****             {
 786:.\Generated_Source\PSoC4/UART_UART.c ****                 UART_UART_FLOW_CTRL_REG |= (uint32)  UART_UART_FLOW_CTRL_CTS_POLARITY;
 713              		.loc 1 786 0
 714 000e 084B     		ldr	r3, .L49
 715 0010 074A     		ldr	r2, .L49
 716 0012 1268     		ldr	r2, [r2]
 717 0014 8021     		mov	r1, #128
 718 0016 4904     		lsl	r1, r1, #17
 719 0018 0A43     		orr	r2, r1
 720 001a 1A60     		str	r2, [r3]
 721 001c 05E0     		b	.L46
 722              	.L47:
 787:.\Generated_Source\PSoC4/UART_UART.c ****             }
 788:.\Generated_Source\PSoC4/UART_UART.c ****             else
 789:.\Generated_Source\PSoC4/UART_UART.c ****             {
 790:.\Generated_Source\PSoC4/UART_UART.c ****                 UART_UART_FLOW_CTRL_REG &= (uint32) ~UART_UART_FLOW_CTRL_CTS_POLARITY;
 723              		.loc 1 790 0
 724 001e 044B     		ldr	r3, .L49
 725 0020 034A     		ldr	r2, .L49
 726 0022 1268     		ldr	r2, [r2]
 727 0024 0349     		ldr	r1, .L49+4
 728 0026 0A40     		and	r2, r1
 729 0028 1A60     		str	r2, [r3]
 730              	.L46:
 791:.\Generated_Source\PSoC4/UART_UART.c ****             }
 792:.\Generated_Source\PSoC4/UART_UART.c ****         }
 731              		.loc 1 792 0
 732 002a BD46     		mov	sp, r7
 733 002c 02B0     		add	sp, sp, #8
 734              		@ sp needed
 735 002e 80BD     		pop	{r7, pc}
 736              	.L50:
 737              		.align	2
 738              	.L49:
 739 0030 50002740 		.word	1076297808
 740 0034 FFFFFFFE 		.word	-16777217
 741              		.cfi_endproc
 742              	.LFE14:
 743              		.size	UART_UartSetCtsPolarity, .-UART_UartSetCtsPolarity
 744              		.text
 745              	.Letext0:
 746              		.file 2 "Generated_Source\\PSoC4/cytypes.h"
ARM GAS  C:\Users\passw\AppData\Local\Temp\ccAKcy8H.s 			page 28


 747              		.section	.debug_info,"",%progbits
 748              	.Ldebug_info0:
 749 0000 B6020000 		.4byte	0x2b6
 750 0004 0400     		.2byte	0x4
 751 0006 00000000 		.4byte	.Ldebug_abbrev0
 752 000a 04       		.byte	0x4
 753 000b 01       		.uleb128 0x1
 754 000c 40010000 		.4byte	.LASF40
 755 0010 01       		.byte	0x1
 756 0011 46020000 		.4byte	.LASF41
 757 0015 83020000 		.4byte	.LASF42
 758 0019 00000000 		.4byte	.Ldebug_ranges0+0
 759 001d 00000000 		.4byte	0
 760 0021 00000000 		.4byte	.Ldebug_line0
 761 0025 02       		.uleb128 0x2
 762 0026 01       		.byte	0x1
 763 0027 06       		.byte	0x6
 764 0028 02030000 		.4byte	.LASF0
 765 002c 02       		.uleb128 0x2
 766 002d 01       		.byte	0x1
 767 002e 08       		.byte	0x8
 768 002f 8B000000 		.4byte	.LASF1
 769 0033 02       		.uleb128 0x2
 770 0034 02       		.byte	0x2
 771 0035 05       		.byte	0x5
 772 0036 BE020000 		.4byte	.LASF2
 773 003a 02       		.uleb128 0x2
 774 003b 02       		.byte	0x2
 775 003c 07       		.byte	0x7
 776 003d EC000000 		.4byte	.LASF3
 777 0041 02       		.uleb128 0x2
 778 0042 04       		.byte	0x4
 779 0043 05       		.byte	0x5
 780 0044 E0020000 		.4byte	.LASF4
 781 0048 02       		.uleb128 0x2
 782 0049 04       		.byte	0x4
 783 004a 07       		.byte	0x7
 784 004b CC000000 		.4byte	.LASF5
 785 004f 02       		.uleb128 0x2
 786 0050 08       		.byte	0x8
 787 0051 05       		.byte	0x5
 788 0052 00000000 		.4byte	.LASF6
 789 0056 02       		.uleb128 0x2
 790 0057 08       		.byte	0x8
 791 0058 07       		.byte	0x7
 792 0059 F8010000 		.4byte	.LASF7
 793 005d 03       		.uleb128 0x3
 794 005e 04       		.byte	0x4
 795 005f 05       		.byte	0x5
 796 0060 696E7400 		.ascii	"int\000"
 797 0064 02       		.uleb128 0x2
 798 0065 04       		.byte	0x4
 799 0066 07       		.byte	0x7
 800 0067 D5010000 		.4byte	.LASF8
 801 006b 04       		.uleb128 0x4
 802 006c CE010000 		.4byte	.LASF11
 803 0070 02       		.byte	0x2
ARM GAS  C:\Users\passw\AppData\Local\Temp\ccAKcy8H.s 			page 29


 804 0071 3A01     		.2byte	0x13a
 805 0073 48000000 		.4byte	0x48
 806 0077 02       		.uleb128 0x2
 807 0078 04       		.byte	0x4
 808 0079 04       		.byte	0x4
 809 007a FC020000 		.4byte	.LASF9
 810 007e 02       		.uleb128 0x2
 811 007f 08       		.byte	0x8
 812 0080 04       		.byte	0x4
 813 0081 23010000 		.4byte	.LASF10
 814 0085 04       		.uleb128 0x4
 815 0086 B2000000 		.4byte	.LASF12
 816 008a 02       		.byte	0x2
 817 008b 4901     		.2byte	0x149
 818 008d 91000000 		.4byte	0x91
 819 0091 02       		.uleb128 0x2
 820 0092 01       		.byte	0x1
 821 0093 08       		.byte	0x8
 822 0094 7E020000 		.4byte	.LASF13
 823 0098 04       		.uleb128 0x4
 824 0099 0E000000 		.4byte	.LASF14
 825 009d 02       		.byte	0x2
 826 009e E401     		.2byte	0x1e4
 827 00a0 A4000000 		.4byte	0xa4
 828 00a4 05       		.uleb128 0x5
 829 00a5 6B000000 		.4byte	0x6b
 830 00a9 02       		.uleb128 0x2
 831 00aa 04       		.byte	0x4
 832 00ab 07       		.byte	0x7
 833 00ac 32020000 		.4byte	.LASF15
 834 00b0 06       		.uleb128 0x6
 835 00b1 E2010000 		.4byte	.LASF16
 836 00b5 01       		.byte	0x1
 837 00b6 E6       		.byte	0xe6
 838 00b7 00000000 		.4byte	.LFB1
 839 00bb B0000000 		.4byte	.LFE1-.LFB1
 840 00bf 01       		.uleb128 0x1
 841 00c0 9C       		.byte	0x9c
 842 00c1 07       		.uleb128 0x7
 843 00c2 B8000000 		.4byte	.LASF17
 844 00c6 01       		.byte	0x1
 845 00c7 3001     		.2byte	0x130
 846 00c9 00000000 		.4byte	.LFB2
 847 00cd 1C000000 		.4byte	.LFE2-.LFB2
 848 00d1 01       		.uleb128 0x1
 849 00d2 9C       		.byte	0x9c
 850 00d3 07       		.uleb128 0x7
 851 00d4 DE000000 		.4byte	.LASF18
 852 00d8 01       		.byte	0x1
 853 00d9 6801     		.2byte	0x168
 854 00db 00000000 		.4byte	.LFB3
 855 00df 18000000 		.4byte	.LFE3-.LFB3
 856 00e3 01       		.uleb128 0x1
 857 00e4 9C       		.byte	0x9c
 858 00e5 08       		.uleb128 0x8
 859 00e6 2A010000 		.4byte	.LASF19
 860 00ea 01       		.byte	0x1
ARM GAS  C:\Users\passw\AppData\Local\Temp\ccAKcy8H.s 			page 30


 861 00eb A801     		.2byte	0x1a8
 862 00ed 00000000 		.4byte	.LFB4
 863 00f1 34000000 		.4byte	.LFE4-.LFB4
 864 00f5 01       		.uleb128 0x1
 865 00f6 9C       		.byte	0x9c
 866 00f7 1A010000 		.4byte	0x11a
 867 00fb 09       		.uleb128 0x9
 868 00fc F0010000 		.4byte	.LASF21
 869 0100 01       		.byte	0x1
 870 0101 A801     		.2byte	0x1a8
 871 0103 6B000000 		.4byte	0x6b
 872 0107 02       		.uleb128 0x2
 873 0108 91       		.byte	0x91
 874 0109 6C       		.sleb128 -20
 875 010a 0A       		.uleb128 0xa
 876 010b F3020000 		.4byte	.LASF23
 877 010f 01       		.byte	0x1
 878 0110 AA01     		.2byte	0x1aa
 879 0112 6B000000 		.4byte	0x6b
 880 0116 02       		.uleb128 0x2
 881 0117 91       		.byte	0x91
 882 0118 74       		.sleb128 -12
 883 0119 00       		.byte	0
 884 011a 08       		.uleb128 0x8
 885 011b 14000000 		.4byte	.LASF20
 886 011f 01       		.byte	0x1
 887 0120 C501     		.2byte	0x1c5
 888 0122 00000000 		.4byte	.LFB5
 889 0126 34000000 		.4byte	.LFE5-.LFB5
 890 012a 01       		.uleb128 0x1
 891 012b 9C       		.byte	0x9c
 892 012c 4F010000 		.4byte	0x14f
 893 0130 09       		.uleb128 0x9
 894 0131 17010000 		.4byte	.LASF22
 895 0135 01       		.byte	0x1
 896 0136 C501     		.2byte	0x1c5
 897 0138 6B000000 		.4byte	0x6b
 898 013c 02       		.uleb128 0x2
 899 013d 91       		.byte	0x91
 900 013e 6C       		.sleb128 -20
 901 013f 0A       		.uleb128 0xa
 902 0140 F3020000 		.4byte	.LASF23
 903 0144 01       		.byte	0x1
 904 0145 C701     		.2byte	0x1c7
 905 0147 6B000000 		.4byte	0x6b
 906 014b 02       		.uleb128 0x2
 907 014c 91       		.byte	0x91
 908 014d 74       		.sleb128 -12
 909 014e 00       		.byte	0
 910 014f 0B       		.uleb128 0xb
 911 0150 21020000 		.4byte	.LASF25
 912 0154 01       		.byte	0x1
 913 0155 F201     		.2byte	0x1f2
 914 0157 6B000000 		.4byte	0x6b
 915 015b 00000000 		.4byte	.LFB6
 916 015f 40000000 		.4byte	.LFE6-.LFB6
 917 0163 01       		.uleb128 0x1
ARM GAS  C:\Users\passw\AppData\Local\Temp\ccAKcy8H.s 			page 31


 918 0164 9C       		.byte	0x9c
 919 0165 79010000 		.4byte	0x179
 920 0169 0A       		.uleb128 0xa
 921 016a 10010000 		.4byte	.LASF24
 922 016e 01       		.byte	0x1
 923 016f F401     		.2byte	0x1f4
 924 0171 6B000000 		.4byte	0x6b
 925 0175 02       		.uleb128 0x2
 926 0176 91       		.byte	0x91
 927 0177 74       		.sleb128 -12
 928 0178 00       		.byte	0
 929 0179 0B       		.uleb128 0xb
 930 017a 7A000000 		.4byte	.LASF26
 931 017e 01       		.byte	0x1
 932 017f 2202     		.2byte	0x222
 933 0181 6B000000 		.4byte	0x6b
 934 0185 00000000 		.4byte	.LFB7
 935 0189 50000000 		.4byte	.LFE7-.LFB7
 936 018d 01       		.uleb128 0x1
 937 018e 9C       		.byte	0x9c
 938 018f B2010000 		.4byte	0x1b2
 939 0193 0A       		.uleb128 0xa
 940 0194 10010000 		.4byte	.LASF24
 941 0198 01       		.byte	0x1
 942 0199 2402     		.2byte	0x224
 943 019b 6B000000 		.4byte	0x6b
 944 019f 02       		.uleb128 0x2
 945 01a0 91       		.byte	0x91
 946 01a1 74       		.sleb128 -12
 947 01a2 0A       		.uleb128 0xa
 948 01a3 E9020000 		.4byte	.LASF27
 949 01a7 01       		.byte	0x1
 950 01a8 2502     		.2byte	0x225
 951 01aa 6B000000 		.4byte	0x6b
 952 01ae 02       		.uleb128 0x2
 953 01af 91       		.byte	0x91
 954 01b0 70       		.sleb128 -16
 955 01b1 00       		.byte	0
 956 01b2 08       		.uleb128 0x8
 957 01b3 48000000 		.4byte	.LASF28
 958 01b7 01       		.byte	0x1
 959 01b8 6B02     		.2byte	0x26b
 960 01ba 00000000 		.4byte	.LFB8
 961 01be 38000000 		.4byte	.LFE8-.LFB8
 962 01c2 01       		.uleb128 0x1
 963 01c3 9C       		.byte	0x9c
 964 01c4 D8010000 		.4byte	0x1d8
 965 01c8 09       		.uleb128 0x9
 966 01c9 0F020000 		.4byte	.LASF29
 967 01cd 01       		.byte	0x1
 968 01ce 6B02     		.2byte	0x26b
 969 01d0 6B000000 		.4byte	0x6b
 970 01d4 02       		.uleb128 0x2
 971 01d5 91       		.byte	0x91
 972 01d6 74       		.sleb128 -12
 973 01d7 00       		.byte	0
 974 01d8 08       		.uleb128 0x8
ARM GAS  C:\Users\passw\AppData\Local\Temp\ccAKcy8H.s 			page 32


 975 01d9 99000000 		.4byte	.LASF30
 976 01dd 01       		.byte	0x1
 977 01de 8A02     		.2byte	0x28a
 978 01e0 00000000 		.4byte	.LFB9
 979 01e4 34000000 		.4byte	.LFE9-.LFB9
 980 01e8 01       		.uleb128 0x1
 981 01e9 9C       		.byte	0x9c
 982 01ea 0D020000 		.4byte	0x20d
 983 01ee 09       		.uleb128 0x9
 984 01ef 2E000000 		.4byte	.LASF31
 985 01f3 01       		.byte	0x1
 986 01f4 8A02     		.2byte	0x28a
 987 01f6 6B000000 		.4byte	0x6b
 988 01fa 02       		.uleb128 0x2
 989 01fb 91       		.byte	0x91
 990 01fc 6C       		.sleb128 -20
 991 01fd 0A       		.uleb128 0xa
 992 01fe 0E030000 		.4byte	.LASF32
 993 0202 01       		.byte	0x1
 994 0203 8C02     		.2byte	0x28c
 995 0205 6B000000 		.4byte	0x6b
 996 0209 02       		.uleb128 0x2
 997 020a 91       		.byte	0x91
 998 020b 74       		.sleb128 -12
 999 020c 00       		.byte	0
 1000 020d 0C       		.uleb128 0xc
 1001 020e 67000000 		.4byte	.LASF33
 1002 0212 01       		.byte	0x1
 1003 0213 AD02     		.2byte	0x2ad
 1004 0215 00000000 		.4byte	.LFB10
 1005 0219 34000000 		.4byte	.LFE10-.LFB10
 1006 021d 01       		.uleb128 0x1
 1007 021e 9C       		.byte	0x9c
 1008 021f 42020000 		.4byte	0x242
 1009 0223 09       		.uleb128 0x9
 1010 0224 60000000 		.4byte	.LASF34
 1011 0228 01       		.byte	0x1
 1012 0229 AD02     		.2byte	0x2ad
 1013 022b 42020000 		.4byte	0x242
 1014 022f 02       		.uleb128 0x2
 1015 0230 91       		.byte	0x91
 1016 0231 6C       		.sleb128 -20
 1017 0232 0A       		.uleb128 0xa
 1018 0233 18020000 		.4byte	.LASF35
 1019 0237 01       		.byte	0x1
 1020 0238 AF02     		.2byte	0x2af
 1021 023a 6B000000 		.4byte	0x6b
 1022 023e 02       		.uleb128 0x2
 1023 023f 91       		.byte	0x91
 1024 0240 74       		.sleb128 -12
 1025 0241 00       		.byte	0
 1026 0242 0D       		.uleb128 0xd
 1027 0243 04       		.byte	0x4
 1028 0244 48020000 		.4byte	0x248
 1029 0248 0E       		.uleb128 0xe
 1030 0249 85000000 		.4byte	0x85
 1031 024d 0C       		.uleb128 0xc
ARM GAS  C:\Users\passw\AppData\Local\Temp\ccAKcy8H.s 			page 33


 1032 024e FF000000 		.4byte	.LASF36
 1033 0252 01       		.byte	0x1
 1034 0253 CD02     		.2byte	0x2cd
 1035 0255 00000000 		.4byte	.LFB11
 1036 0259 22000000 		.4byte	.LFE11-.LFB11
 1037 025d 01       		.uleb128 0x1
 1038 025e 9C       		.byte	0x9c
 1039 025f 73020000 		.4byte	0x273
 1040 0263 09       		.uleb128 0x9
 1041 0264 3B020000 		.4byte	.LASF37
 1042 0268 01       		.byte	0x1
 1043 0269 CD02     		.2byte	0x2cd
 1044 026b 6B000000 		.4byte	0x6b
 1045 026f 02       		.uleb128 0x2
 1046 0270 91       		.byte	0x91
 1047 0271 74       		.sleb128 -12
 1048 0272 00       		.byte	0
 1049 0273 07       		.uleb128 0x7
 1050 0274 6B020000 		.4byte	.LASF38
 1051 0278 01       		.byte	0x1
 1052 0279 E402     		.2byte	0x2e4
 1053 027b 00000000 		.4byte	.LFB12
 1054 027f 1C000000 		.4byte	.LFE12-.LFB12
 1055 0283 01       		.uleb128 0x1
 1056 0284 9C       		.byte	0x9c
 1057 0285 07       		.uleb128 0x7
 1058 0286 34000000 		.4byte	.LASF39
 1059 028a 01       		.byte	0x1
 1060 028b F802     		.2byte	0x2f8
 1061 028d 00000000 		.4byte	.LFB13
 1062 0291 1C000000 		.4byte	.LFE13-.LFB13
 1063 0295 01       		.uleb128 0x1
 1064 0296 9C       		.byte	0x9c
 1065 0297 0F       		.uleb128 0xf
 1066 0298 C8020000 		.4byte	.LASF43
 1067 029c 01       		.byte	0x1
 1068 029d 0E03     		.2byte	0x30e
 1069 029f 00000000 		.4byte	.LFB14
 1070 02a3 38000000 		.4byte	.LFE14-.LFB14
 1071 02a7 01       		.uleb128 0x1
 1072 02a8 9C       		.byte	0x9c
 1073 02a9 09       		.uleb128 0x9
 1074 02aa 0F020000 		.4byte	.LASF29
 1075 02ae 01       		.byte	0x1
 1076 02af 0E03     		.2byte	0x30e
 1077 02b1 6B000000 		.4byte	0x6b
 1078 02b5 02       		.uleb128 0x2
 1079 02b6 91       		.byte	0x91
 1080 02b7 74       		.sleb128 -12
 1081 02b8 00       		.byte	0
 1082 02b9 00       		.byte	0
 1083              		.section	.debug_abbrev,"",%progbits
 1084              	.Ldebug_abbrev0:
 1085 0000 01       		.uleb128 0x1
 1086 0001 11       		.uleb128 0x11
 1087 0002 01       		.byte	0x1
 1088 0003 25       		.uleb128 0x25
ARM GAS  C:\Users\passw\AppData\Local\Temp\ccAKcy8H.s 			page 34


 1089 0004 0E       		.uleb128 0xe
 1090 0005 13       		.uleb128 0x13
 1091 0006 0B       		.uleb128 0xb
 1092 0007 03       		.uleb128 0x3
 1093 0008 0E       		.uleb128 0xe
 1094 0009 1B       		.uleb128 0x1b
 1095 000a 0E       		.uleb128 0xe
 1096 000b 55       		.uleb128 0x55
 1097 000c 17       		.uleb128 0x17
 1098 000d 11       		.uleb128 0x11
 1099 000e 01       		.uleb128 0x1
 1100 000f 10       		.uleb128 0x10
 1101 0010 17       		.uleb128 0x17
 1102 0011 00       		.byte	0
 1103 0012 00       		.byte	0
 1104 0013 02       		.uleb128 0x2
 1105 0014 24       		.uleb128 0x24
 1106 0015 00       		.byte	0
 1107 0016 0B       		.uleb128 0xb
 1108 0017 0B       		.uleb128 0xb
 1109 0018 3E       		.uleb128 0x3e
 1110 0019 0B       		.uleb128 0xb
 1111 001a 03       		.uleb128 0x3
 1112 001b 0E       		.uleb128 0xe
 1113 001c 00       		.byte	0
 1114 001d 00       		.byte	0
 1115 001e 03       		.uleb128 0x3
 1116 001f 24       		.uleb128 0x24
 1117 0020 00       		.byte	0
 1118 0021 0B       		.uleb128 0xb
 1119 0022 0B       		.uleb128 0xb
 1120 0023 3E       		.uleb128 0x3e
 1121 0024 0B       		.uleb128 0xb
 1122 0025 03       		.uleb128 0x3
 1123 0026 08       		.uleb128 0x8
 1124 0027 00       		.byte	0
 1125 0028 00       		.byte	0
 1126 0029 04       		.uleb128 0x4
 1127 002a 16       		.uleb128 0x16
 1128 002b 00       		.byte	0
 1129 002c 03       		.uleb128 0x3
 1130 002d 0E       		.uleb128 0xe
 1131 002e 3A       		.uleb128 0x3a
 1132 002f 0B       		.uleb128 0xb
 1133 0030 3B       		.uleb128 0x3b
 1134 0031 05       		.uleb128 0x5
 1135 0032 49       		.uleb128 0x49
 1136 0033 13       		.uleb128 0x13
 1137 0034 00       		.byte	0
 1138 0035 00       		.byte	0
 1139 0036 05       		.uleb128 0x5
 1140 0037 35       		.uleb128 0x35
 1141 0038 00       		.byte	0
 1142 0039 49       		.uleb128 0x49
 1143 003a 13       		.uleb128 0x13
 1144 003b 00       		.byte	0
 1145 003c 00       		.byte	0
ARM GAS  C:\Users\passw\AppData\Local\Temp\ccAKcy8H.s 			page 35


 1146 003d 06       		.uleb128 0x6
 1147 003e 2E       		.uleb128 0x2e
 1148 003f 00       		.byte	0
 1149 0040 3F       		.uleb128 0x3f
 1150 0041 19       		.uleb128 0x19
 1151 0042 03       		.uleb128 0x3
 1152 0043 0E       		.uleb128 0xe
 1153 0044 3A       		.uleb128 0x3a
 1154 0045 0B       		.uleb128 0xb
 1155 0046 3B       		.uleb128 0x3b
 1156 0047 0B       		.uleb128 0xb
 1157 0048 27       		.uleb128 0x27
 1158 0049 19       		.uleb128 0x19
 1159 004a 11       		.uleb128 0x11
 1160 004b 01       		.uleb128 0x1
 1161 004c 12       		.uleb128 0x12
 1162 004d 06       		.uleb128 0x6
 1163 004e 40       		.uleb128 0x40
 1164 004f 18       		.uleb128 0x18
 1165 0050 9742     		.uleb128 0x2117
 1166 0052 19       		.uleb128 0x19
 1167 0053 00       		.byte	0
 1168 0054 00       		.byte	0
 1169 0055 07       		.uleb128 0x7
 1170 0056 2E       		.uleb128 0x2e
 1171 0057 00       		.byte	0
 1172 0058 3F       		.uleb128 0x3f
 1173 0059 19       		.uleb128 0x19
 1174 005a 03       		.uleb128 0x3
 1175 005b 0E       		.uleb128 0xe
 1176 005c 3A       		.uleb128 0x3a
 1177 005d 0B       		.uleb128 0xb
 1178 005e 3B       		.uleb128 0x3b
 1179 005f 05       		.uleb128 0x5
 1180 0060 27       		.uleb128 0x27
 1181 0061 19       		.uleb128 0x19
 1182 0062 11       		.uleb128 0x11
 1183 0063 01       		.uleb128 0x1
 1184 0064 12       		.uleb128 0x12
 1185 0065 06       		.uleb128 0x6
 1186 0066 40       		.uleb128 0x40
 1187 0067 18       		.uleb128 0x18
 1188 0068 9742     		.uleb128 0x2117
 1189 006a 19       		.uleb128 0x19
 1190 006b 00       		.byte	0
 1191 006c 00       		.byte	0
 1192 006d 08       		.uleb128 0x8
 1193 006e 2E       		.uleb128 0x2e
 1194 006f 01       		.byte	0x1
 1195 0070 3F       		.uleb128 0x3f
 1196 0071 19       		.uleb128 0x19
 1197 0072 03       		.uleb128 0x3
 1198 0073 0E       		.uleb128 0xe
 1199 0074 3A       		.uleb128 0x3a
 1200 0075 0B       		.uleb128 0xb
 1201 0076 3B       		.uleb128 0x3b
 1202 0077 05       		.uleb128 0x5
ARM GAS  C:\Users\passw\AppData\Local\Temp\ccAKcy8H.s 			page 36


 1203 0078 27       		.uleb128 0x27
 1204 0079 19       		.uleb128 0x19
 1205 007a 11       		.uleb128 0x11
 1206 007b 01       		.uleb128 0x1
 1207 007c 12       		.uleb128 0x12
 1208 007d 06       		.uleb128 0x6
 1209 007e 40       		.uleb128 0x40
 1210 007f 18       		.uleb128 0x18
 1211 0080 9742     		.uleb128 0x2117
 1212 0082 19       		.uleb128 0x19
 1213 0083 01       		.uleb128 0x1
 1214 0084 13       		.uleb128 0x13
 1215 0085 00       		.byte	0
 1216 0086 00       		.byte	0
 1217 0087 09       		.uleb128 0x9
 1218 0088 05       		.uleb128 0x5
 1219 0089 00       		.byte	0
 1220 008a 03       		.uleb128 0x3
 1221 008b 0E       		.uleb128 0xe
 1222 008c 3A       		.uleb128 0x3a
 1223 008d 0B       		.uleb128 0xb
 1224 008e 3B       		.uleb128 0x3b
 1225 008f 05       		.uleb128 0x5
 1226 0090 49       		.uleb128 0x49
 1227 0091 13       		.uleb128 0x13
 1228 0092 02       		.uleb128 0x2
 1229 0093 18       		.uleb128 0x18
 1230 0094 00       		.byte	0
 1231 0095 00       		.byte	0
 1232 0096 0A       		.uleb128 0xa
 1233 0097 34       		.uleb128 0x34
 1234 0098 00       		.byte	0
 1235 0099 03       		.uleb128 0x3
 1236 009a 0E       		.uleb128 0xe
 1237 009b 3A       		.uleb128 0x3a
 1238 009c 0B       		.uleb128 0xb
 1239 009d 3B       		.uleb128 0x3b
 1240 009e 05       		.uleb128 0x5
 1241 009f 49       		.uleb128 0x49
 1242 00a0 13       		.uleb128 0x13
 1243 00a1 02       		.uleb128 0x2
 1244 00a2 18       		.uleb128 0x18
 1245 00a3 00       		.byte	0
 1246 00a4 00       		.byte	0
 1247 00a5 0B       		.uleb128 0xb
 1248 00a6 2E       		.uleb128 0x2e
 1249 00a7 01       		.byte	0x1
 1250 00a8 3F       		.uleb128 0x3f
 1251 00a9 19       		.uleb128 0x19
 1252 00aa 03       		.uleb128 0x3
 1253 00ab 0E       		.uleb128 0xe
 1254 00ac 3A       		.uleb128 0x3a
 1255 00ad 0B       		.uleb128 0xb
 1256 00ae 3B       		.uleb128 0x3b
 1257 00af 05       		.uleb128 0x5
 1258 00b0 27       		.uleb128 0x27
 1259 00b1 19       		.uleb128 0x19
ARM GAS  C:\Users\passw\AppData\Local\Temp\ccAKcy8H.s 			page 37


 1260 00b2 49       		.uleb128 0x49
 1261 00b3 13       		.uleb128 0x13
 1262 00b4 11       		.uleb128 0x11
 1263 00b5 01       		.uleb128 0x1
 1264 00b6 12       		.uleb128 0x12
 1265 00b7 06       		.uleb128 0x6
 1266 00b8 40       		.uleb128 0x40
 1267 00b9 18       		.uleb128 0x18
 1268 00ba 9642     		.uleb128 0x2116
 1269 00bc 19       		.uleb128 0x19
 1270 00bd 01       		.uleb128 0x1
 1271 00be 13       		.uleb128 0x13
 1272 00bf 00       		.byte	0
 1273 00c0 00       		.byte	0
 1274 00c1 0C       		.uleb128 0xc
 1275 00c2 2E       		.uleb128 0x2e
 1276 00c3 01       		.byte	0x1
 1277 00c4 3F       		.uleb128 0x3f
 1278 00c5 19       		.uleb128 0x19
 1279 00c6 03       		.uleb128 0x3
 1280 00c7 0E       		.uleb128 0xe
 1281 00c8 3A       		.uleb128 0x3a
 1282 00c9 0B       		.uleb128 0xb
 1283 00ca 3B       		.uleb128 0x3b
 1284 00cb 05       		.uleb128 0x5
 1285 00cc 27       		.uleb128 0x27
 1286 00cd 19       		.uleb128 0x19
 1287 00ce 11       		.uleb128 0x11
 1288 00cf 01       		.uleb128 0x1
 1289 00d0 12       		.uleb128 0x12
 1290 00d1 06       		.uleb128 0x6
 1291 00d2 40       		.uleb128 0x40
 1292 00d3 18       		.uleb128 0x18
 1293 00d4 9642     		.uleb128 0x2116
 1294 00d6 19       		.uleb128 0x19
 1295 00d7 01       		.uleb128 0x1
 1296 00d8 13       		.uleb128 0x13
 1297 00d9 00       		.byte	0
 1298 00da 00       		.byte	0
 1299 00db 0D       		.uleb128 0xd
 1300 00dc 0F       		.uleb128 0xf
 1301 00dd 00       		.byte	0
 1302 00de 0B       		.uleb128 0xb
 1303 00df 0B       		.uleb128 0xb
 1304 00e0 49       		.uleb128 0x49
 1305 00e1 13       		.uleb128 0x13
 1306 00e2 00       		.byte	0
 1307 00e3 00       		.byte	0
 1308 00e4 0E       		.uleb128 0xe
 1309 00e5 26       		.uleb128 0x26
 1310 00e6 00       		.byte	0
 1311 00e7 49       		.uleb128 0x49
 1312 00e8 13       		.uleb128 0x13
 1313 00e9 00       		.byte	0
 1314 00ea 00       		.byte	0
 1315 00eb 0F       		.uleb128 0xf
 1316 00ec 2E       		.uleb128 0x2e
ARM GAS  C:\Users\passw\AppData\Local\Temp\ccAKcy8H.s 			page 38


 1317 00ed 01       		.byte	0x1
 1318 00ee 3F       		.uleb128 0x3f
 1319 00ef 19       		.uleb128 0x19
 1320 00f0 03       		.uleb128 0x3
 1321 00f1 0E       		.uleb128 0xe
 1322 00f2 3A       		.uleb128 0x3a
 1323 00f3 0B       		.uleb128 0xb
 1324 00f4 3B       		.uleb128 0x3b
 1325 00f5 05       		.uleb128 0x5
 1326 00f6 27       		.uleb128 0x27
 1327 00f7 19       		.uleb128 0x19
 1328 00f8 11       		.uleb128 0x11
 1329 00f9 01       		.uleb128 0x1
 1330 00fa 12       		.uleb128 0x12
 1331 00fb 06       		.uleb128 0x6
 1332 00fc 40       		.uleb128 0x40
 1333 00fd 18       		.uleb128 0x18
 1334 00fe 9742     		.uleb128 0x2117
 1335 0100 19       		.uleb128 0x19
 1336 0101 00       		.byte	0
 1337 0102 00       		.byte	0
 1338 0103 00       		.byte	0
 1339              		.section	.debug_aranges,"",%progbits
 1340 0000 84000000 		.4byte	0x84
 1341 0004 0200     		.2byte	0x2
 1342 0006 00000000 		.4byte	.Ldebug_info0
 1343 000a 04       		.byte	0x4
 1344 000b 00       		.byte	0
 1345 000c 0000     		.2byte	0
 1346 000e 0000     		.2byte	0
 1347 0010 00000000 		.4byte	.LFB1
 1348 0014 B0000000 		.4byte	.LFE1-.LFB1
 1349 0018 00000000 		.4byte	.LFB2
 1350 001c 1C000000 		.4byte	.LFE2-.LFB2
 1351 0020 00000000 		.4byte	.LFB3
 1352 0024 18000000 		.4byte	.LFE3-.LFB3
 1353 0028 00000000 		.4byte	.LFB4
 1354 002c 34000000 		.4byte	.LFE4-.LFB4
 1355 0030 00000000 		.4byte	.LFB5
 1356 0034 34000000 		.4byte	.LFE5-.LFB5
 1357 0038 00000000 		.4byte	.LFB6
 1358 003c 40000000 		.4byte	.LFE6-.LFB6
 1359 0040 00000000 		.4byte	.LFB7
 1360 0044 50000000 		.4byte	.LFE7-.LFB7
 1361 0048 00000000 		.4byte	.LFB8
 1362 004c 38000000 		.4byte	.LFE8-.LFB8
 1363 0050 00000000 		.4byte	.LFB9
 1364 0054 34000000 		.4byte	.LFE9-.LFB9
 1365 0058 00000000 		.4byte	.LFB10
 1366 005c 34000000 		.4byte	.LFE10-.LFB10
 1367 0060 00000000 		.4byte	.LFB11
 1368 0064 22000000 		.4byte	.LFE11-.LFB11
 1369 0068 00000000 		.4byte	.LFB12
 1370 006c 1C000000 		.4byte	.LFE12-.LFB12
 1371 0070 00000000 		.4byte	.LFB13
 1372 0074 1C000000 		.4byte	.LFE13-.LFB13
 1373 0078 00000000 		.4byte	.LFB14
ARM GAS  C:\Users\passw\AppData\Local\Temp\ccAKcy8H.s 			page 39


 1374 007c 38000000 		.4byte	.LFE14-.LFB14
 1375 0080 00000000 		.4byte	0
 1376 0084 00000000 		.4byte	0
 1377              		.section	.debug_ranges,"",%progbits
 1378              	.Ldebug_ranges0:
 1379 0000 00000000 		.4byte	.LFB1
 1380 0004 B0000000 		.4byte	.LFE1
 1381 0008 00000000 		.4byte	.LFB2
 1382 000c 1C000000 		.4byte	.LFE2
 1383 0010 00000000 		.4byte	.LFB3
 1384 0014 18000000 		.4byte	.LFE3
 1385 0018 00000000 		.4byte	.LFB4
 1386 001c 34000000 		.4byte	.LFE4
 1387 0020 00000000 		.4byte	.LFB5
 1388 0024 34000000 		.4byte	.LFE5
 1389 0028 00000000 		.4byte	.LFB6
 1390 002c 40000000 		.4byte	.LFE6
 1391 0030 00000000 		.4byte	.LFB7
 1392 0034 50000000 		.4byte	.LFE7
 1393 0038 00000000 		.4byte	.LFB8
 1394 003c 38000000 		.4byte	.LFE8
 1395 0040 00000000 		.4byte	.LFB9
 1396 0044 34000000 		.4byte	.LFE9
 1397 0048 00000000 		.4byte	.LFB10
 1398 004c 34000000 		.4byte	.LFE10
 1399 0050 00000000 		.4byte	.LFB11
 1400 0054 22000000 		.4byte	.LFE11
 1401 0058 00000000 		.4byte	.LFB12
 1402 005c 1C000000 		.4byte	.LFE12
 1403 0060 00000000 		.4byte	.LFB13
 1404 0064 1C000000 		.4byte	.LFE13
 1405 0068 00000000 		.4byte	.LFB14
 1406 006c 38000000 		.4byte	.LFE14
 1407 0070 00000000 		.4byte	0
 1408 0074 00000000 		.4byte	0
 1409              		.section	.debug_line,"",%progbits
 1410              	.Ldebug_line0:
 1411 0000 A1010000 		.section	.debug_str,"MS",%progbits,1
 1411      02005F00 
 1411      00000201 
 1411      FB0E0D00 
 1411      01010101 
 1412              	.LASF6:
 1413 0000 6C6F6E67 		.ascii	"long long int\000"
 1413      206C6F6E 
 1413      6720696E 
 1413      7400
 1414              	.LASF14:
 1415 000e 72656733 		.ascii	"reg32\000"
 1415      3200
 1416              	.LASF20:
 1417 0014 55415254 		.ascii	"UART_UartSetRxAddressMask\000"
 1417      5F556172 
 1417      74536574 
 1417      52784164 
 1417      64726573 
 1418              	.LASF31:
ARM GAS  C:\Users\passw\AppData\Local\Temp\ccAKcy8H.s 			page 40


 1419 002e 6C657665 		.ascii	"level\000"
 1419      6C00
 1420              	.LASF39:
 1421 0034 55415254 		.ascii	"UART_UartDisableCts\000"
 1421      5F556172 
 1421      74446973 
 1421      61626C65 
 1421      43747300 
 1422              	.LASF28:
 1423 0048 55415254 		.ascii	"UART_UartSetRtsPolarity\000"
 1423      5F556172 
 1423      74536574 
 1423      52747350 
 1423      6F6C6172 
 1424              	.LASF34:
 1425 0060 73747269 		.ascii	"string\000"
 1425      6E6700
 1426              	.LASF33:
 1427 0067 55415254 		.ascii	"UART_UartPutString\000"
 1427      5F556172 
 1427      74507574 
 1427      53747269 
 1427      6E6700
 1428              	.LASF26:
 1429 007a 55415254 		.ascii	"UART_UartGetByte\000"
 1429      5F556172 
 1429      74476574 
 1429      42797465 
 1429      00
 1430              	.LASF1:
 1431 008b 756E7369 		.ascii	"unsigned char\000"
 1431      676E6564 
 1431      20636861 
 1431      7200
 1432              	.LASF30:
 1433 0099 55415254 		.ascii	"UART_UartSetRtsFifoLevel\000"
 1433      5F556172 
 1433      74536574 
 1433      52747346 
 1433      69666F4C 
 1434              	.LASF12:
 1435 00b2 63686172 		.ascii	"char8\000"
 1435      3800
 1436              	.LASF17:
 1437 00b8 55415254 		.ascii	"UART_UartPostEnable\000"
 1437      5F556172 
 1437      74506F73 
 1437      74456E61 
 1437      626C6500 
 1438              	.LASF5:
 1439 00cc 6C6F6E67 		.ascii	"long unsigned int\000"
 1439      20756E73 
 1439      69676E65 
 1439      6420696E 
 1439      7400
 1440              	.LASF18:
 1441 00de 55415254 		.ascii	"UART_UartStop\000"
ARM GAS  C:\Users\passw\AppData\Local\Temp\ccAKcy8H.s 			page 41


 1441      5F556172 
 1441      7453746F 
 1441      7000
 1442              	.LASF3:
 1443 00ec 73686F72 		.ascii	"short unsigned int\000"
 1443      7420756E 
 1443      7369676E 
 1443      65642069 
 1443      6E7400
 1444              	.LASF36:
 1445 00ff 55415254 		.ascii	"UART_UartPutCRLF\000"
 1445      5F556172 
 1445      74507574 
 1445      43524C46 
 1445      00
 1446              	.LASF24:
 1447 0110 72784461 		.ascii	"rxData\000"
 1447      746100
 1448              	.LASF22:
 1449 0117 61646472 		.ascii	"addressMask\000"
 1449      6573734D 
 1449      61736B00 
 1450              	.LASF10:
 1451 0123 646F7562 		.ascii	"double\000"
 1451      6C6500
 1452              	.LASF19:
 1453 012a 55415254 		.ascii	"UART_UartSetRxAddress\000"
 1453      5F556172 
 1453      74536574 
 1453      52784164 
 1453      64726573 
 1454              	.LASF40:
 1455 0140 474E5520 		.ascii	"GNU C 4.9.3 20150303 (release) [ARM/embedded-4_9-br"
 1455      4320342E 
 1455      392E3320 
 1455      32303135 
 1455      30333033 
 1456 0173 616E6368 		.ascii	"anch revision 221220] -mcpu=cortex-m0 -mthumb -g -O"
 1456      20726576 
 1456      6973696F 
 1456      6E203232 
 1456      31323230 
 1457 01a6 30202D66 		.ascii	"0 -ffunction-sections -ffat-lto-objects\000"
 1457      66756E63 
 1457      74696F6E 
 1457      2D736563 
 1457      74696F6E 
 1458              	.LASF11:
 1459 01ce 75696E74 		.ascii	"uint32\000"
 1459      333200
 1460              	.LASF8:
 1461 01d5 756E7369 		.ascii	"unsigned int\000"
 1461      676E6564 
 1461      20696E74 
 1461      00
 1462              	.LASF16:
 1463 01e2 55415254 		.ascii	"UART_UartInit\000"
ARM GAS  C:\Users\passw\AppData\Local\Temp\ccAKcy8H.s 			page 42


 1463      5F556172 
 1463      74496E69 
 1463      7400
 1464              	.LASF21:
 1465 01f0 61646472 		.ascii	"address\000"
 1465      65737300 
 1466              	.LASF7:
 1467 01f8 6C6F6E67 		.ascii	"long long unsigned int\000"
 1467      206C6F6E 
 1467      6720756E 
 1467      7369676E 
 1467      65642069 
 1468              	.LASF29:
 1469 020f 706F6C61 		.ascii	"polarity\000"
 1469      72697479 
 1469      00
 1470              	.LASF35:
 1471 0218 62756649 		.ascii	"bufIndex\000"
 1471      6E646578 
 1471      00
 1472              	.LASF25:
 1473 0221 55415254 		.ascii	"UART_UartGetChar\000"
 1473      5F556172 
 1473      74476574 
 1473      43686172 
 1473      00
 1474              	.LASF15:
 1475 0232 73697A65 		.ascii	"sizetype\000"
 1475      74797065 
 1475      00
 1476              	.LASF37:
 1477 023b 74784461 		.ascii	"txDataByte\000"
 1477      74614279 
 1477      746500
 1478              	.LASF41:
 1479 0246 2E5C4765 		.ascii	".\\Generated_Source\\PSoC4\\UART_UART.c\000"
 1479      6E657261 
 1479      7465645F 
 1479      536F7572 
 1479      63655C50 
 1480              	.LASF38:
 1481 026b 55415254 		.ascii	"UART_UartEnableCts\000"
 1481      5F556172 
 1481      74456E61 
 1481      626C6543 
 1481      747300
 1482              	.LASF13:
 1483 027e 63686172 		.ascii	"char\000"
 1483      00
 1484              	.LASF42:
 1485 0283 433A5C55 		.ascii	"C:\\Users\\passw\\OneDrive\\Documents\\PSoC\\HWSW 9"
 1485      73657273 
 1485      5C706173 
 1485      73775C4F 
 1485      6E654472 
 1486 02b0 5C485753 		.ascii	"\\HWSW 9.cydsn\000"
 1486      5720392E 
ARM GAS  C:\Users\passw\AppData\Local\Temp\ccAKcy8H.s 			page 43


 1486      63796473 
 1486      6E00
 1487              	.LASF2:
 1488 02be 73686F72 		.ascii	"short int\000"
 1488      7420696E 
 1488      7400
 1489              	.LASF43:
 1490 02c8 55415254 		.ascii	"UART_UartSetCtsPolarity\000"
 1490      5F556172 
 1490      74536574 
 1490      43747350 
 1490      6F6C6172 
 1491              	.LASF4:
 1492 02e0 6C6F6E67 		.ascii	"long int\000"
 1492      20696E74 
 1492      00
 1493              	.LASF27:
 1494 02e9 746D7053 		.ascii	"tmpStatus\000"
 1494      74617475 
 1494      7300
 1495              	.LASF23:
 1496 02f3 6D617463 		.ascii	"matchReg\000"
 1496      68526567 
 1496      00
 1497              	.LASF9:
 1498 02fc 666C6F61 		.ascii	"float\000"
 1498      7400
 1499              	.LASF0:
 1500 0302 7369676E 		.ascii	"signed char\000"
 1500      65642063 
 1500      68617200 
 1501              	.LASF32:
 1502 030e 75617274 		.ascii	"uartFlowCtrl\000"
 1502      466C6F77 
 1502      4374726C 
 1502      00
 1503              		.ident	"GCC: (GNU Tools for ARM Embedded Processors) 4.9.3 20150303 (release) [ARM/embedded-4_9-br
