ARM GAS  C:\Users\LINETT~1\AppData\Local\Temp\ccKEYg1q.s 			page 1


   1              		.cpu cortex-m0
   2              		.fpu softvfp
   3              		.eabi_attribute 20, 1
   4              		.eabi_attribute 21, 1
   5              		.eabi_attribute 23, 3
   6              		.eabi_attribute 24, 1
   7              		.eabi_attribute 25, 1
   8              		.eabi_attribute 26, 1
   9              		.eabi_attribute 30, 6
  10              		.eabi_attribute 34, 0
  11              		.eabi_attribute 18, 4
  12              		.code	16
  13              		.file	"main.c"
  14              		.text
  15              	.Ltext0:
  16              		.cfi_sections	.debug_frame
  17              		.global	x_mavg
  18              		.bss
  19              		.align	3
  20              		.type	x_mavg, %object
  21              		.size	x_mavg, 80
  22              	x_mavg:
  23 0000 00000000 		.space	80
  23      00000000 
  23      00000000 
  23      00000000 
  23      00000000 
  24              		.global	y_mavg
  25              		.align	3
  26              		.type	y_mavg, %object
  27              		.size	y_mavg, 8
  28              	y_mavg:
  29 0050 00000000 		.space	8
  29      00000000 
  30              		.global	b_mavg
  31              		.data
  32              		.align	3
  33              		.type	b_mavg, %object
  34              		.size	b_mavg, 80
  35              	b_mavg:
  36 0000 9A999999 		.word	-1717986918
  37 0004 9999B93F 		.word	1069128089
  38 0008 9A999999 		.word	-1717986918
  39 000c 9999B93F 		.word	1069128089
  40 0010 9A999999 		.word	-1717986918
  41 0014 9999B93F 		.word	1069128089
  42 0018 9A999999 		.word	-1717986918
  43 001c 9999B93F 		.word	1069128089
  44 0020 9A999999 		.word	-1717986918
  45 0024 9999B93F 		.word	1069128089
  46 0028 9A999999 		.word	-1717986918
  47 002c 9999B93F 		.word	1069128089
  48 0030 9A999999 		.word	-1717986918
  49 0034 9999B93F 		.word	1069128089
  50 0038 9A999999 		.word	-1717986918
  51 003c 9999B93F 		.word	1069128089
  52 0040 9A999999 		.word	-1717986918
ARM GAS  C:\Users\LINETT~1\AppData\Local\Temp\ccKEYg1q.s 			page 2


  53 0044 9999B93F 		.word	1069128089
  54 0048 9A999999 		.word	-1717986918
  55 004c 9999B93F 		.word	1069128089
  56              		.global	x2_mavg
  57              		.bss
  58              		.align	3
  59              		.type	x2_mavg, %object
  60              		.size	x2_mavg, 80
  61              	x2_mavg:
  62 0058 00000000 		.space	80
  62      00000000 
  62      00000000 
  62      00000000 
  62      00000000 
  63              		.global	y2_mavg
  64              		.align	3
  65              		.type	y2_mavg, %object
  66              		.size	y2_mavg, 8
  67              	y2_mavg:
  68 00a8 00000000 		.space	8
  68      00000000 
  69              		.global	b2_mavg
  70              		.data
  71              		.align	3
  72              		.type	b2_mavg, %object
  73              		.size	b2_mavg, 80
  74              	b2_mavg:
  75 0050 9A999999 		.word	-1717986918
  76 0054 9999B93F 		.word	1069128089
  77 0058 9A999999 		.word	-1717986918
  78 005c 9999B93F 		.word	1069128089
  79 0060 9A999999 		.word	-1717986918
  80 0064 9999B93F 		.word	1069128089
  81 0068 9A999999 		.word	-1717986918
  82 006c 9999B93F 		.word	1069128089
  83 0070 9A999999 		.word	-1717986918
  84 0074 9999B93F 		.word	1069128089
  85 0078 9A999999 		.word	-1717986918
  86 007c 9999B93F 		.word	1069128089
  87 0080 9A999999 		.word	-1717986918
  88 0084 9999B93F 		.word	1069128089
  89 0088 9A999999 		.word	-1717986918
  90 008c 9999B93F 		.word	1069128089
  91 0090 9A999999 		.word	-1717986918
  92 0094 9999B93F 		.word	1069128089
  93 0098 9A999999 		.word	-1717986918
  94 009c 9999B93F 		.word	1069128089
  95              		.global	x_low
  96              		.bss
  97              		.align	3
  98              		.type	x_low, %object
  99              		.size	x_low, 24
 100              	x_low:
 101 00b0 00000000 		.space	24
 101      00000000 
 101      00000000 
 101      00000000 
ARM GAS  C:\Users\LINETT~1\AppData\Local\Temp\ccKEYg1q.s 			page 3


 101      00000000 
 102              		.global	y_low
 103              		.align	3
 104              		.type	y_low, %object
 105              		.size	y_low, 24
 106              	y_low:
 107 00c8 00000000 		.space	24
 107      00000000 
 107      00000000 
 107      00000000 
 107      00000000 
 108              		.global	b_low
 109              		.data
 110              		.align	3
 111              		.type	b_low, %object
 112              		.size	b_low, 24
 113              	b_low:
 114 00a0 BE30992A 		.word	714682558
 115 00a4 1895943F 		.word	1066702104
 116 00a8 BE30992A 		.word	714682558
 117 00ac 1895A43F 		.word	1067750680
 118 00b0 BE30992A 		.word	714682558
 119 00b4 1895943F 		.word	1066702104
 120              		.global	a_low
 121              		.align	3
 122              		.type	a_low, %object
 123              		.size	a_low, 24
 124              	a_low:
 125 00b8 00000000 		.word	0
 126 00bc 0000F03F 		.word	1072693248
 127 00c0 60E5D022 		.word	584115552
 128 00c4 DBF9F8BF 		.word	-1074202149
 129 00c8 D8F0F44A 		.word	1257566424
 130 00cc 5986E43F 		.word	1071941209
 131              		.global	current_byte
 132              		.bss
 133              		.type	current_byte, %object
 134              		.size	current_byte, 1
 135              	current_byte:
 136 00e0 00       		.space	1
 137              		.comm	value_in,2,2
 138              		.global	value_out
 139 00e1 000000   		.align	2
 140              		.type	value_out, %object
 141              		.size	value_out, 4
 142              	value_out:
 143 00e4 00000000 		.space	4
 144              		.global	i
 145              		.align	1
 146              		.type	i, %object
 147              		.size	i, 2
 148              	i:
 149 00e8 0000     		.space	2
 150              		.global	j
 151              		.align	1
 152              		.type	j, %object
 153              		.size	j, 2
ARM GAS  C:\Users\LINETT~1\AppData\Local\Temp\ccKEYg1q.s 			page 4


 154              	j:
 155 00ea 0000     		.space	2
 156              		.comm	avg_new,2,2
 157              		.global	FirstCall
 158              		.data
 159              		.type	FirstCall, %object
 160              		.size	FirstCall, 1
 161              	FirstCall:
 162 00d0 01       		.byte	1
 163              		.global	result
 164 00d1 00000000 		.bss
 164      000000
 165              		.align	2
 166              		.type	result, %object
 167              		.size	result, 2
 168              	result:
 169 00ec 0000     		.space	2
 170              		.global	data_ready
 171              		.type	data_ready, %object
 172              		.size	data_ready, 1
 173              	data_ready:
 174 00ee 00       		.space	1
 175              		.global	__aeabi_dcmpgt
 176              		.global	__aeabi_dadd
 177              		.global	__aeabi_d2iz
 178              		.global	__aeabi_dsub
 179 00ef 00       		.section	.text.floor_and_convert,"ax",%progbits
 180              		.align	2
 181              		.global	floor_and_convert
 182              		.code	16
 183              		.thumb_func
 184              		.type	floor_and_convert, %function
 185              	floor_and_convert:
 186              	.LFB37:
 187              		.file 1 ".\\main.c"
   1:.\main.c      **** #include <project.h>
   2:.\main.c      **** #include <my_defines.h>
   3:.\main.c      **** #include <stdlib.h>
   4:.\main.c      **** 
   5:.\main.c      **** #define LOWBYTE 0                                   // Used to toggle between HIGH byte and LOW byt
   6:.\main.c      **** #define HIGHBYTE 1                                  // Used to toggle between HIGH byte and LOW byt
   7:.\main.c      **** #define FALSE 0
   8:.\main.c      **** #define TRUE 1
   9:.\main.c      **** 
  10:.\main.c      **** /* Moving average filter */ 
  11:.\main.c      **** #define FILTER_LENGTH_mavg 9
  12:.\main.c      **** //int y[2] = {0,0};
  13:.\main.c      **** double x_mavg[FILTER_LENGTH_mavg+1] = {0,0,0,0,0,0,0,0,0,0};
  14:.\main.c      **** double y_mavg = 0;
  15:.\main.c      **** double b_mavg[FILTER_LENGTH_mavg+1] = {0.1,0.1,0.1,0.1,0.1,0.1,0.1,0.1,0.1,0.1};
  16:.\main.c      **** 
  17:.\main.c      **** /* Moving average filter 2 */
  18:.\main.c      **** #define FILTER_LENGTH_mavg2 9
  19:.\main.c      **** //int y2[2] = {0,0};
  20:.\main.c      **** double x2_mavg[FILTER_LENGTH_mavg2+1] = {0,0,0,0,0,0,0,0,0,0};
  21:.\main.c      **** double y2_mavg = 0;
  22:.\main.c      **** double b2_mavg[FILTER_LENGTH_mavg2+1] = {0.1,0.1,0.1,0.1,0.1,0.1,0.1,0.1,0.1,0.1};
ARM GAS  C:\Users\LINETT~1\AppData\Local\Temp\ccKEYg1q.s 			page 5


  23:.\main.c      **** 
  24:.\main.c      **** /* Lavpas filter*/
  25:.\main.c      **** #define FILTER_LENGTH_low 2
  26:.\main.c      **** double x_low[FILTER_LENGTH_low+1] = {0, 0, 0};
  27:.\main.c      **** double y_low[FILTER_LENGTH_low+1] = {0, 0, 0};
  28:.\main.c      **** double b_low[FILTER_LENGTH_low+1] = {0.0201, 0.0402, 0.0201};
  29:.\main.c      **** double a_low[FILTER_LENGTH_low+1] = {1.0000, -1.5610, 0.6414};
  30:.\main.c      **** 
  31:.\main.c      **** char current_byte = LOWBYTE;                        // Receive LOW byte first as default
  32:.\main.c      **** int16 value_in,value_out[2]={0,0},i=0,j=0, avg_new; 
  33:.\main.c      **** char FirstCall = TRUE;
  34:.\main.c      **** 
  35:.\main.c      **** int16 result[num_of_channels] = {0};
  36:.\main.c      **** uint8 data_ready = FALSE;
  37:.\main.c      **** 
  38:.\main.c      **** /***********************************Konvertering til heltal***********************************/
  39:.\main.c      **** signed int floor_and_convert(double y)
  40:.\main.c      **** {
 188              		.loc 1 40 0
 189              		.cfi_startproc
 190 0000 90B5     		push	{r4, r7, lr}
 191              		.cfi_def_cfa_offset 12
 192              		.cfi_offset 4, -12
 193              		.cfi_offset 7, -8
 194              		.cfi_offset 14, -4
 195 0002 83B0     		sub	sp, sp, #12
 196              		.cfi_def_cfa_offset 24
 197 0004 00AF     		add	r7, sp, #0
 198              		.cfi_def_cfa_register 7
 199 0006 3860     		str	r0, [r7]
 200 0008 7960     		str	r1, [r7, #4]
  41:.\main.c      ****    if (y > 0)
 201              		.loc 1 41 0
 202 000a 3868     		ldr	r0, [r7]
 203 000c 7968     		ldr	r1, [r7, #4]
 204 000e 0022     		mov	r2, #0
 205 0010 0023     		mov	r3, #0
 206 0012 FFF7FEFF 		bl	__aeabi_dcmpgt
 207 0016 031E     		sub	r3, r0, #0
 208 0018 0DD0     		beq	.L6
  42:.\main.c      ****       return (signed int) (y+0.5);
 209              		.loc 1 42 0
 210 001a 3868     		ldr	r0, [r7]
 211 001c 7968     		ldr	r1, [r7, #4]
 212 001e 0022     		mov	r2, #0
 213 0020 0D4B     		ldr	r3, .L7
 214 0022 FFF7FEFF 		bl	__aeabi_dadd
 215 0026 031C     		mov	r3, r0
 216 0028 0C1C     		mov	r4, r1
 217 002a 181C     		mov	r0, r3
 218 002c 211C     		mov	r1, r4
 219 002e FFF7FEFF 		bl	__aeabi_d2iz
 220 0032 031C     		mov	r3, r0
 221 0034 0CE0     		b	.L4
 222              	.L6:
  43:.\main.c      ****    else
  44:.\main.c      ****       return (signed int) (y-0.5);
ARM GAS  C:\Users\LINETT~1\AppData\Local\Temp\ccKEYg1q.s 			page 6


 223              		.loc 1 44 0
 224 0036 3868     		ldr	r0, [r7]
 225 0038 7968     		ldr	r1, [r7, #4]
 226 003a 0022     		mov	r2, #0
 227 003c 064B     		ldr	r3, .L7
 228 003e FFF7FEFF 		bl	__aeabi_dsub
 229 0042 031C     		mov	r3, r0
 230 0044 0C1C     		mov	r4, r1
 231 0046 181C     		mov	r0, r3
 232 0048 211C     		mov	r1, r4
 233 004a FFF7FEFF 		bl	__aeabi_d2iz
 234 004e 031C     		mov	r3, r0
 235              	.L4:
  45:.\main.c      **** }
 236              		.loc 1 45 0
 237 0050 181C     		mov	r0, r3
 238 0052 BD46     		mov	sp, r7
 239 0054 03B0     		add	sp, sp, #12
 240              		@ sp needed
 241 0056 90BD     		pop	{r4, r7, pc}
 242              	.L8:
 243              		.align	2
 244              	.L7:
 245 0058 0000E03F 		.word	1071644672
 246              		.cfi_endproc
 247              	.LFE37:
 248              		.size	floor_and_convert, .-floor_and_convert
 249              		.global	__aeabi_i2d
 250              		.global	__aeabi_dmul
 251              		.section	.text.mavg_filter,"ax",%progbits
 252              		.align	2
 253              		.global	mavg_filter
 254              		.code	16
 255              		.thumb_func
 256              		.type	mavg_filter, %function
 257              	mavg_filter:
 258              	.LFB38:
  46:.\main.c      **** 
  47:.\main.c      **** /***********************************Moving average filter***********************************/
  48:.\main.c      **** signed int mavg_filter(signed int data)
  49:.\main.c      **** {
 259              		.loc 1 49 0
 260              		.cfi_startproc
 261 0000 90B5     		push	{r4, r7, lr}
 262              		.cfi_def_cfa_offset 12
 263              		.cfi_offset 4, -12
 264              		.cfi_offset 7, -8
 265              		.cfi_offset 14, -4
 266 0002 83B0     		sub	sp, sp, #12
 267              		.cfi_def_cfa_offset 24
 268 0004 00AF     		add	r7, sp, #0
 269              		.cfi_def_cfa_register 7
 270 0006 7860     		str	r0, [r7, #4]
  50:.\main.c      ****    x_mavg[0] =  (double) data;      // Read received sample and perform type casts
 271              		.loc 1 50 0
 272 0008 7868     		ldr	r0, [r7, #4]
 273 000a FFF7FEFF 		bl	__aeabi_i2d
ARM GAS  C:\Users\LINETT~1\AppData\Local\Temp\ccKEYg1q.s 			page 7


 274 000e 031C     		mov	r3, r0
 275 0010 0C1C     		mov	r4, r1
 276 0012 384A     		ldr	r2, .L15
 277 0014 1360     		str	r3, [r2]
 278 0016 5460     		str	r4, [r2, #4]
  51:.\main.c      ****    
  52:.\main.c      ****    y_mavg = 0;
 279              		.loc 1 52 0
 280 0018 374A     		ldr	r2, .L15+4
 281 001a 0023     		mov	r3, #0
 282 001c 0024     		mov	r4, #0
 283 001e 1360     		str	r3, [r2]
 284 0020 5460     		str	r4, [r2, #4]
  53:.\main.c      ****    for(i = 0;i <= FILTER_LENGTH_mavg;i++)           // Run FIR filter for each received sample
 285              		.loc 1 53 0
 286 0022 364B     		ldr	r3, .L15+8
 287 0024 0022     		mov	r2, #0
 288 0026 1A80     		strh	r2, [r3]
 289 0028 30E0     		b	.L10
 290              	.L11:
  54:.\main.c      ****    {
  55:.\main.c      ****       y_mavg += b_mavg[i]*x_mavg[i];
 291              		.loc 1 55 0 discriminator 3
 292 002a 344B     		ldr	r3, .L15+8
 293 002c 1B88     		ldrh	r3, [r3]
 294 002e 1BB2     		sxth	r3, r3
 295 0030 334A     		ldr	r2, .L15+12
 296 0032 DB00     		lsl	r3, r3, #3
 297 0034 D318     		add	r3, r2, r3
 298 0036 1968     		ldr	r1, [r3]
 299 0038 5A68     		ldr	r2, [r3, #4]
 300 003a 304B     		ldr	r3, .L15+8
 301 003c 1B88     		ldrh	r3, [r3]
 302 003e 1BB2     		sxth	r3, r3
 303 0040 2C48     		ldr	r0, .L15
 304 0042 DB00     		lsl	r3, r3, #3
 305 0044 C318     		add	r3, r0, r3
 306 0046 5C68     		ldr	r4, [r3, #4]
 307 0048 1B68     		ldr	r3, [r3]
 308 004a 081C     		mov	r0, r1
 309 004c 111C     		mov	r1, r2
 310 004e 1A1C     		mov	r2, r3
 311 0050 231C     		mov	r3, r4
 312 0052 FFF7FEFF 		bl	__aeabi_dmul
 313 0056 031C     		mov	r3, r0
 314 0058 0C1C     		mov	r4, r1
 315 005a 191C     		mov	r1, r3
 316 005c 221C     		mov	r2, r4
 317 005e 264B     		ldr	r3, .L15+4
 318 0060 5C68     		ldr	r4, [r3, #4]
 319 0062 1B68     		ldr	r3, [r3]
 320 0064 081C     		mov	r0, r1
 321 0066 111C     		mov	r1, r2
 322 0068 1A1C     		mov	r2, r3
 323 006a 231C     		mov	r3, r4
 324 006c FFF7FEFF 		bl	__aeabi_dadd
 325 0070 031C     		mov	r3, r0
ARM GAS  C:\Users\LINETT~1\AppData\Local\Temp\ccKEYg1q.s 			page 8


 326 0072 0C1C     		mov	r4, r1
 327 0074 204A     		ldr	r2, .L15+4
 328 0076 1360     		str	r3, [r2]
 329 0078 5460     		str	r4, [r2, #4]
  53:.\main.c      ****    for(i = 0;i <= FILTER_LENGTH_mavg;i++)           // Run FIR filter for each received sample
 330              		.loc 1 53 0 discriminator 3
 331 007a 204B     		ldr	r3, .L15+8
 332 007c 1B88     		ldrh	r3, [r3]
 333 007e 9BB2     		uxth	r3, r3
 334 0080 9BB2     		uxth	r3, r3
 335 0082 0133     		add	r3, r3, #1
 336 0084 9BB2     		uxth	r3, r3
 337 0086 9AB2     		uxth	r2, r3
 338 0088 1C4B     		ldr	r3, .L15+8
 339 008a 1A80     		strh	r2, [r3]
 340              	.L10:
  53:.\main.c      ****    for(i = 0;i <= FILTER_LENGTH_mavg;i++)           // Run FIR filter for each received sample
 341              		.loc 1 53 0 is_stmt 0 discriminator 1
 342 008c 1B4B     		ldr	r3, .L15+8
 343 008e 1B88     		ldrh	r3, [r3]
 344 0090 1BB2     		sxth	r3, r3
 345 0092 092B     		cmp	r3, #9
 346 0094 C9DD     		ble	.L11
  56:.\main.c      ****    } 
  57:.\main.c      ****    
  58:.\main.c      ****    for(i = FILTER_LENGTH_mavg-1;i >= 0;i--)         // Roll x array in order to hold old sample inp
 347              		.loc 1 58 0 is_stmt 1
 348 0096 194B     		ldr	r3, .L15+8
 349 0098 0822     		mov	r2, #8
 350 009a 1A80     		strh	r2, [r3]
 351 009c 19E0     		b	.L12
 352              	.L13:
  59:.\main.c      ****    {
  60:.\main.c      ****       x_mavg[i+1] = x_mavg[i];
 353              		.loc 1 60 0 discriminator 3
 354 009e 174B     		ldr	r3, .L15+8
 355 00a0 1B88     		ldrh	r3, [r3]
 356 00a2 1BB2     		sxth	r3, r3
 357 00a4 5A1C     		add	r2, r3, #1
 358 00a6 154B     		ldr	r3, .L15+8
 359 00a8 1B88     		ldrh	r3, [r3]
 360 00aa 1BB2     		sxth	r3, r3
 361 00ac 1149     		ldr	r1, .L15
 362 00ae DB00     		lsl	r3, r3, #3
 363 00b0 CB18     		add	r3, r1, r3
 364 00b2 5C68     		ldr	r4, [r3, #4]
 365 00b4 1B68     		ldr	r3, [r3]
 366 00b6 0F49     		ldr	r1, .L15
 367 00b8 D200     		lsl	r2, r2, #3
 368 00ba 8A18     		add	r2, r1, r2
 369 00bc 1360     		str	r3, [r2]
 370 00be 5460     		str	r4, [r2, #4]
  58:.\main.c      ****    {
 371              		.loc 1 58 0 discriminator 3
 372 00c0 0E4B     		ldr	r3, .L15+8
 373 00c2 1B88     		ldrh	r3, [r3]
 374 00c4 9BB2     		uxth	r3, r3
ARM GAS  C:\Users\LINETT~1\AppData\Local\Temp\ccKEYg1q.s 			page 9


 375 00c6 9BB2     		uxth	r3, r3
 376 00c8 013B     		sub	r3, r3, #1
 377 00ca 9BB2     		uxth	r3, r3
 378 00cc 9AB2     		uxth	r2, r3
 379 00ce 0B4B     		ldr	r3, .L15+8
 380 00d0 1A80     		strh	r2, [r3]
 381              	.L12:
  58:.\main.c      ****    {
 382              		.loc 1 58 0 is_stmt 0 discriminator 1
 383 00d2 0A4B     		ldr	r3, .L15+8
 384 00d4 1B88     		ldrh	r3, [r3]
 385 00d6 1BB2     		sxth	r3, r3
 386 00d8 002B     		cmp	r3, #0
 387 00da E0DA     		bge	.L13
  61:.\main.c      ****    }
  62:.\main.c      ****       
  63:.\main.c      ****    return floor_and_convert(y_mavg);
 388              		.loc 1 63 0 is_stmt 1
 389 00dc 064B     		ldr	r3, .L15+4
 390 00de 5C68     		ldr	r4, [r3, #4]
 391 00e0 1B68     		ldr	r3, [r3]
 392 00e2 181C     		mov	r0, r3
 393 00e4 211C     		mov	r1, r4
 394 00e6 FFF7FEFF 		bl	floor_and_convert
 395 00ea 031C     		mov	r3, r0
  64:.\main.c      **** }
 396              		.loc 1 64 0
 397 00ec 181C     		mov	r0, r3
 398 00ee BD46     		mov	sp, r7
 399 00f0 03B0     		add	sp, sp, #12
 400              		@ sp needed
 401 00f2 90BD     		pop	{r4, r7, pc}
 402              	.L16:
 403              		.align	2
 404              	.L15:
 405 00f4 00000000 		.word	x_mavg
 406 00f8 00000000 		.word	y_mavg
 407 00fc 00000000 		.word	i
 408 0100 00000000 		.word	b_mavg
 409              		.cfi_endproc
 410              	.LFE38:
 411              		.size	mavg_filter, .-mavg_filter
 412              		.section	.text.mavg_filter2,"ax",%progbits
 413              		.align	2
 414              		.global	mavg_filter2
 415              		.code	16
 416              		.thumb_func
 417              		.type	mavg_filter2, %function
 418              	mavg_filter2:
 419              	.LFB39:
  65:.\main.c      **** 
  66:.\main.c      **** 
  67:.\main.c      **** /***********************************Moving average filter 2***********************************/
  68:.\main.c      **** signed int mavg_filter2(signed int data)
  69:.\main.c      **** {
 420              		.loc 1 69 0
 421              		.cfi_startproc
ARM GAS  C:\Users\LINETT~1\AppData\Local\Temp\ccKEYg1q.s 			page 10


 422 0000 90B5     		push	{r4, r7, lr}
 423              		.cfi_def_cfa_offset 12
 424              		.cfi_offset 4, -12
 425              		.cfi_offset 7, -8
 426              		.cfi_offset 14, -4
 427 0002 83B0     		sub	sp, sp, #12
 428              		.cfi_def_cfa_offset 24
 429 0004 00AF     		add	r7, sp, #0
 430              		.cfi_def_cfa_register 7
 431 0006 7860     		str	r0, [r7, #4]
  70:.\main.c      ****    x2_mavg[0] =  (double) data;      // Read received sample and perform type casts
 432              		.loc 1 70 0
 433 0008 7868     		ldr	r0, [r7, #4]
 434 000a FFF7FEFF 		bl	__aeabi_i2d
 435 000e 031C     		mov	r3, r0
 436 0010 0C1C     		mov	r4, r1
 437 0012 384A     		ldr	r2, .L23
 438 0014 1360     		str	r3, [r2]
 439 0016 5460     		str	r4, [r2, #4]
  71:.\main.c      ****    
  72:.\main.c      ****    y2_mavg = 0;
 440              		.loc 1 72 0
 441 0018 374A     		ldr	r2, .L23+4
 442 001a 0023     		mov	r3, #0
 443 001c 0024     		mov	r4, #0
 444 001e 1360     		str	r3, [r2]
 445 0020 5460     		str	r4, [r2, #4]
  73:.\main.c      ****    for(i = 0;i <= FILTER_LENGTH_mavg2;i++)           // Run FIR filter for each received sample
 446              		.loc 1 73 0
 447 0022 364B     		ldr	r3, .L23+8
 448 0024 0022     		mov	r2, #0
 449 0026 1A80     		strh	r2, [r3]
 450 0028 30E0     		b	.L18
 451              	.L19:
  74:.\main.c      ****    {
  75:.\main.c      ****       y2_mavg += b2_mavg[i]*x2_mavg[i];
 452              		.loc 1 75 0 discriminator 3
 453 002a 344B     		ldr	r3, .L23+8
 454 002c 1B88     		ldrh	r3, [r3]
 455 002e 1BB2     		sxth	r3, r3
 456 0030 334A     		ldr	r2, .L23+12
 457 0032 DB00     		lsl	r3, r3, #3
 458 0034 D318     		add	r3, r2, r3
 459 0036 1968     		ldr	r1, [r3]
 460 0038 5A68     		ldr	r2, [r3, #4]
 461 003a 304B     		ldr	r3, .L23+8
 462 003c 1B88     		ldrh	r3, [r3]
 463 003e 1BB2     		sxth	r3, r3
 464 0040 2C48     		ldr	r0, .L23
 465 0042 DB00     		lsl	r3, r3, #3
 466 0044 C318     		add	r3, r0, r3
 467 0046 5C68     		ldr	r4, [r3, #4]
 468 0048 1B68     		ldr	r3, [r3]
 469 004a 081C     		mov	r0, r1
 470 004c 111C     		mov	r1, r2
 471 004e 1A1C     		mov	r2, r3
 472 0050 231C     		mov	r3, r4
ARM GAS  C:\Users\LINETT~1\AppData\Local\Temp\ccKEYg1q.s 			page 11


 473 0052 FFF7FEFF 		bl	__aeabi_dmul
 474 0056 031C     		mov	r3, r0
 475 0058 0C1C     		mov	r4, r1
 476 005a 191C     		mov	r1, r3
 477 005c 221C     		mov	r2, r4
 478 005e 264B     		ldr	r3, .L23+4
 479 0060 5C68     		ldr	r4, [r3, #4]
 480 0062 1B68     		ldr	r3, [r3]
 481 0064 081C     		mov	r0, r1
 482 0066 111C     		mov	r1, r2
 483 0068 1A1C     		mov	r2, r3
 484 006a 231C     		mov	r3, r4
 485 006c FFF7FEFF 		bl	__aeabi_dadd
 486 0070 031C     		mov	r3, r0
 487 0072 0C1C     		mov	r4, r1
 488 0074 204A     		ldr	r2, .L23+4
 489 0076 1360     		str	r3, [r2]
 490 0078 5460     		str	r4, [r2, #4]
  73:.\main.c      ****    for(i = 0;i <= FILTER_LENGTH_mavg2;i++)           // Run FIR filter for each received sample
 491              		.loc 1 73 0 discriminator 3
 492 007a 204B     		ldr	r3, .L23+8
 493 007c 1B88     		ldrh	r3, [r3]
 494 007e 9BB2     		uxth	r3, r3
 495 0080 9BB2     		uxth	r3, r3
 496 0082 0133     		add	r3, r3, #1
 497 0084 9BB2     		uxth	r3, r3
 498 0086 9AB2     		uxth	r2, r3
 499 0088 1C4B     		ldr	r3, .L23+8
 500 008a 1A80     		strh	r2, [r3]
 501              	.L18:
  73:.\main.c      ****    for(i = 0;i <= FILTER_LENGTH_mavg2;i++)           // Run FIR filter for each received sample
 502              		.loc 1 73 0 is_stmt 0 discriminator 1
 503 008c 1B4B     		ldr	r3, .L23+8
 504 008e 1B88     		ldrh	r3, [r3]
 505 0090 1BB2     		sxth	r3, r3
 506 0092 092B     		cmp	r3, #9
 507 0094 C9DD     		ble	.L19
  76:.\main.c      ****    } 
  77:.\main.c      ****    
  78:.\main.c      ****    for(i = FILTER_LENGTH_mavg2-1;i >= 0;i--)         // Roll x array in order to hold old sample in
 508              		.loc 1 78 0 is_stmt 1
 509 0096 194B     		ldr	r3, .L23+8
 510 0098 0822     		mov	r2, #8
 511 009a 1A80     		strh	r2, [r3]
 512 009c 19E0     		b	.L20
 513              	.L21:
  79:.\main.c      ****    {
  80:.\main.c      ****       x2_mavg[i+1] = x2_mavg[i];
 514              		.loc 1 80 0 discriminator 3
 515 009e 174B     		ldr	r3, .L23+8
 516 00a0 1B88     		ldrh	r3, [r3]
 517 00a2 1BB2     		sxth	r3, r3
 518 00a4 5A1C     		add	r2, r3, #1
 519 00a6 154B     		ldr	r3, .L23+8
 520 00a8 1B88     		ldrh	r3, [r3]
 521 00aa 1BB2     		sxth	r3, r3
 522 00ac 1149     		ldr	r1, .L23
ARM GAS  C:\Users\LINETT~1\AppData\Local\Temp\ccKEYg1q.s 			page 12


 523 00ae DB00     		lsl	r3, r3, #3
 524 00b0 CB18     		add	r3, r1, r3
 525 00b2 5C68     		ldr	r4, [r3, #4]
 526 00b4 1B68     		ldr	r3, [r3]
 527 00b6 0F49     		ldr	r1, .L23
 528 00b8 D200     		lsl	r2, r2, #3
 529 00ba 8A18     		add	r2, r1, r2
 530 00bc 1360     		str	r3, [r2]
 531 00be 5460     		str	r4, [r2, #4]
  78:.\main.c      ****    {
 532              		.loc 1 78 0 discriminator 3
 533 00c0 0E4B     		ldr	r3, .L23+8
 534 00c2 1B88     		ldrh	r3, [r3]
 535 00c4 9BB2     		uxth	r3, r3
 536 00c6 9BB2     		uxth	r3, r3
 537 00c8 013B     		sub	r3, r3, #1
 538 00ca 9BB2     		uxth	r3, r3
 539 00cc 9AB2     		uxth	r2, r3
 540 00ce 0B4B     		ldr	r3, .L23+8
 541 00d0 1A80     		strh	r2, [r3]
 542              	.L20:
  78:.\main.c      ****    {
 543              		.loc 1 78 0 is_stmt 0 discriminator 1
 544 00d2 0A4B     		ldr	r3, .L23+8
 545 00d4 1B88     		ldrh	r3, [r3]
 546 00d6 1BB2     		sxth	r3, r3
 547 00d8 002B     		cmp	r3, #0
 548 00da E0DA     		bge	.L21
  81:.\main.c      ****    }
  82:.\main.c      ****       
  83:.\main.c      ****    return floor_and_convert(y2_mavg);
 549              		.loc 1 83 0 is_stmt 1
 550 00dc 064B     		ldr	r3, .L23+4
 551 00de 5C68     		ldr	r4, [r3, #4]
 552 00e0 1B68     		ldr	r3, [r3]
 553 00e2 181C     		mov	r0, r3
 554 00e4 211C     		mov	r1, r4
 555 00e6 FFF7FEFF 		bl	floor_and_convert
 556 00ea 031C     		mov	r3, r0
  84:.\main.c      **** }
 557              		.loc 1 84 0
 558 00ec 181C     		mov	r0, r3
 559 00ee BD46     		mov	sp, r7
 560 00f0 03B0     		add	sp, sp, #12
 561              		@ sp needed
 562 00f2 90BD     		pop	{r4, r7, pc}
 563              	.L24:
 564              		.align	2
 565              	.L23:
 566 00f4 00000000 		.word	x2_mavg
 567 00f8 00000000 		.word	y2_mavg
 568 00fc 00000000 		.word	i
 569 0100 00000000 		.word	b2_mavg
 570              		.cfi_endproc
 571              	.LFE39:
 572              		.size	mavg_filter2, .-mavg_filter2
 573              		.section	.text.low_pass_filter,"ax",%progbits
ARM GAS  C:\Users\LINETT~1\AppData\Local\Temp\ccKEYg1q.s 			page 13


 574              		.align	2
 575              		.global	low_pass_filter
 576              		.code	16
 577              		.thumb_func
 578              		.type	low_pass_filter, %function
 579              	low_pass_filter:
 580              	.LFB40:
  85:.\main.c      **** 
  86:.\main.c      **** /***********************************Lavpas filter***********************************/
  87:.\main.c      **** 
  88:.\main.c      **** int low_pass_filter(int data)
  89:.\main.c      **** {
 581              		.loc 1 89 0
 582              		.cfi_startproc
 583 0000 B0B5     		push	{r4, r5, r7, lr}
 584              		.cfi_def_cfa_offset 16
 585              		.cfi_offset 4, -16
 586              		.cfi_offset 5, -12
 587              		.cfi_offset 7, -8
 588              		.cfi_offset 14, -4
 589 0002 84B0     		sub	sp, sp, #16
 590              		.cfi_def_cfa_offset 32
 591 0004 00AF     		add	r7, sp, #0
 592              		.cfi_def_cfa_register 7
 593 0006 7860     		str	r0, [r7, #4]
  90:.\main.c      ****    int i;
  91:.\main.c      ****    x_low[0] =  (double) data;
 594              		.loc 1 91 0
 595 0008 7868     		ldr	r0, [r7, #4]
 596 000a FFF7FEFF 		bl	__aeabi_i2d
 597 000e 031C     		mov	r3, r0
 598 0010 0C1C     		mov	r4, r1
 599 0012 404A     		ldr	r2, .L33
 600 0014 1360     		str	r3, [r2]
 601 0016 5460     		str	r4, [r2, #4]
  92:.\main.c      ****    
  93:.\main.c      ****    y_low[0] = 0;
 602              		.loc 1 93 0
 603 0018 3F4A     		ldr	r2, .L33+4
 604 001a 0023     		mov	r3, #0
 605 001c 0024     		mov	r4, #0
 606 001e 1360     		str	r3, [r2]
 607 0020 5460     		str	r4, [r2, #4]
  94:.\main.c      ****   
  95:.\main.c      ****    for(i = 0;i <= FILTER_LENGTH_low;i++)                 // Run IIR filter for each received sample
 608              		.loc 1 95 0
 609 0022 0023     		mov	r3, #0
 610 0024 FB60     		str	r3, [r7, #12]
 611 0026 1EE0     		b	.L26
 612              	.L27:
  96:.\main.c      ****    {
  97:.\main.c      ****       y_low[0] += b_low[i]*x_low[i];
 613              		.loc 1 97 0 discriminator 3
 614 0028 3B4B     		ldr	r3, .L33+4
 615 002a 1C68     		ldr	r4, [r3]
 616 002c 5D68     		ldr	r5, [r3, #4]
 617 002e 3B4A     		ldr	r2, .L33+8
ARM GAS  C:\Users\LINETT~1\AppData\Local\Temp\ccKEYg1q.s 			page 14


 618 0030 FB68     		ldr	r3, [r7, #12]
 619 0032 DB00     		lsl	r3, r3, #3
 620 0034 D318     		add	r3, r2, r3
 621 0036 1868     		ldr	r0, [r3]
 622 0038 5968     		ldr	r1, [r3, #4]
 623 003a 364A     		ldr	r2, .L33
 624 003c FB68     		ldr	r3, [r7, #12]
 625 003e DB00     		lsl	r3, r3, #3
 626 0040 D318     		add	r3, r2, r3
 627 0042 1A68     		ldr	r2, [r3]
 628 0044 5B68     		ldr	r3, [r3, #4]
 629 0046 FFF7FEFF 		bl	__aeabi_dmul
 630 004a 021C     		mov	r2, r0
 631 004c 0B1C     		mov	r3, r1
 632 004e 201C     		mov	r0, r4
 633 0050 291C     		mov	r1, r5
 634 0052 FFF7FEFF 		bl	__aeabi_dadd
 635 0056 031C     		mov	r3, r0
 636 0058 0C1C     		mov	r4, r1
 637 005a 2F4A     		ldr	r2, .L33+4
 638 005c 1360     		str	r3, [r2]
 639 005e 5460     		str	r4, [r2, #4]
  95:.\main.c      ****    {
 640              		.loc 1 95 0 discriminator 3
 641 0060 FB68     		ldr	r3, [r7, #12]
 642 0062 0133     		add	r3, r3, #1
 643 0064 FB60     		str	r3, [r7, #12]
 644              	.L26:
  95:.\main.c      ****    {
 645              		.loc 1 95 0 is_stmt 0 discriminator 1
 646 0066 FB68     		ldr	r3, [r7, #12]
 647 0068 022B     		cmp	r3, #2
 648 006a DDDD     		ble	.L27
  98:.\main.c      ****    } 
  99:.\main.c      ****    
 100:.\main.c      ****    for(i =1;i <= FILTER_LENGTH_low;i++)               // Roll x array in order to hold old sample i
 649              		.loc 1 100 0 is_stmt 1
 650 006c 0123     		mov	r3, #1
 651 006e FB60     		str	r3, [r7, #12]
 652 0070 1EE0     		b	.L28
 653              	.L29:
 101:.\main.c      ****    {
 102:.\main.c      ****       y_low[0] -= a_low[i]*y_low[i];
 654              		.loc 1 102 0 discriminator 3
 655 0072 294B     		ldr	r3, .L33+4
 656 0074 1C68     		ldr	r4, [r3]
 657 0076 5D68     		ldr	r5, [r3, #4]
 658 0078 294A     		ldr	r2, .L33+12
 659 007a FB68     		ldr	r3, [r7, #12]
 660 007c DB00     		lsl	r3, r3, #3
 661 007e D318     		add	r3, r2, r3
 662 0080 1868     		ldr	r0, [r3]
 663 0082 5968     		ldr	r1, [r3, #4]
 664 0084 244A     		ldr	r2, .L33+4
 665 0086 FB68     		ldr	r3, [r7, #12]
 666 0088 DB00     		lsl	r3, r3, #3
 667 008a D318     		add	r3, r2, r3
ARM GAS  C:\Users\LINETT~1\AppData\Local\Temp\ccKEYg1q.s 			page 15


 668 008c 1A68     		ldr	r2, [r3]
 669 008e 5B68     		ldr	r3, [r3, #4]
 670 0090 FFF7FEFF 		bl	__aeabi_dmul
 671 0094 021C     		mov	r2, r0
 672 0096 0B1C     		mov	r3, r1
 673 0098 201C     		mov	r0, r4
 674 009a 291C     		mov	r1, r5
 675 009c FFF7FEFF 		bl	__aeabi_dsub
 676 00a0 031C     		mov	r3, r0
 677 00a2 0C1C     		mov	r4, r1
 678 00a4 1C4A     		ldr	r2, .L33+4
 679 00a6 1360     		str	r3, [r2]
 680 00a8 5460     		str	r4, [r2, #4]
 100:.\main.c      ****    {
 681              		.loc 1 100 0 discriminator 3
 682 00aa FB68     		ldr	r3, [r7, #12]
 683 00ac 0133     		add	r3, r3, #1
 684 00ae FB60     		str	r3, [r7, #12]
 685              	.L28:
 100:.\main.c      ****    {
 686              		.loc 1 100 0 is_stmt 0 discriminator 1
 687 00b0 FB68     		ldr	r3, [r7, #12]
 688 00b2 022B     		cmp	r3, #2
 689 00b4 DDDD     		ble	.L29
 103:.\main.c      ****    }
 104:.\main.c      **** 
 105:.\main.c      ****    for(i = FILTER_LENGTH_low-1;i >= 0;i--)
 690              		.loc 1 105 0 is_stmt 1
 691 00b6 0123     		mov	r3, #1
 692 00b8 FB60     		str	r3, [r7, #12]
 693 00ba 1CE0     		b	.L30
 694              	.L31:
 106:.\main.c      ****     {
 107:.\main.c      ****        x_low[i+1]=x_low[i];
 695              		.loc 1 107 0 discriminator 3
 696 00bc FB68     		ldr	r3, [r7, #12]
 697 00be 5A1C     		add	r2, r3, #1
 698 00c0 1449     		ldr	r1, .L33
 699 00c2 FB68     		ldr	r3, [r7, #12]
 700 00c4 DB00     		lsl	r3, r3, #3
 701 00c6 CB18     		add	r3, r1, r3
 702 00c8 5C68     		ldr	r4, [r3, #4]
 703 00ca 1B68     		ldr	r3, [r3]
 704 00cc 1149     		ldr	r1, .L33
 705 00ce D200     		lsl	r2, r2, #3
 706 00d0 8A18     		add	r2, r1, r2
 707 00d2 1360     		str	r3, [r2]
 708 00d4 5460     		str	r4, [r2, #4]
 108:.\main.c      ****        y_low[i+1]=y_low[i];
 709              		.loc 1 108 0 discriminator 3
 710 00d6 FB68     		ldr	r3, [r7, #12]
 711 00d8 5A1C     		add	r2, r3, #1
 712 00da 0F49     		ldr	r1, .L33+4
 713 00dc FB68     		ldr	r3, [r7, #12]
 714 00de DB00     		lsl	r3, r3, #3
 715 00e0 CB18     		add	r3, r1, r3
 716 00e2 5C68     		ldr	r4, [r3, #4]
ARM GAS  C:\Users\LINETT~1\AppData\Local\Temp\ccKEYg1q.s 			page 16


 717 00e4 1B68     		ldr	r3, [r3]
 718 00e6 0C49     		ldr	r1, .L33+4
 719 00e8 D200     		lsl	r2, r2, #3
 720 00ea 8A18     		add	r2, r1, r2
 721 00ec 1360     		str	r3, [r2]
 722 00ee 5460     		str	r4, [r2, #4]
 105:.\main.c      ****     {
 723              		.loc 1 105 0 discriminator 3
 724 00f0 FB68     		ldr	r3, [r7, #12]
 725 00f2 013B     		sub	r3, r3, #1
 726 00f4 FB60     		str	r3, [r7, #12]
 727              	.L30:
 105:.\main.c      ****     {
 728              		.loc 1 105 0 is_stmt 0 discriminator 1
 729 00f6 FB68     		ldr	r3, [r7, #12]
 730 00f8 002B     		cmp	r3, #0
 731 00fa DFDA     		bge	.L31
 109:.\main.c      ****     }
 110:.\main.c      **** 
 111:.\main.c      ****     return floor_and_convert(y_low[0]);
 732              		.loc 1 111 0 is_stmt 1
 733 00fc 064B     		ldr	r3, .L33+4
 734 00fe 5C68     		ldr	r4, [r3, #4]
 735 0100 1B68     		ldr	r3, [r3]
 736 0102 181C     		mov	r0, r3
 737 0104 211C     		mov	r1, r4
 738 0106 FFF7FEFF 		bl	floor_and_convert
 739 010a 031C     		mov	r3, r0
 112:.\main.c      **** }
 740              		.loc 1 112 0
 741 010c 181C     		mov	r0, r3
 742 010e BD46     		mov	sp, r7
 743 0110 04B0     		add	sp, sp, #16
 744              		@ sp needed
 745 0112 B0BD     		pop	{r4, r5, r7, pc}
 746              	.L34:
 747              		.align	2
 748              	.L33:
 749 0114 00000000 		.word	x_low
 750 0118 00000000 		.word	y_low
 751 011c 00000000 		.word	b_low
 752 0120 00000000 		.word	a_low
 753              		.cfi_endproc
 754              	.LFE40:
 755              		.size	low_pass_filter, .-low_pass_filter
 756              		.section	.text.ADC_interrupt,"ax",%progbits
 757              		.align	2
 758              		.global	ADC_interrupt
 759              		.code	16
 760              		.thumb_func
 761              		.type	ADC_interrupt, %function
 762              	ADC_interrupt:
 763              	.LFB41:
 113:.\main.c      **** 
 114:.\main.c      **** /***********************************Main***********************************/
 115:.\main.c      **** 
 116:.\main.c      **** CY_ISR(ADC_interrupt)
ARM GAS  C:\Users\LINETT~1\AppData\Local\Temp\ccKEYg1q.s 			page 17


 117:.\main.c      **** {
 764              		.loc 1 117 0
 765              		.cfi_startproc
 766 0000 80B5     		push	{r7, lr}
 767              		.cfi_def_cfa_offset 8
 768              		.cfi_offset 7, -8
 769              		.cfi_offset 14, -4
 770 0002 82B0     		sub	sp, sp, #8
 771              		.cfi_def_cfa_offset 16
 772 0004 00AF     		add	r7, sp, #0
 773              		.cfi_def_cfa_register 7
 118:.\main.c      ****     int i;
 119:.\main.c      ****     for(i=0; i<num_of_channels;i++)
 774              		.loc 1 119 0
 775 0006 0023     		mov	r3, #0
 776 0008 7B60     		str	r3, [r7, #4]
 777 000a 11E0     		b	.L36
 778              	.L37:
 120:.\main.c      ****     {
 121:.\main.c      ****         result[i] = ADC_GetResult16(i)-1024;
 779              		.loc 1 121 0 discriminator 3
 780 000c 7B68     		ldr	r3, [r7, #4]
 781 000e 181C     		mov	r0, r3
 782 0010 FFF7FEFF 		bl	ADC_GetResult16
 783 0014 031C     		mov	r3, r0
 784 0016 9BB2     		uxth	r3, r3
 785 0018 0A4A     		ldr	r2, .L38
 786 001a 9446     		mov	ip, r2
 787 001c 6344     		add	r3, r3, ip
 788 001e 9BB2     		uxth	r3, r3
 789 0020 99B2     		uxth	r1, r3
 790 0022 094B     		ldr	r3, .L38+4
 791 0024 7A68     		ldr	r2, [r7, #4]
 792 0026 5200     		lsl	r2, r2, #1
 793 0028 D152     		strh	r1, [r2, r3]
 119:.\main.c      ****     {
 794              		.loc 1 119 0 discriminator 3
 795 002a 7B68     		ldr	r3, [r7, #4]
 796 002c 0133     		add	r3, r3, #1
 797 002e 7B60     		str	r3, [r7, #4]
 798              	.L36:
 119:.\main.c      ****     {
 799              		.loc 1 119 0 is_stmt 0 discriminator 1
 800 0030 7B68     		ldr	r3, [r7, #4]
 801 0032 002B     		cmp	r3, #0
 802 0034 EADD     		ble	.L37
 122:.\main.c      ****     }
 123:.\main.c      ****     data_ready = TRUE;
 803              		.loc 1 123 0 is_stmt 1
 804 0036 054B     		ldr	r3, .L38+8
 805 0038 0122     		mov	r2, #1
 806 003a 1A70     		strb	r2, [r3]
 124:.\main.c      **** }
 807              		.loc 1 124 0
 808 003c BD46     		mov	sp, r7
 809 003e 02B0     		add	sp, sp, #8
 810              		@ sp needed
ARM GAS  C:\Users\LINETT~1\AppData\Local\Temp\ccKEYg1q.s 			page 18


 811 0040 80BD     		pop	{r7, pc}
 812              	.L39:
 813 0042 C046     		.align	2
 814              	.L38:
 815 0044 00FCFFFF 		.word	-1024
 816 0048 00000000 		.word	result
 817 004c 00000000 		.word	data_ready
 818              		.cfi_endproc
 819              	.LFE41:
 820              		.size	ADC_interrupt, .-ADC_interrupt
 821              		.section	.text.main,"ax",%progbits
 822              		.align	2
 823              		.global	main
 824              		.code	16
 825              		.thumb_func
 826              		.type	main, %function
 827              	main:
 828              	.LFB42:
 125:.\main.c      **** 
 126:.\main.c      **** int main()
 127:.\main.c      **** {
 829              		.loc 1 127 0
 830              		.cfi_startproc
 831 0000 80B5     		push	{r7, lr}
 832              		.cfi_def_cfa_offset 8
 833              		.cfi_offset 7, -8
 834              		.cfi_offset 14, -4
 835 0002 82B0     		sub	sp, sp, #8
 836              		.cfi_def_cfa_offset 16
 837 0004 00AF     		add	r7, sp, #0
 838              		.cfi_def_cfa_register 7
 128:.\main.c      ****     uint16 i;
 129:.\main.c      ****    
 130:.\main.c      ****    
 131:.\main.c      ****     ADC_ISR_StartEx(ADC_interrupt);
 839              		.loc 1 131 0
 840 0006 3F4B     		ldr	r3, .L48
 841 0008 181C     		mov	r0, r3
 842 000a FFF7FEFF 		bl	ADC_ISR_StartEx
 132:.\main.c      ****     UART_Start();                       /* Start SCB (UART mode) operation */
 843              		.loc 1 132 0
 844 000e FFF7FEFF 		bl	UART_Start
 133:.\main.c      ****     CyGlobalIntEnable;
 845              		.loc 1 133 0
 846              	@ 133 ".\main.c" 1
 847 0012 62B6     		CPSIE   i
 848              	@ 0 "" 2
 134:.\main.c      ****     ADC_Start();                        /* Initialize ADC */
 849              		.loc 1 134 0
 850              		.code	16
 851 0014 FFF7FEFF 		bl	ADC_Start
 135:.\main.c      ****     ADC_StartConvert();                 /* Start ADC conversions */
 852              		.loc 1 135 0
 853 0018 FFF7FEFF 		bl	ADC_StartConvert
 136:.\main.c      ****     ADC_IRQ_Enable();                   /* Enable ADC interrupts */    
 854              		.loc 1 136 0
 855 001c FFF7FEFF 		bl	ADC_IRQ_Enable
ARM GAS  C:\Users\LINETT~1\AppData\Local\Temp\ccKEYg1q.s 			page 19


 856              	.L47:
 137:.\main.c      ****     
 138:.\main.c      ****     for (;;)
 139:.\main.c      ****     {      
 140:.\main.c      ****         if(data_ready)
 857              		.loc 1 140 0
 858 0020 394B     		ldr	r3, .L48+4
 859 0022 1B78     		ldrb	r3, [r3]
 860 0024 002B     		cmp	r3, #0
 861 0026 00D1     		bne	.LCB603
 862 0028 6AE0     		b	.L41	@long jump
 863              	.LCB603:
 141:.\main.c      ****         {
 142:.\main.c      ****             for(i=0;i<num_of_channels;i++)
 864              		.loc 1 142 0
 865 002a BB1D     		add	r3, r7, #6
 866 002c 0022     		mov	r2, #0
 867 002e 1A80     		strh	r2, [r3]
 868 0030 5FE0     		b	.L42
 869              	.L46:
 143:.\main.c      ****             {
 144:.\main.c      ****                 if (i==0)
 870              		.loc 1 144 0
 871 0032 BB1D     		add	r3, r7, #6
 872 0034 1B88     		ldrh	r3, [r3]
 873 0036 002B     		cmp	r3, #0
 874 0038 14D1     		bne	.L43
 145:.\main.c      ****                 {
 146:.\main.c      **** //                    UART_UartPutChar((mavg_filter(result[i])));
 147:.\main.c      **** //                    UART_UartPutChar((mavg_filter(result[i]>>8)));
 148:.\main.c      ****                     UART_UartPutChar(result[i]);
 875              		.loc 1 148 0
 876 003a BB1D     		add	r3, r7, #6
 877 003c 1A88     		ldrh	r2, [r3]
 878 003e 334B     		ldr	r3, .L48+8
 879 0040 5200     		lsl	r2, r2, #1
 880 0042 D35A     		ldrh	r3, [r2, r3]
 881 0044 1BB2     		sxth	r3, r3
 882 0046 181C     		mov	r0, r3
 883 0048 FFF7FEFF 		bl	UART_SpiUartWriteTxData
 149:.\main.c      ****                     UART_UartPutChar(result[i]>>8);
 884              		.loc 1 149 0
 885 004c BB1D     		add	r3, r7, #6
 886 004e 1A88     		ldrh	r2, [r3]
 887 0050 2E4B     		ldr	r3, .L48+8
 888 0052 5200     		lsl	r2, r2, #1
 889 0054 D35A     		ldrh	r3, [r2, r3]
 890 0056 1BB2     		sxth	r3, r3
 891 0058 1B12     		asr	r3, r3, #8
 892 005a 9BB2     		uxth	r3, r3
 893 005c 1BB2     		sxth	r3, r3
 894 005e 181C     		mov	r0, r3
 895 0060 FFF7FEFF 		bl	UART_SpiUartWriteTxData
 896              	.L43:
 150:.\main.c      ****                 }
 151:.\main.c      ****                 
 152:.\main.c      ****                 if (i==1)
ARM GAS  C:\Users\LINETT~1\AppData\Local\Temp\ccKEYg1q.s 			page 20


 897              		.loc 1 152 0
 898 0064 BB1D     		add	r3, r7, #6
 899 0066 1B88     		ldrh	r3, [r3]
 900 0068 012B     		cmp	r3, #1
 901 006a 1CD1     		bne	.L44
 153:.\main.c      ****                 {
 154:.\main.c      ****                     UART_UartPutChar((mavg_filter2(result[i])));
 902              		.loc 1 154 0
 903 006c BB1D     		add	r3, r7, #6
 904 006e 1A88     		ldrh	r2, [r3]
 905 0070 264B     		ldr	r3, .L48+8
 906 0072 5200     		lsl	r2, r2, #1
 907 0074 D35A     		ldrh	r3, [r2, r3]
 908 0076 1BB2     		sxth	r3, r3
 909 0078 181C     		mov	r0, r3
 910 007a FFF7FEFF 		bl	mavg_filter2
 911 007e 031C     		mov	r3, r0
 912 0080 181C     		mov	r0, r3
 913 0082 FFF7FEFF 		bl	UART_SpiUartWriteTxData
 155:.\main.c      ****                     UART_UartPutChar((mavg_filter2(result[i]>>8)));
 914              		.loc 1 155 0
 915 0086 BB1D     		add	r3, r7, #6
 916 0088 1A88     		ldrh	r2, [r3]
 917 008a 204B     		ldr	r3, .L48+8
 918 008c 5200     		lsl	r2, r2, #1
 919 008e D35A     		ldrh	r3, [r2, r3]
 920 0090 1BB2     		sxth	r3, r3
 921 0092 1B12     		asr	r3, r3, #8
 922 0094 9BB2     		uxth	r3, r3
 923 0096 1BB2     		sxth	r3, r3
 924 0098 181C     		mov	r0, r3
 925 009a FFF7FEFF 		bl	mavg_filter2
 926 009e 031C     		mov	r3, r0
 927 00a0 181C     		mov	r0, r3
 928 00a2 FFF7FEFF 		bl	UART_SpiUartWriteTxData
 929              	.L44:
 156:.\main.c      ****                     //UART_UartPutChar(result[i]);
 157:.\main.c      ****                     //UART_UartPutChar(result[i]>>8);
 158:.\main.c      ****                 }
 159:.\main.c      ****                 
 160:.\main.c      ****                 if (i==2)
 930              		.loc 1 160 0
 931 00a6 BB1D     		add	r3, r7, #6
 932 00a8 1B88     		ldrh	r3, [r3]
 933 00aa 022B     		cmp	r3, #2
 934 00ac 1CD1     		bne	.L45
 161:.\main.c      ****                 {
 162:.\main.c      ****                     UART_UartPutChar(low_pass_filter(result[i]));
 935              		.loc 1 162 0
 936 00ae BB1D     		add	r3, r7, #6
 937 00b0 1A88     		ldrh	r2, [r3]
 938 00b2 164B     		ldr	r3, .L48+8
 939 00b4 5200     		lsl	r2, r2, #1
 940 00b6 D35A     		ldrh	r3, [r2, r3]
 941 00b8 1BB2     		sxth	r3, r3
 942 00ba 181C     		mov	r0, r3
 943 00bc FFF7FEFF 		bl	low_pass_filter
ARM GAS  C:\Users\LINETT~1\AppData\Local\Temp\ccKEYg1q.s 			page 21


 944 00c0 031C     		mov	r3, r0
 945 00c2 181C     		mov	r0, r3
 946 00c4 FFF7FEFF 		bl	UART_SpiUartWriteTxData
 163:.\main.c      ****                     UART_UartPutChar(low_pass_filter(result[i]>>8));
 947              		.loc 1 163 0
 948 00c8 BB1D     		add	r3, r7, #6
 949 00ca 1A88     		ldrh	r2, [r3]
 950 00cc 0F4B     		ldr	r3, .L48+8
 951 00ce 5200     		lsl	r2, r2, #1
 952 00d0 D35A     		ldrh	r3, [r2, r3]
 953 00d2 1BB2     		sxth	r3, r3
 954 00d4 1B12     		asr	r3, r3, #8
 955 00d6 9BB2     		uxth	r3, r3
 956 00d8 1BB2     		sxth	r3, r3
 957 00da 181C     		mov	r0, r3
 958 00dc FFF7FEFF 		bl	low_pass_filter
 959 00e0 031C     		mov	r3, r0
 960 00e2 181C     		mov	r0, r3
 961 00e4 FFF7FEFF 		bl	UART_SpiUartWriteTxData
 962              	.L45:
 142:.\main.c      ****             {
 963              		.loc 1 142 0 discriminator 2
 964 00e8 BB1D     		add	r3, r7, #6
 965 00ea 1A88     		ldrh	r2, [r3]
 966 00ec BB1D     		add	r3, r7, #6
 967 00ee 0132     		add	r2, r2, #1
 968 00f0 1A80     		strh	r2, [r3]
 969              	.L42:
 142:.\main.c      ****             {
 970              		.loc 1 142 0 is_stmt 0 discriminator 1
 971 00f2 BB1D     		add	r3, r7, #6
 972 00f4 1B88     		ldrh	r3, [r3]
 973 00f6 002B     		cmp	r3, #0
 974 00f8 9BD0     		beq	.L46
 164:.\main.c      ****                 }
 165:.\main.c      ****             }
 166:.\main.c      ****             data_ready = FALSE;
 975              		.loc 1 166 0 is_stmt 1
 976 00fa 034B     		ldr	r3, .L48+4
 977 00fc 0022     		mov	r2, #0
 978 00fe 1A70     		strb	r2, [r3]
 979              	.L41:
 167:.\main.c      ****         }
 168:.\main.c      **** 
 169:.\main.c      ****     }
 980              		.loc 1 169 0
 981 0100 8EE7     		b	.L47
 982              	.L49:
 983 0102 C046     		.align	2
 984              	.L48:
 985 0104 00000000 		.word	ADC_interrupt
 986 0108 00000000 		.word	data_ready
 987 010c 00000000 		.word	result
 988              		.cfi_endproc
 989              	.LFE42:
 990              		.size	main, .-main
 991              		.text
ARM GAS  C:\Users\LINETT~1\AppData\Local\Temp\ccKEYg1q.s 			page 22


 992              	.Letext0:
 993              		.file 2 "Generated_Source\\PSoC4/cytypes.h"
 994              		.section	.debug_info,"",%progbits
 995              	.Ldebug_info0:
 996 0000 25030000 		.4byte	0x325
 997 0004 0400     		.2byte	0x4
 998 0006 00000000 		.4byte	.Ldebug_abbrev0
 999 000a 04       		.byte	0x4
 1000 000b 01       		.uleb128 0x1
 1001 000c C6000000 		.4byte	.LASF41
 1002 0010 01       		.byte	0x1
 1003 0011 BD000000 		.4byte	.LASF42
 1004 0015 C4010000 		.4byte	.LASF43
 1005 0019 00000000 		.4byte	.Ldebug_ranges0+0
 1006 001d 00000000 		.4byte	0
 1007 0021 00000000 		.4byte	.Ldebug_line0
 1008 0025 02       		.uleb128 0x2
 1009 0026 01       		.byte	0x1
 1010 0027 06       		.byte	0x6
 1011 0028 6E020000 		.4byte	.LASF0
 1012 002c 02       		.uleb128 0x2
 1013 002d 01       		.byte	0x1
 1014 002e 08       		.byte	0x8
 1015 002f 5D000000 		.4byte	.LASF1
 1016 0033 02       		.uleb128 0x2
 1017 0034 02       		.byte	0x2
 1018 0035 05       		.byte	0x5
 1019 0036 30000000 		.4byte	.LASF2
 1020 003a 02       		.uleb128 0x2
 1021 003b 02       		.byte	0x2
 1022 003c 07       		.byte	0x7
 1023 003d 1D000000 		.4byte	.LASF3
 1024 0041 02       		.uleb128 0x2
 1025 0042 04       		.byte	0x4
 1026 0043 05       		.byte	0x5
 1027 0044 5F020000 		.4byte	.LASF4
 1028 0048 02       		.uleb128 0x2
 1029 0049 04       		.byte	0x4
 1030 004a 07       		.byte	0x7
 1031 004b 67010000 		.4byte	.LASF5
 1032 004f 02       		.uleb128 0x2
 1033 0050 08       		.byte	0x8
 1034 0051 05       		.byte	0x5
 1035 0052 1B020000 		.4byte	.LASF6
 1036 0056 02       		.uleb128 0x2
 1037 0057 08       		.byte	0x8
 1038 0058 07       		.byte	0x7
 1039 0059 90010000 		.4byte	.LASF7
 1040 005d 03       		.uleb128 0x3
 1041 005e 04       		.byte	0x4
 1042 005f 05       		.byte	0x5
 1043 0060 696E7400 		.ascii	"int\000"
 1044 0064 02       		.uleb128 0x2
 1045 0065 04       		.byte	0x4
 1046 0066 07       		.byte	0x7
 1047 0067 79010000 		.4byte	.LASF8
 1048 006b 04       		.uleb128 0x4
ARM GAS  C:\Users\LINETT~1\AppData\Local\Temp\ccKEYg1q.s 			page 23


 1049 006c 84000000 		.4byte	.LASF9
 1050 0070 02       		.byte	0x2
 1051 0071 3801     		.2byte	0x138
 1052 0073 2C000000 		.4byte	0x2c
 1053 0077 04       		.uleb128 0x4
 1054 0078 54010000 		.4byte	.LASF10
 1055 007c 02       		.byte	0x2
 1056 007d 3901     		.2byte	0x139
 1057 007f 3A000000 		.4byte	0x3a
 1058 0083 04       		.uleb128 0x4
 1059 0084 5B010000 		.4byte	.LASF11
 1060 0088 02       		.byte	0x2
 1061 0089 3A01     		.2byte	0x13a
 1062 008b 48000000 		.4byte	0x48
 1063 008f 04       		.uleb128 0x4
 1064 0090 77000000 		.4byte	.LASF12
 1065 0094 02       		.byte	0x2
 1066 0095 3C01     		.2byte	0x13c
 1067 0097 33000000 		.4byte	0x33
 1068 009b 02       		.uleb128 0x2
 1069 009c 04       		.byte	0x4
 1070 009d 04       		.byte	0x4
 1071 009e 4A000000 		.4byte	.LASF13
 1072 00a2 02       		.uleb128 0x2
 1073 00a3 08       		.byte	0x8
 1074 00a4 04       		.byte	0x4
 1075 00a5 9E000000 		.4byte	.LASF14
 1076 00a9 02       		.uleb128 0x2
 1077 00aa 01       		.byte	0x1
 1078 00ab 08       		.byte	0x8
 1079 00ac 31020000 		.4byte	.LASF15
 1080 00b0 02       		.uleb128 0x2
 1081 00b1 04       		.byte	0x4
 1082 00b2 07       		.byte	0x7
 1083 00b3 12020000 		.4byte	.LASF16
 1084 00b7 05       		.uleb128 0x5
 1085 00b8 36020000 		.4byte	.LASF17
 1086 00bc 01       		.byte	0x1
 1087 00bd 27       		.byte	0x27
 1088 00be 5D000000 		.4byte	0x5d
 1089 00c2 00000000 		.4byte	.LFB37
 1090 00c6 5C000000 		.4byte	.LFE37-.LFB37
 1091 00ca 01       		.uleb128 0x1
 1092 00cb 9C       		.byte	0x9c
 1093 00cc DD000000 		.4byte	0xdd
 1094 00d0 06       		.uleb128 0x6
 1095 00d1 7900     		.ascii	"y\000"
 1096 00d3 01       		.byte	0x1
 1097 00d4 27       		.byte	0x27
 1098 00d5 A2000000 		.4byte	0xa2
 1099 00d9 02       		.uleb128 0x2
 1100 00da 91       		.byte	0x91
 1101 00db 68       		.sleb128 -24
 1102 00dc 00       		.byte	0
 1103 00dd 05       		.uleb128 0x5
 1104 00de 6B000000 		.4byte	.LASF18
 1105 00e2 01       		.byte	0x1
ARM GAS  C:\Users\LINETT~1\AppData\Local\Temp\ccKEYg1q.s 			page 24


 1106 00e3 30       		.byte	0x30
 1107 00e4 5D000000 		.4byte	0x5d
 1108 00e8 00000000 		.4byte	.LFB38
 1109 00ec 04010000 		.4byte	.LFE38-.LFB38
 1110 00f0 01       		.uleb128 0x1
 1111 00f1 9C       		.byte	0x9c
 1112 00f2 05010000 		.4byte	0x105
 1113 00f6 07       		.uleb128 0x7
 1114 00f7 50000000 		.4byte	.LASF19
 1115 00fb 01       		.byte	0x1
 1116 00fc 30       		.byte	0x30
 1117 00fd 5D000000 		.4byte	0x5d
 1118 0101 02       		.uleb128 0x2
 1119 0102 91       		.byte	0x91
 1120 0103 6C       		.sleb128 -20
 1121 0104 00       		.byte	0
 1122 0105 05       		.uleb128 0x5
 1123 0106 48020000 		.4byte	.LASF20
 1124 010a 01       		.byte	0x1
 1125 010b 44       		.byte	0x44
 1126 010c 5D000000 		.4byte	0x5d
 1127 0110 00000000 		.4byte	.LFB39
 1128 0114 04010000 		.4byte	.LFE39-.LFB39
 1129 0118 01       		.uleb128 0x1
 1130 0119 9C       		.byte	0x9c
 1131 011a 2D010000 		.4byte	0x12d
 1132 011e 07       		.uleb128 0x7
 1133 011f 50000000 		.4byte	.LASF19
 1134 0123 01       		.byte	0x1
 1135 0124 44       		.byte	0x44
 1136 0125 5D000000 		.4byte	0x5d
 1137 0129 02       		.uleb128 0x2
 1138 012a 91       		.byte	0x91
 1139 012b 6C       		.sleb128 -20
 1140 012c 00       		.byte	0
 1141 012d 05       		.uleb128 0x5
 1142 012e 3A000000 		.4byte	.LASF21
 1143 0132 01       		.byte	0x1
 1144 0133 58       		.byte	0x58
 1145 0134 5D000000 		.4byte	0x5d
 1146 0138 00000000 		.4byte	.LFB40
 1147 013c 24010000 		.4byte	.LFE40-.LFB40
 1148 0140 01       		.uleb128 0x1
 1149 0141 9C       		.byte	0x9c
 1150 0142 61010000 		.4byte	0x161
 1151 0146 07       		.uleb128 0x7
 1152 0147 50000000 		.4byte	.LASF19
 1153 014b 01       		.byte	0x1
 1154 014c 58       		.byte	0x58
 1155 014d 5D000000 		.4byte	0x5d
 1156 0151 02       		.uleb128 0x2
 1157 0152 91       		.byte	0x91
 1158 0153 64       		.sleb128 -28
 1159 0154 08       		.uleb128 0x8
 1160 0155 6900     		.ascii	"i\000"
 1161 0157 01       		.byte	0x1
 1162 0158 5A       		.byte	0x5a
ARM GAS  C:\Users\LINETT~1\AppData\Local\Temp\ccKEYg1q.s 			page 25


 1163 0159 5D000000 		.4byte	0x5d
 1164 015d 02       		.uleb128 0x2
 1165 015e 91       		.byte	0x91
 1166 015f 6C       		.sleb128 -20
 1167 0160 00       		.byte	0
 1168 0161 09       		.uleb128 0x9
 1169 0162 90000000 		.4byte	.LASF22
 1170 0166 01       		.byte	0x1
 1171 0167 74       		.byte	0x74
 1172 0168 00000000 		.4byte	.LFB41
 1173 016c 50000000 		.4byte	.LFE41-.LFB41
 1174 0170 01       		.uleb128 0x1
 1175 0171 9C       		.byte	0x9c
 1176 0172 83010000 		.4byte	0x183
 1177 0176 08       		.uleb128 0x8
 1178 0177 6900     		.ascii	"i\000"
 1179 0179 01       		.byte	0x1
 1180 017a 76       		.byte	0x76
 1181 017b 5D000000 		.4byte	0x5d
 1182 017f 02       		.uleb128 0x2
 1183 0180 91       		.byte	0x91
 1184 0181 74       		.sleb128 -12
 1185 0182 00       		.byte	0
 1186 0183 0A       		.uleb128 0xa
 1187 0184 62010000 		.4byte	.LASF23
 1188 0188 01       		.byte	0x1
 1189 0189 7E       		.byte	0x7e
 1190 018a 5D000000 		.4byte	0x5d
 1191 018e 00000000 		.4byte	.LFB42
 1192 0192 10010000 		.4byte	.LFE42-.LFB42
 1193 0196 01       		.uleb128 0x1
 1194 0197 9C       		.byte	0x9c
 1195 0198 A9010000 		.4byte	0x1a9
 1196 019c 08       		.uleb128 0x8
 1197 019d 6900     		.ascii	"i\000"
 1198 019f 01       		.byte	0x1
 1199 01a0 80       		.byte	0x80
 1200 01a1 77000000 		.4byte	0x77
 1201 01a5 02       		.uleb128 0x2
 1202 01a6 91       		.byte	0x91
 1203 01a7 76       		.sleb128 -10
 1204 01a8 00       		.byte	0
 1205 01a9 0B       		.uleb128 0xb
 1206 01aa A2000000 		.4byte	0xa2
 1207 01ae B9010000 		.4byte	0x1b9
 1208 01b2 0C       		.uleb128 0xc
 1209 01b3 B0000000 		.4byte	0xb0
 1210 01b7 09       		.byte	0x9
 1211 01b8 00       		.byte	0
 1212 01b9 0D       		.uleb128 0xd
 1213 01ba 00000000 		.4byte	.LASF24
 1214 01be 01       		.byte	0x1
 1215 01bf 0D       		.byte	0xd
 1216 01c0 A9010000 		.4byte	0x1a9
 1217 01c4 05       		.uleb128 0x5
 1218 01c5 03       		.byte	0x3
 1219 01c6 00000000 		.4byte	x_mavg
ARM GAS  C:\Users\LINETT~1\AppData\Local\Temp\ccKEYg1q.s 			page 26


 1220 01ca 0D       		.uleb128 0xd
 1221 01cb 7D000000 		.4byte	.LASF25
 1222 01cf 01       		.byte	0x1
 1223 01d0 0E       		.byte	0xe
 1224 01d1 A2000000 		.4byte	0xa2
 1225 01d5 05       		.uleb128 0x5
 1226 01d6 03       		.byte	0x3
 1227 01d7 00000000 		.4byte	y_mavg
 1228 01db 0D       		.uleb128 0xd
 1229 01dc 10000000 		.4byte	.LASF26
 1230 01e0 01       		.byte	0x1
 1231 01e1 0F       		.byte	0xf
 1232 01e2 A9010000 		.4byte	0x1a9
 1233 01e6 05       		.uleb128 0x5
 1234 01e7 03       		.byte	0x3
 1235 01e8 00000000 		.4byte	b_mavg
 1236 01ec 0D       		.uleb128 0xd
 1237 01ed AE010000 		.4byte	.LASF27
 1238 01f1 01       		.byte	0x1
 1239 01f2 14       		.byte	0x14
 1240 01f3 A9010000 		.4byte	0x1a9
 1241 01f7 05       		.uleb128 0x5
 1242 01f8 03       		.byte	0x3
 1243 01f9 00000000 		.4byte	x2_mavg
 1244 01fd 0D       		.uleb128 0xd
 1245 01fe 29020000 		.4byte	.LASF28
 1246 0202 01       		.byte	0x1
 1247 0203 15       		.byte	0x15
 1248 0204 A2000000 		.4byte	0xa2
 1249 0208 05       		.uleb128 0x5
 1250 0209 03       		.byte	0x3
 1251 020a 00000000 		.4byte	y2_mavg
 1252 020e 0D       		.uleb128 0xd
 1253 020f 55000000 		.4byte	.LASF29
 1254 0213 01       		.byte	0x1
 1255 0214 16       		.byte	0x16
 1256 0215 A9010000 		.4byte	0x1a9
 1257 0219 05       		.uleb128 0x5
 1258 021a 03       		.byte	0x3
 1259 021b 00000000 		.4byte	b2_mavg
 1260 021f 0B       		.uleb128 0xb
 1261 0220 A2000000 		.4byte	0xa2
 1262 0224 2F020000 		.4byte	0x22f
 1263 0228 0C       		.uleb128 0xc
 1264 0229 B0000000 		.4byte	0xb0
 1265 022d 02       		.byte	0x2
 1266 022e 00       		.byte	0
 1267 022f 0D       		.uleb128 0xd
 1268 0230 17000000 		.4byte	.LASF30
 1269 0234 01       		.byte	0x1
 1270 0235 1A       		.byte	0x1a
 1271 0236 1F020000 		.4byte	0x21f
 1272 023a 05       		.uleb128 0x5
 1273 023b 03       		.byte	0x3
 1274 023c 00000000 		.4byte	x_low
 1275 0240 0D       		.uleb128 0xd
 1276 0241 8A000000 		.4byte	.LASF31
ARM GAS  C:\Users\LINETT~1\AppData\Local\Temp\ccKEYg1q.s 			page 27


 1277 0245 01       		.byte	0x1
 1278 0246 1B       		.byte	0x1b
 1279 0247 1F020000 		.4byte	0x21f
 1280 024b 05       		.uleb128 0x5
 1281 024c 03       		.byte	0x3
 1282 024d 00000000 		.4byte	y_low
 1283 0251 0D       		.uleb128 0xd
 1284 0252 68020000 		.4byte	.LASF32
 1285 0256 01       		.byte	0x1
 1286 0257 1C       		.byte	0x1c
 1287 0258 1F020000 		.4byte	0x21f
 1288 025c 05       		.uleb128 0x5
 1289 025d 03       		.byte	0x3
 1290 025e 00000000 		.4byte	b_low
 1291 0262 0D       		.uleb128 0xd
 1292 0263 B6010000 		.4byte	.LASF33
 1293 0267 01       		.byte	0x1
 1294 0268 1D       		.byte	0x1d
 1295 0269 1F020000 		.4byte	0x21f
 1296 026d 05       		.uleb128 0x5
 1297 026e 03       		.byte	0x3
 1298 026f 00000000 		.4byte	a_low
 1299 0273 0D       		.uleb128 0xd
 1300 0274 B0000000 		.4byte	.LASF34
 1301 0278 01       		.byte	0x1
 1302 0279 1F       		.byte	0x1f
 1303 027a A9000000 		.4byte	0xa9
 1304 027e 05       		.uleb128 0x5
 1305 027f 03       		.byte	0x3
 1306 0280 00000000 		.4byte	current_byte
 1307 0284 0D       		.uleb128 0xd
 1308 0285 07000000 		.4byte	.LASF35
 1309 0289 01       		.byte	0x1
 1310 028a 20       		.byte	0x20
 1311 028b 8F000000 		.4byte	0x8f
 1312 028f 05       		.uleb128 0x5
 1313 0290 03       		.byte	0x3
 1314 0291 00000000 		.4byte	value_in
 1315 0295 0B       		.uleb128 0xb
 1316 0296 8F000000 		.4byte	0x8f
 1317 029a A5020000 		.4byte	0x2a5
 1318 029e 0C       		.uleb128 0xc
 1319 029f B0000000 		.4byte	0xb0
 1320 02a3 01       		.byte	0x1
 1321 02a4 00       		.byte	0
 1322 02a5 0D       		.uleb128 0xd
 1323 02a6 86010000 		.4byte	.LASF36
 1324 02aa 01       		.byte	0x1
 1325 02ab 20       		.byte	0x20
 1326 02ac 95020000 		.4byte	0x295
 1327 02b0 05       		.uleb128 0x5
 1328 02b1 03       		.byte	0x3
 1329 02b2 00000000 		.4byte	value_out
 1330 02b6 0E       		.uleb128 0xe
 1331 02b7 6900     		.ascii	"i\000"
 1332 02b9 01       		.byte	0x1
 1333 02ba 20       		.byte	0x20
ARM GAS  C:\Users\LINETT~1\AppData\Local\Temp\ccKEYg1q.s 			page 28


 1334 02bb 8F000000 		.4byte	0x8f
 1335 02bf 05       		.uleb128 0x5
 1336 02c0 03       		.byte	0x3
 1337 02c1 00000000 		.4byte	i
 1338 02c5 0E       		.uleb128 0xe
 1339 02c6 6A00     		.ascii	"j\000"
 1340 02c8 01       		.byte	0x1
 1341 02c9 20       		.byte	0x20
 1342 02ca 8F000000 		.4byte	0x8f
 1343 02ce 05       		.uleb128 0x5
 1344 02cf 03       		.byte	0x3
 1345 02d0 00000000 		.4byte	j
 1346 02d4 0D       		.uleb128 0xd
 1347 02d5 BC010000 		.4byte	.LASF37
 1348 02d9 01       		.byte	0x1
 1349 02da 20       		.byte	0x20
 1350 02db 8F000000 		.4byte	0x8f
 1351 02df 05       		.uleb128 0x5
 1352 02e0 03       		.byte	0x3
 1353 02e1 00000000 		.4byte	avg_new
 1354 02e5 0D       		.uleb128 0xd
 1355 02e6 55020000 		.4byte	.LASF38
 1356 02ea 01       		.byte	0x1
 1357 02eb 21       		.byte	0x21
 1358 02ec A9000000 		.4byte	0xa9
 1359 02f0 05       		.uleb128 0x5
 1360 02f1 03       		.byte	0x3
 1361 02f2 00000000 		.4byte	FirstCall
 1362 02f6 0B       		.uleb128 0xb
 1363 02f7 8F000000 		.4byte	0x8f
 1364 02fb 06030000 		.4byte	0x306
 1365 02ff 0C       		.uleb128 0xc
 1366 0300 B0000000 		.4byte	0xb0
 1367 0304 00       		.byte	0
 1368 0305 00       		.byte	0
 1369 0306 0D       		.uleb128 0xd
 1370 0307 A7010000 		.4byte	.LASF39
 1371 030b 01       		.byte	0x1
 1372 030c 23       		.byte	0x23
 1373 030d F6020000 		.4byte	0x2f6
 1374 0311 05       		.uleb128 0x5
 1375 0312 03       		.byte	0x3
 1376 0313 00000000 		.4byte	result
 1377 0317 0D       		.uleb128 0xd
 1378 0318 A5000000 		.4byte	.LASF40
 1379 031c 01       		.byte	0x1
 1380 031d 24       		.byte	0x24
 1381 031e 6B000000 		.4byte	0x6b
 1382 0322 05       		.uleb128 0x5
 1383 0323 03       		.byte	0x3
 1384 0324 00000000 		.4byte	data_ready
 1385 0328 00       		.byte	0
 1386              		.section	.debug_abbrev,"",%progbits
 1387              	.Ldebug_abbrev0:
 1388 0000 01       		.uleb128 0x1
 1389 0001 11       		.uleb128 0x11
 1390 0002 01       		.byte	0x1
ARM GAS  C:\Users\LINETT~1\AppData\Local\Temp\ccKEYg1q.s 			page 29


 1391 0003 25       		.uleb128 0x25
 1392 0004 0E       		.uleb128 0xe
 1393 0005 13       		.uleb128 0x13
 1394 0006 0B       		.uleb128 0xb
 1395 0007 03       		.uleb128 0x3
 1396 0008 0E       		.uleb128 0xe
 1397 0009 1B       		.uleb128 0x1b
 1398 000a 0E       		.uleb128 0xe
 1399 000b 55       		.uleb128 0x55
 1400 000c 17       		.uleb128 0x17
 1401 000d 11       		.uleb128 0x11
 1402 000e 01       		.uleb128 0x1
 1403 000f 10       		.uleb128 0x10
 1404 0010 17       		.uleb128 0x17
 1405 0011 00       		.byte	0
 1406 0012 00       		.byte	0
 1407 0013 02       		.uleb128 0x2
 1408 0014 24       		.uleb128 0x24
 1409 0015 00       		.byte	0
 1410 0016 0B       		.uleb128 0xb
 1411 0017 0B       		.uleb128 0xb
 1412 0018 3E       		.uleb128 0x3e
 1413 0019 0B       		.uleb128 0xb
 1414 001a 03       		.uleb128 0x3
 1415 001b 0E       		.uleb128 0xe
 1416 001c 00       		.byte	0
 1417 001d 00       		.byte	0
 1418 001e 03       		.uleb128 0x3
 1419 001f 24       		.uleb128 0x24
 1420 0020 00       		.byte	0
 1421 0021 0B       		.uleb128 0xb
 1422 0022 0B       		.uleb128 0xb
 1423 0023 3E       		.uleb128 0x3e
 1424 0024 0B       		.uleb128 0xb
 1425 0025 03       		.uleb128 0x3
 1426 0026 08       		.uleb128 0x8
 1427 0027 00       		.byte	0
 1428 0028 00       		.byte	0
 1429 0029 04       		.uleb128 0x4
 1430 002a 16       		.uleb128 0x16
 1431 002b 00       		.byte	0
 1432 002c 03       		.uleb128 0x3
 1433 002d 0E       		.uleb128 0xe
 1434 002e 3A       		.uleb128 0x3a
 1435 002f 0B       		.uleb128 0xb
 1436 0030 3B       		.uleb128 0x3b
 1437 0031 05       		.uleb128 0x5
 1438 0032 49       		.uleb128 0x49
 1439 0033 13       		.uleb128 0x13
 1440 0034 00       		.byte	0
 1441 0035 00       		.byte	0
 1442 0036 05       		.uleb128 0x5
 1443 0037 2E       		.uleb128 0x2e
 1444 0038 01       		.byte	0x1
 1445 0039 3F       		.uleb128 0x3f
 1446 003a 19       		.uleb128 0x19
 1447 003b 03       		.uleb128 0x3
ARM GAS  C:\Users\LINETT~1\AppData\Local\Temp\ccKEYg1q.s 			page 30


 1448 003c 0E       		.uleb128 0xe
 1449 003d 3A       		.uleb128 0x3a
 1450 003e 0B       		.uleb128 0xb
 1451 003f 3B       		.uleb128 0x3b
 1452 0040 0B       		.uleb128 0xb
 1453 0041 27       		.uleb128 0x27
 1454 0042 19       		.uleb128 0x19
 1455 0043 49       		.uleb128 0x49
 1456 0044 13       		.uleb128 0x13
 1457 0045 11       		.uleb128 0x11
 1458 0046 01       		.uleb128 0x1
 1459 0047 12       		.uleb128 0x12
 1460 0048 06       		.uleb128 0x6
 1461 0049 40       		.uleb128 0x40
 1462 004a 18       		.uleb128 0x18
 1463 004b 9642     		.uleb128 0x2116
 1464 004d 19       		.uleb128 0x19
 1465 004e 01       		.uleb128 0x1
 1466 004f 13       		.uleb128 0x13
 1467 0050 00       		.byte	0
 1468 0051 00       		.byte	0
 1469 0052 06       		.uleb128 0x6
 1470 0053 05       		.uleb128 0x5
 1471 0054 00       		.byte	0
 1472 0055 03       		.uleb128 0x3
 1473 0056 08       		.uleb128 0x8
 1474 0057 3A       		.uleb128 0x3a
 1475 0058 0B       		.uleb128 0xb
 1476 0059 3B       		.uleb128 0x3b
 1477 005a 0B       		.uleb128 0xb
 1478 005b 49       		.uleb128 0x49
 1479 005c 13       		.uleb128 0x13
 1480 005d 02       		.uleb128 0x2
 1481 005e 18       		.uleb128 0x18
 1482 005f 00       		.byte	0
 1483 0060 00       		.byte	0
 1484 0061 07       		.uleb128 0x7
 1485 0062 05       		.uleb128 0x5
 1486 0063 00       		.byte	0
 1487 0064 03       		.uleb128 0x3
 1488 0065 0E       		.uleb128 0xe
 1489 0066 3A       		.uleb128 0x3a
 1490 0067 0B       		.uleb128 0xb
 1491 0068 3B       		.uleb128 0x3b
 1492 0069 0B       		.uleb128 0xb
 1493 006a 49       		.uleb128 0x49
 1494 006b 13       		.uleb128 0x13
 1495 006c 02       		.uleb128 0x2
 1496 006d 18       		.uleb128 0x18
 1497 006e 00       		.byte	0
 1498 006f 00       		.byte	0
 1499 0070 08       		.uleb128 0x8
 1500 0071 34       		.uleb128 0x34
 1501 0072 00       		.byte	0
 1502 0073 03       		.uleb128 0x3
 1503 0074 08       		.uleb128 0x8
 1504 0075 3A       		.uleb128 0x3a
ARM GAS  C:\Users\LINETT~1\AppData\Local\Temp\ccKEYg1q.s 			page 31


 1505 0076 0B       		.uleb128 0xb
 1506 0077 3B       		.uleb128 0x3b
 1507 0078 0B       		.uleb128 0xb
 1508 0079 49       		.uleb128 0x49
 1509 007a 13       		.uleb128 0x13
 1510 007b 02       		.uleb128 0x2
 1511 007c 18       		.uleb128 0x18
 1512 007d 00       		.byte	0
 1513 007e 00       		.byte	0
 1514 007f 09       		.uleb128 0x9
 1515 0080 2E       		.uleb128 0x2e
 1516 0081 01       		.byte	0x1
 1517 0082 3F       		.uleb128 0x3f
 1518 0083 19       		.uleb128 0x19
 1519 0084 03       		.uleb128 0x3
 1520 0085 0E       		.uleb128 0xe
 1521 0086 3A       		.uleb128 0x3a
 1522 0087 0B       		.uleb128 0xb
 1523 0088 3B       		.uleb128 0x3b
 1524 0089 0B       		.uleb128 0xb
 1525 008a 27       		.uleb128 0x27
 1526 008b 19       		.uleb128 0x19
 1527 008c 11       		.uleb128 0x11
 1528 008d 01       		.uleb128 0x1
 1529 008e 12       		.uleb128 0x12
 1530 008f 06       		.uleb128 0x6
 1531 0090 40       		.uleb128 0x40
 1532 0091 18       		.uleb128 0x18
 1533 0092 9642     		.uleb128 0x2116
 1534 0094 19       		.uleb128 0x19
 1535 0095 01       		.uleb128 0x1
 1536 0096 13       		.uleb128 0x13
 1537 0097 00       		.byte	0
 1538 0098 00       		.byte	0
 1539 0099 0A       		.uleb128 0xa
 1540 009a 2E       		.uleb128 0x2e
 1541 009b 01       		.byte	0x1
 1542 009c 3F       		.uleb128 0x3f
 1543 009d 19       		.uleb128 0x19
 1544 009e 03       		.uleb128 0x3
 1545 009f 0E       		.uleb128 0xe
 1546 00a0 3A       		.uleb128 0x3a
 1547 00a1 0B       		.uleb128 0xb
 1548 00a2 3B       		.uleb128 0x3b
 1549 00a3 0B       		.uleb128 0xb
 1550 00a4 49       		.uleb128 0x49
 1551 00a5 13       		.uleb128 0x13
 1552 00a6 11       		.uleb128 0x11
 1553 00a7 01       		.uleb128 0x1
 1554 00a8 12       		.uleb128 0x12
 1555 00a9 06       		.uleb128 0x6
 1556 00aa 40       		.uleb128 0x40
 1557 00ab 18       		.uleb128 0x18
 1558 00ac 9642     		.uleb128 0x2116
 1559 00ae 19       		.uleb128 0x19
 1560 00af 01       		.uleb128 0x1
 1561 00b0 13       		.uleb128 0x13
ARM GAS  C:\Users\LINETT~1\AppData\Local\Temp\ccKEYg1q.s 			page 32


 1562 00b1 00       		.byte	0
 1563 00b2 00       		.byte	0
 1564 00b3 0B       		.uleb128 0xb
 1565 00b4 01       		.uleb128 0x1
 1566 00b5 01       		.byte	0x1
 1567 00b6 49       		.uleb128 0x49
 1568 00b7 13       		.uleb128 0x13
 1569 00b8 01       		.uleb128 0x1
 1570 00b9 13       		.uleb128 0x13
 1571 00ba 00       		.byte	0
 1572 00bb 00       		.byte	0
 1573 00bc 0C       		.uleb128 0xc
 1574 00bd 21       		.uleb128 0x21
 1575 00be 00       		.byte	0
 1576 00bf 49       		.uleb128 0x49
 1577 00c0 13       		.uleb128 0x13
 1578 00c1 2F       		.uleb128 0x2f
 1579 00c2 0B       		.uleb128 0xb
 1580 00c3 00       		.byte	0
 1581 00c4 00       		.byte	0
 1582 00c5 0D       		.uleb128 0xd
 1583 00c6 34       		.uleb128 0x34
 1584 00c7 00       		.byte	0
 1585 00c8 03       		.uleb128 0x3
 1586 00c9 0E       		.uleb128 0xe
 1587 00ca 3A       		.uleb128 0x3a
 1588 00cb 0B       		.uleb128 0xb
 1589 00cc 3B       		.uleb128 0x3b
 1590 00cd 0B       		.uleb128 0xb
 1591 00ce 49       		.uleb128 0x49
 1592 00cf 13       		.uleb128 0x13
 1593 00d0 3F       		.uleb128 0x3f
 1594 00d1 19       		.uleb128 0x19
 1595 00d2 02       		.uleb128 0x2
 1596 00d3 18       		.uleb128 0x18
 1597 00d4 00       		.byte	0
 1598 00d5 00       		.byte	0
 1599 00d6 0E       		.uleb128 0xe
 1600 00d7 34       		.uleb128 0x34
 1601 00d8 00       		.byte	0
 1602 00d9 03       		.uleb128 0x3
 1603 00da 08       		.uleb128 0x8
 1604 00db 3A       		.uleb128 0x3a
 1605 00dc 0B       		.uleb128 0xb
 1606 00dd 3B       		.uleb128 0x3b
 1607 00de 0B       		.uleb128 0xb
 1608 00df 49       		.uleb128 0x49
 1609 00e0 13       		.uleb128 0x13
 1610 00e1 3F       		.uleb128 0x3f
 1611 00e2 19       		.uleb128 0x19
 1612 00e3 02       		.uleb128 0x2
 1613 00e4 18       		.uleb128 0x18
 1614 00e5 00       		.byte	0
 1615 00e6 00       		.byte	0
 1616 00e7 00       		.byte	0
 1617              		.section	.debug_aranges,"",%progbits
 1618 0000 44000000 		.4byte	0x44
ARM GAS  C:\Users\LINETT~1\AppData\Local\Temp\ccKEYg1q.s 			page 33


 1619 0004 0200     		.2byte	0x2
 1620 0006 00000000 		.4byte	.Ldebug_info0
 1621 000a 04       		.byte	0x4
 1622 000b 00       		.byte	0
 1623 000c 0000     		.2byte	0
 1624 000e 0000     		.2byte	0
 1625 0010 00000000 		.4byte	.LFB37
 1626 0014 5C000000 		.4byte	.LFE37-.LFB37
 1627 0018 00000000 		.4byte	.LFB38
 1628 001c 04010000 		.4byte	.LFE38-.LFB38
 1629 0020 00000000 		.4byte	.LFB39
 1630 0024 04010000 		.4byte	.LFE39-.LFB39
 1631 0028 00000000 		.4byte	.LFB40
 1632 002c 24010000 		.4byte	.LFE40-.LFB40
 1633 0030 00000000 		.4byte	.LFB41
 1634 0034 50000000 		.4byte	.LFE41-.LFB41
 1635 0038 00000000 		.4byte	.LFB42
 1636 003c 10010000 		.4byte	.LFE42-.LFB42
 1637 0040 00000000 		.4byte	0
 1638 0044 00000000 		.4byte	0
 1639              		.section	.debug_ranges,"",%progbits
 1640              	.Ldebug_ranges0:
 1641 0000 00000000 		.4byte	.LFB37
 1642 0004 5C000000 		.4byte	.LFE37
 1643 0008 00000000 		.4byte	.LFB38
 1644 000c 04010000 		.4byte	.LFE38
 1645 0010 00000000 		.4byte	.LFB39
 1646 0014 04010000 		.4byte	.LFE39
 1647 0018 00000000 		.4byte	.LFB40
 1648 001c 24010000 		.4byte	.LFE40
 1649 0020 00000000 		.4byte	.LFB41
 1650 0024 50000000 		.4byte	.LFE41
 1651 0028 00000000 		.4byte	.LFB42
 1652 002c 10010000 		.4byte	.LFE42
 1653 0030 00000000 		.4byte	0
 1654 0034 00000000 		.4byte	0
 1655              		.section	.debug_line,"",%progbits
 1656              	.Ldebug_line0:
 1657 0000 77010000 		.section	.debug_str,"MS",%progbits,1
 1657      02004300 
 1657      00000201 
 1657      FB0E0D00 
 1657      01010101 
 1658              	.LASF24:
 1659 0000 785F6D61 		.ascii	"x_mavg\000"
 1659      766700
 1660              	.LASF35:
 1661 0007 76616C75 		.ascii	"value_in\000"
 1661      655F696E 
 1661      00
 1662              	.LASF26:
 1663 0010 625F6D61 		.ascii	"b_mavg\000"
 1663      766700
 1664              	.LASF30:
 1665 0017 785F6C6F 		.ascii	"x_low\000"
 1665      7700
 1666              	.LASF3:
ARM GAS  C:\Users\LINETT~1\AppData\Local\Temp\ccKEYg1q.s 			page 34


 1667 001d 73686F72 		.ascii	"short unsigned int\000"
 1667      7420756E 
 1667      7369676E 
 1667      65642069 
 1667      6E7400
 1668              	.LASF2:
 1669 0030 73686F72 		.ascii	"short int\000"
 1669      7420696E 
 1669      7400
 1670              	.LASF21:
 1671 003a 6C6F775F 		.ascii	"low_pass_filter\000"
 1671      70617373 
 1671      5F66696C 
 1671      74657200 
 1672              	.LASF13:
 1673 004a 666C6F61 		.ascii	"float\000"
 1673      7400
 1674              	.LASF19:
 1675 0050 64617461 		.ascii	"data\000"
 1675      00
 1676              	.LASF29:
 1677 0055 62325F6D 		.ascii	"b2_mavg\000"
 1677      61766700 
 1678              	.LASF1:
 1679 005d 756E7369 		.ascii	"unsigned char\000"
 1679      676E6564 
 1679      20636861 
 1679      7200
 1680              	.LASF18:
 1681 006b 6D617667 		.ascii	"mavg_filter\000"
 1681      5F66696C 
 1681      74657200 
 1682              	.LASF12:
 1683 0077 696E7431 		.ascii	"int16\000"
 1683      3600
 1684              	.LASF25:
 1685 007d 795F6D61 		.ascii	"y_mavg\000"
 1685      766700
 1686              	.LASF9:
 1687 0084 75696E74 		.ascii	"uint8\000"
 1687      3800
 1688              	.LASF31:
 1689 008a 795F6C6F 		.ascii	"y_low\000"
 1689      7700
 1690              	.LASF22:
 1691 0090 4144435F 		.ascii	"ADC_interrupt\000"
 1691      696E7465 
 1691      72727570 
 1691      7400
 1692              	.LASF14:
 1693 009e 646F7562 		.ascii	"double\000"
 1693      6C6500
 1694              	.LASF40:
 1695 00a5 64617461 		.ascii	"data_ready\000"
 1695      5F726561 
 1695      647900
 1696              	.LASF34:
ARM GAS  C:\Users\LINETT~1\AppData\Local\Temp\ccKEYg1q.s 			page 35


 1697 00b0 63757272 		.ascii	"current_byte\000"
 1697      656E745F 
 1697      62797465 
 1697      00
 1698              	.LASF42:
 1699 00bd 2E5C6D61 		.ascii	".\\main.c\000"
 1699      696E2E63 
 1699      00
 1700              	.LASF41:
 1701 00c6 474E5520 		.ascii	"GNU C 4.9.3 20150303 (release) [ARM/embedded-4_9-br"
 1701      4320342E 
 1701      392E3320 
 1701      32303135 
 1701      30333033 
 1702 00f9 616E6368 		.ascii	"anch revision 221220] -mcpu=cortex-m0 -mthumb -g -O"
 1702      20726576 
 1702      6973696F 
 1702      6E203232 
 1702      31323230 
 1703 012c 30202D66 		.ascii	"0 -ffunction-sections -ffat-lto-objects\000"
 1703      66756E63 
 1703      74696F6E 
 1703      2D736563 
 1703      74696F6E 
 1704              	.LASF10:
 1705 0154 75696E74 		.ascii	"uint16\000"
 1705      313600
 1706              	.LASF11:
 1707 015b 75696E74 		.ascii	"uint32\000"
 1707      333200
 1708              	.LASF23:
 1709 0162 6D61696E 		.ascii	"main\000"
 1709      00
 1710              	.LASF5:
 1711 0167 6C6F6E67 		.ascii	"long unsigned int\000"
 1711      20756E73 
 1711      69676E65 
 1711      6420696E 
 1711      7400
 1712              	.LASF8:
 1713 0179 756E7369 		.ascii	"unsigned int\000"
 1713      676E6564 
 1713      20696E74 
 1713      00
 1714              	.LASF36:
 1715 0186 76616C75 		.ascii	"value_out\000"
 1715      655F6F75 
 1715      7400
 1716              	.LASF7:
 1717 0190 6C6F6E67 		.ascii	"long long unsigned int\000"
 1717      206C6F6E 
 1717      6720756E 
 1717      7369676E 
 1717      65642069 
 1718              	.LASF39:
 1719 01a7 72657375 		.ascii	"result\000"
 1719      6C7400
ARM GAS  C:\Users\LINETT~1\AppData\Local\Temp\ccKEYg1q.s 			page 36


 1720              	.LASF27:
 1721 01ae 78325F6D 		.ascii	"x2_mavg\000"
 1721      61766700 
 1722              	.LASF33:
 1723 01b6 615F6C6F 		.ascii	"a_low\000"
 1723      7700
 1724              	.LASF37:
 1725 01bc 6176675F 		.ascii	"avg_new\000"
 1725      6E657700 
 1726              	.LASF43:
 1727 01c4 433A5C55 		.ascii	"C:\\Users\\Linette Helena\\Desktop\\Det pisse meget"
 1727      73657273 
 1727      5C4C696E 
 1727      65747465 
 1727      2048656C 
 1728 01f3 20726967 		.ascii	" rigtigt!\\ADC_med_filtre.cydsn\000"
 1728      74696774 
 1728      215C4144 
 1728      435F6D65 
 1728      645F6669 
 1729              	.LASF16:
 1730 0212 73697A65 		.ascii	"sizetype\000"
 1730      74797065 
 1730      00
 1731              	.LASF6:
 1732 021b 6C6F6E67 		.ascii	"long long int\000"
 1732      206C6F6E 
 1732      6720696E 
 1732      7400
 1733              	.LASF28:
 1734 0229 79325F6D 		.ascii	"y2_mavg\000"
 1734      61766700 
 1735              	.LASF15:
 1736 0231 63686172 		.ascii	"char\000"
 1736      00
 1737              	.LASF17:
 1738 0236 666C6F6F 		.ascii	"floor_and_convert\000"
 1738      725F616E 
 1738      645F636F 
 1738      6E766572 
 1738      7400
 1739              	.LASF20:
 1740 0248 6D617667 		.ascii	"mavg_filter2\000"
 1740      5F66696C 
 1740      74657232 
 1740      00
 1741              	.LASF38:
 1742 0255 46697273 		.ascii	"FirstCall\000"
 1742      7443616C 
 1742      6C00
 1743              	.LASF4:
 1744 025f 6C6F6E67 		.ascii	"long int\000"
 1744      20696E74 
 1744      00
 1745              	.LASF32:
 1746 0268 625F6C6F 		.ascii	"b_low\000"
 1746      7700
ARM GAS  C:\Users\LINETT~1\AppData\Local\Temp\ccKEYg1q.s 			page 37


 1747              	.LASF0:
 1748 026e 7369676E 		.ascii	"signed char\000"
 1748      65642063 
 1748      68617200 
 1749              		.ident	"GCC: (GNU Tools for ARM Embedded Processors) 4.9.3 20150303 (release) [ARM/embedded-4_9-br
