ARM GAS  C:\Users\LINETT~1\AppData\Local\Temp\ccKEYg1q.s 			page 1


   1              		.cpu cortex-m0
   2              		.fpu softvfp
   3              		.eabi_attribute 20, 1
   4              		.eabi_attribute 21, 1
   5              		.eabi_attribute 23, 3
   6              		.eabi_attribute 24, 1
   7              		.eabi_attribute 25, 1
   8              		.eabi_attribute 26, 1
   9              		.eabi_attribute 30, 6
  10              		.eabi_attribute 34, 0
  11              		.eabi_attribute 18, 4
  12              		.code	16
  13              		.file	"main.c"
  14              		.text
  15              	.Ltext0:
  16              		.cfi_sections	.debug_frame
  17              		.global	x_mavg
  18              		.bss
  19              		.align	3
  20              		.type	x_mavg, %object
  21              		.size	x_mavg, 80
  22              	x_mavg:
  23 0000 00000000 		.space	80
  23      00000000 
  23      00000000 
  23      00000000 
  23      00000000 
  24              		.global	y_mavg
  25              		.align	3
  26              		.type	y_mavg, %object
  27              		.size	y_mavg, 8
  28              	y_mavg:
  29 0050 00000000 		.space	8
  29      00000000 
  30              		.global	b_mavg
  31              		.data
  32              		.align	3
  33              		.type	b_mavg, %object
  34              		.size	b_mavg, 80
  35              	b_mavg:
  36 0000 9A999999 		.word	-1717986918
  37 0004 9999B93F 		.word	1069128089
  38 0008 9A999999 		.word	-1717986918
  39 000c 9999B93F 		.word	1069128089
  40 0010 9A999999 		.word	-1717986918
  41 0014 9999B93F 		.word	1069128089
  42 0018 9A999999 		.word	-1717986918
  43 001c 9999B93F 		.word	1069128089
  44 0020 9A999999 		.word	-1717986918
  45 0024 9999B93F 		.word	1069128089
  46 0028 9A999999 		.word	-1717986918
  47 002c 9999B93F 		.word	1069128089
  48 0030 9A999999 		.word	-1717986918
  49 0034 9999B93F 		.word	1069128089
  50 0038 9A999999 		.word	-1717986918
  51 003c 9999B93F 		.word	1069128089
  52 0040 9A999999 		.word	-1717986918
ARM GAS  C:\Users\LINETT~1\AppData\Local\Temp\ccKEYg1q.s 			page 2


  53 0044 9999B93F 		.word	1069128089
  54 0048 9A999999 		.word	-1717986918
  55 004c 9999B93F 		.word	1069128089
  56              		.global	x2_mavg
  57              		.bss
  58              		.align	3
  59              		.type	x2_mavg, %object
  60              		.size	x2_mavg, 80
  61              	x2_mavg:
  62 0058 00000000 		.space	80
  62      00000000 
  62      00000000 
  62      00000000 
  62      00000000 
  63              		.global	y2_mavg
  64              		.align	3
  65              		.type	y2_mavg, %object
  66              		.size	y2_mavg, 8
  67              	y2_mavg:
  68 00a8 00000000 		.space	8
  68      00000000 
  69              		.global	b2_mavg
  70              		.data
  71              		.align	3
  72              		.type	b2_mavg, %object
  73              		.size	b2_mavg, 80
  74              	b2_mavg:
  75 0050 9A999999 		.word	-1717986918
  76 0054 9999B93F 		.word	1069128089
  77 0058 9A999999 		.word	-1717986918
  78 005c 9999B93F 		.word	1069128089
  79 0060 9A999999 		.word	-1717986918
  80 0064 9999B93F 		.word	1069128089
  81 0068 9A999999 		.word	-1717986918
  82 006c 9999B93F 		.word	1069128089
  83 0070 9A999999 		.word	-1717986918
  84 0074 9999B93F 		.word	1069128089
  85 0078 9A999999 		.word	-1717986918
  86 007c 9999B93F 		.word	1069128089
  87 0080 9A999999 		.word	-1717986918
  88 0084 9999B93F 		.word	1069128089
  89 0088 9A999999 		.word	-1717986918
  90 008c 9999B93F 		.word	1069128089
  91 0090 9A999999 		.word	-1717986918
  92 0094 9999B93F 		.word	1069128089
  93 0098 9A999999 		.word	-1717986918
  94 009c 9999B93F 		.word	1069128089
  95              		.global	x_low
  96              		.bss
  97              		.align	3
  98              		.type	x_low, %object
  99              		.size	x_low, 24
 100              	x_low:
 101 00b0 00000000 		.space	24
 101      00000000 
 101      00000000 
 101      00000000 
ARM GAS  C:\Users\LINETT~1\AppData\Local\Temp\ccKEYg1q.s 			page 3


 101      00000000 
 102              		.global	y_low
 103              		.align	3
 104              		.type	y_low, %object
 105              		.size	y_low, 24
 106              	y_low:
 107 00c8 00000000 		.space	24
 107      00000000 
 107      00000000 
 107      00000000 
 107      00000000 
 108              		.global	b_low
 109              		.data
 110              		.align	3
 111              		.type	b_low, %object
 112              		.size	b_low, 24
 113              	b_low:
 114 00a0 BE30992A 		.word	714682558
 115 00a4 1895943F 		.word	1066702104
 116 00a8 BE30992A 		.word	714682558
 117 00ac 1895A43F 		.word	1067750680
 118 00b0 BE30992A 		.word	714682558
 119 00b4 1895943F 		.word	1066702104
 120              		.global	a_low
 121              		.align	3
 122              		.type	a_low, %object
 123              		.size	a_low, 24
 124              	a_low:
 125 00b8 00000000 		.word	0
 126 00bc 0000F03F 		.word	1072693248
 127 00c0 60E5D022 		.word	584115552
 128 00c4 DBF9F8BF 		.word	-1074202149
 129 00c8 D8F0F44A 		.word	1257566424
 130 00cc 5986E43F 		.word	1071941209
 131              		.global	current_byte
 132              		.bss
 133              		.type	current_byte, %object
 134              		.size	current_byte, 1
 135              	current_byte:
 136 00e0 00       		.space	1
 137              		.comm	value_in,2,2
 138              		.global	value_out
 139 00e1 000000   		.align	2
 140              		.type	value_out, %object
 141              		.size	value_out, 4
 142              	value_out:
 143 00e4 00000000 		.space	4
 144              		.global	i
 145              		.align	1
 146              		.type	i, %object
 147              		.size	i, 2
 148              	i:
 149 00e8 0000     		.space	2
 150              		.global	j
 151              		.align	1
 152              		.type	j, %object
 153              		.size	j, 2
ARM GAS  C:\Users\LINETT~1\AppData\Local\Temp\ccKEYg1q.s 			page 4


 154              	j:
 155 00ea 0000     		.space	2
 156              		.comm	avg_new,2,2
 157              		.global	FirstCall
 158              		.data
 159              		.type	FirstCall, %object
 160              		.size	FirstCall, 1
 161              	FirstCall:
 162 00d0 01       		.byte	1
 163              		.global	result
 164 00d1 00000000 		.bss
 164      000000
 165              		.align	2
 166              		.type	result, %object
 167              		.size	result, 2
 168              	result:
 169 00ec 0000     		.space	2
 170              		.global	data_ready
 171              		.type	data_ready, %object
 172              		.size	data_ready, 1
 173              	data_ready:
 174 00ee 00       		.space	1
 175              		.global	__aeabi_dcmpgt
 176              		.global	__aeabi_dadd
 177              		.global	__aeabi_d2iz
 178              		.global	__aeabi_dsub
 179 00ef 00       		.section	.text.floor_and_convert,"ax",%progbits
 180              		.align	2
 181              		.global	floor_and_convert
 182              		.code	16
 183              		.thumb_func
 184              		.type	floor_and_convert, %function
 185              	floor_and_convert:
 186              	.LFB37:
 187              		.file 1 ".\\main.c"
   1:.\main.c      **** #include <project.h>
   2:.\main.c      **** #include <my_defines.h>
   3:.\main.c      **** #include <stdlib.h>
   4:.\main.c      **** 
   5:.\main.c      **** #define LOWBYTE 0                                   // Used to toggle between HIGH byte and LOW byt
   6:.\main.c      **** #define HIGHBYTE 1                                  // Used to toggle between HIGH byte and LOW byt
   7:.\main.c      **** #define FALSE 0
   8:.\main.c      **** #define TRUE 1
   9:.\main.c      **** 
  10:.\main.c      **** /* Moving average filter */ 
  11:.\main.c      **** #define FILTER_LENGTH_mavg 9
  12:.\main.c      **** //int y[2] = {0,0};
  13:.\main.c      **** double x_mavg[FILTER_LENGTH_mavg+1] = {0,0,0,0,0,0,0,0,0,0};
  14:.\main.c      **** double y_mavg = 0;
  15:.\main.c      **** double b_mavg[FILTER_LENGTH_mavg+1] = {0.1,0.1,0.1,0.1,0.1,0.1,0.1,0.1,0.1,0.1};
  16:.\main.c      **** 
  17:.\main.c      **** /* Moving average filter 2 */
  18:.\main.c      **** #define FILTER_LENGTH_mavg2 9
  19:.\main.c      **** //int y2[2] = {0,0};
  20:.\main.c      **** double x2_mavg[FILTER_LENGTH_mavg2+1] = {0,0,0,0,0,0,0,0,0,0};
  21:.\main.c      **** double y2_mavg = 0;
  22:.\main.c      **** double b2_mavg[FILTER_LENGTH_mavg2+1] = {0.1,0.1,0.1,0.1,0.1,0.1,0.1,0.1,0.1,0.1};
ARM GAS  C:\Users\LINETT~1\AppData\Local\Temp\ccKEYg1q.s 			page 5


  23:.\main.c      **** 
  24:.\main.c      **** /* Lavpas filter*/
  25:.\main.c      **** #define FILTER_LENGTH_low 2
  26:.\main.c      **** double x_low[FILTER_LENGTH_low+1] = {0, 0, 0};
  27:.\main.c      **** double y_low[FILTER_LENGTH_low+1] = {0, 0, 0};
  28:.\main.c      **** double b_low[FILTER_LENGTH_low+1] = {0.0201, 0.0402, 0.0201};
  29:.\main.c      **** double a_low[FILTER_LENGTH_low+1] = {1.0000, -1.5610, 0.6414};
  30:.\main.c      **** 
  31:.\main.c      **** char current_byte = LOWBYTE;                        // Receive LOW byte first as default
  32:.\main.c      **** int16 value_in,value_out[2]={0,0},i=0,j=0, avg_new; 
  33:.\main.c      **** char FirstCall = TRUE;
  34:.\main.c      **** 
  35:.\main.c      **** int16 result[num_of_channels] = {0};
  36:.\main.c      **** uint8 data_ready = FALSE;
  37:.\main.c      **** 
  38:.\main.c      **** /***********************************Konvertering til heltal***********************************/
  39:.\main.c      **** signed int floor_and_convert(double y)
  40:.\main.c      **** {
 188              		.loc 1 40 0
 189              		.cfi_startproc
 190 0000 90B5     		push	{r4, r7, lr}
 191              		.cfi_def_cfa_offset 12
 192              		.cfi_offset 4, -12
 193              		.cfi_offset 7, -8
 194              		.cfi_offset 14, -4
 195 0002 83B0     		sub	sp, sp, #12
 196              		.cfi_def_cfa_offset 24
 197 0004 00AF     		add	r7, sp, #0
 198              		.cfi_def_cfa_register 7
 199 0006 3860     		str	r0, [r7]
 200 0008 7960     		str	r1, [r7, #4]
  41:.\main.c      ****    if (y > 0)
 201              		.loc 1 41 0
 202 000a 3868     		ldr	r0, [r7]
 203 000c 7968     		ldr	r1, [r7, #4]
 204 000e 0022     		mov	r2, #0
 205 0010 0023     		mov	r3, #0
 206 0012 FFF7FEFF 		bl	__aeabi_dcmpgt
 207 0016 031E     		sub	r3, r0, #0
 208 0018 0DD0     		beq	.L6
  42:.\main.c      ****       return (signed int) (y+0.5);
 209              		.loc 1 42 0
 210 001a 3868     		ldr	r0, [r7]
 211 001c 7968     		ldr	r1, [r7, #4]
 212 001e 0022     		mov	r2, #0
 213 0020 0D4B     		ldr	r3, .L7
 214 0022 FFF7FEFF 		bl	__aeabi_dadd
 215 0026 031C     		mov	r3, r0
 216 0028 0C1C     		mov	r4, r1
 217 002a 181C     		mov	r0, r3
 218 002c 211C     		mov	r1, r4
 219 002e FFF7FEFF 		bl	__aeabi_d2iz
 220 0032 031C     		mov	r3, r0
 221 0034 0CE0     		b	.L4
 222              	.L6:
  43:.\main.c      ****    else
  44:.\main.c      ****       return (signed int) (y-0.5);
ARM GAS  C:\Users\LINETT~1\AppData\Local\Temp\ccKEYg1q.s 			page 6


 223              		.loc 1 44 0
 224 0036 3868     		ldr	r0, [r7]
 225 0038 7968     		ldr	r1, [r7, #4]
 226 003a 0022     		mov	r2, #0
 227 003c 064B     		ldr	r3, .L7
 228 003e FFF7FEFF 		bl	__aeabi_dsub
 229 0042 031C     		mov	r3, r0
 230 0044 0C1C     		mov	r4, r1
 231 0046 181C     		mov	r0, r3
 232 0048 211C     		mov	r1, r4
 233 004a FFF7FEFF 		bl	__aeabi_d2iz
 234 004e 031C     		mov	r3, r0
 235              	.L4:
  45:.\main.c      **** }
 236              		.loc 1 45 0
 237 0050 181C     		mov	r0, r3
 238 0052 BD46     		mov	sp, r7
 239 0054 03B0     		add	sp, sp, #12
 240              		@ sp needed
 241 0056 90BD     		pop	{r4, r7, pc}
 242              	.L8:
 243              		.align	2
 244              	.L7:
 245 0058 0000E03F 		.word	1071644672
 246              		.cfi_endproc
 247              	.LFE37:
 248              		.size	floor_and_convert, .-floor_and_convert
 249              		.global	__aeabi_i2d
 250              		.global	__aeabi_dmul
 251              		.section	.text.mavg_filter,"ax",%progbits
 252              		.align	2
 253              		.global	mavg_filter
 254              		.code	16
 255              		.thumb_func
 256              		.type	mavg_filter, %function
 257              	mavg_filter:
 258              	.LFB38:
  46:.\main.c      **** 
  47:.\main.c      **** /***********************************Moving average filter***********************************/
  48:.\main.c      **** signed int mavg_filter(signed int data)
  49:.\main.c      **** {
 259              		.loc 1 49 0
 260              		.cfi_startproc
 261 0000 90B5     		push	{r4, r7, lr}
 262              		.cfi_def_cfa_offset 12
 263              		.cfi_offset 4, -12
 264              		.cfi_offset 7, -8
 265              		.cfi_offset 14, -4
 266 0002 83B0     		sub	sp, sp, #12
 267              		.cfi_def_cfa_offset 24
 268 0004 00AF     		add	r7, sp, #0
 269              		.cfi_def_cfa_register 7
 270 0006 7860     		str	r0, [r7, #4]
  50:.\main.c      ****    x_mavg[0] =  (double) data;      // Read received sample and perform type casts
 271              		.loc 1 50 0
 272 0008 7868     		ldr	r0, [r7, #4]
 273 000a FFF7FEFF 		bl	__aeabi_i2d
ARM GAS  C:\Users\LINETT~1\AppData\Local\Temp\ccKEYg1q.s 			page 7


 274 000e 031C     		mov	r3, r0
 275 0010 0C1C     		mov	r4, r1
 276 0012 384A     		ldr	r2, .L15
 277 0014 1360     		str	r3, [r2]
 278 0016 5460     		str	r4, [r2, #4]
  51:.\main.c      ****    
  52:.\main.c      ****    y_mavg = 0;
 279              		.loc 1 52 0
 280 0018 374A     		ldr	r2, .L15+4
 281 001a 0023     		mov	r3, #0
 282 001c 0024     		mov	r4, #0
 283 001e 1360     		str	r3, [r2]
 284 0020 5460     		str	r4, [r2, #4]
  53:.\main.c      ****    for(i = 0;i <= FILTER_LENGTH_mavg;i++)           // Run FIR filter for each received sample
 285              		.loc 1 53 0
 286 0022 364B     		ldr	r3, .L15+8
 287 0024 0022     		mov	r2, #0
 288 0026 1A80     		strh	r2, [r3]
 289 0028 30E0     		b	.L10
 290              	.L11:
  54:.\main.c      ****    {
  55:.\main.c      ****       y_mavg += b_mavg[i]*x_mavg[i];
 291              		.loc 1 55 0 discriminator 3
 292 002a 344B     		ldr	r3, .L15+8
 293 002c 1B88     		ldrh	r3, [r3]
 294 002e 1BB2     		sxth	r3, r3
 295 0030 334A     		ldr	r2, .L15+12
 296 0032 DB00     		lsl	r3, r3, #3
 297 0034 D318     		add	r3, r2, r3
 298 0036 1968     		ldr	r1, [r3]
 299 0038 5A68     		ldr	r2, [r3, #4]
 300 003a 304B     		ldr	r3, .L15+8
 301 003c 1B88     		ldrh	r3, [r3]
 302 003e 1BB2     		sxth	r3, r3
 303 0040 2C48     		ldr	r0, .L15
 304 0042 DB00     		lsl	r3, r3, #3
 305 0044 C318     		add	r3, r0, r3
 306 0046 5C68     		ldr	r4, [r3, #4]
 307 0048 1B68     		ldr	r3, [r3]
 308 004a 081C     		mov	r0, r1
 309 004c 111C     		mov	r1, r2
 310 004e 1A1C     		mov	r2, r3
 311 0050 231C     		mov	r3, r4
 312 0052 FFF7FEFF 		bl	__aeabi_dmul
 313 0056 031C     		mov	r3, r0
 314 0058 0C1C     		mov	r4, r1
 315 005a 191C     		mov	r1, r3
 316 005c 221C     		mov	r2, r4
 317 005e 264B     		ldr	r3, .L15+4
 318 0060 5C68     		ldr	r4, [r3, #4]
 319 0062 1B68     		ldr	r3, [r3]
 320 0064 081C     		mov	r0, r1
 321 0066 111C     		mov	r1, r2
 322 0068 1A1C     		mov	r2, r3
 323 006a 231C     		mov	r3, r4
 324 006c FFF7FEFF 		bl	__aeabi_dadd
 325 0070 031C     		mov	r3, r0
ARM GAS  C:\Users\LINETT~1\AppData\Local\Temp\ccKEYg1q.s 			page 8


 326 0072 0C1C     		mov	r4, r1
 327 0074 204A     		ldr	r2, .L15+4
 328 0076 1360     		str	r3, [r2]
 329 0078 5460     		str	r4, [r2, #4]
  53:.\main.c      ****    for(i = 0;i <= FILTER_LENGTH_mavg;i++)           // Run FIR filter for each received sample
 330              		.loc 1 53 0 discriminator 3
 331 007a 204B     		ldr	r3, .L15+8
 332 007c 1B88     		ldrh	r3, [r3]
 333 007e 9BB2     		uxth	r3, r3
 334 0080 9BB2     		uxth	r3, r3
 335 0082 0133     		add	r3, r3, #1
 336 0084 9BB2     		uxth	r3, r3
 337 0086 9AB2     		uxth	r2, r3
 338 0088 1C4B     		ldr	r3, .L15+8
 339 008a 1A80     		strh	r2, [r3]
 340              	.L10:
  53:.\main.c      ****    for(i = 0;i <= FILTER_LENGTH_mavg;i++)           // Run FIR filter for each received sample
 341              		.loc 1 53 0 is_stmt 0 discriminator 1
 342 008c 1B4B     		ldr	r3, .L15+8
 343 008e 1B88     		ldrh	r3, [r3]
 344 0090 1BB2     		sxth	r3, r3
 345 0092 092B     		cmp	r3, #9
 346 0094 C9DD     		ble	.L11
  56:.\main.c      ****    } 
  57:.\main.c      ****    
  58:.\main.c      ****    for(i = FILTER_LENGTH_mavg-1;i >= 0;i--)         // Roll x array in order to hold old sample inp
 347              		.loc 1 58 0 is_stmt 1
 348 0096 194B     		ldr	r3, .L15+8
 349 0098 0822     		mov	r2, #8
 350 009a 1A80     		strh	r2, [r3]
 351 009c 19E0     		b	.L12
 352              	.L13:
  59:.\main.c      ****    {
  60:.\main.c      ****       x_mavg[i+1] = x_mavg[i];
 353              		.loc 1 60 0 discriminator 3
 354 009e 174B     		ldr	r3, .L15+8
 355 00a0 1B88     		ldrh	r3, [r3]
 356 00a2 1BB2     		sxth	r3, r3
 357 00a4 5A1C     		add	r2, r3, #1
 358 00a6 154B     		ldr	r3, .L15+8
 359 00a8 1B88     		ldrh	r3, [r3]
 360 00aa 1BB2     		sxth	r3, r3
 361 00ac 1149     		ldr	r1, .L15
 362 00ae DB00     		lsl	r3, r3, #3
 363 00b0 CB18     		add	r3, r1, r3
 364 00b2 5C68     		ldr	r4, [r3, #4]
 365 00b4 1B68     		ldr	r3, [r3]
 366 00b6 0F49     		ldr	r1, .L15
 367 00b8 D200     		lsl	r2, r2, #3
 368 00ba 8A18     		add	r2, r1, r2
 369 00bc 1360     		str	r3, [r2]
 370 00be 5460     		str	r4, [r2, #4]
  58:.\main.c      ****    {
 371              		.loc 1 58 0 discriminator 3
 372 00c0 0E4B     		ldr	r3, .L15+8
 373 00c2 1B88     		ldrh	r3, [r3]
 374 00c4 9BB2     		uxth	r3, r3
ARM GAS  C:\Users\LINETT~1\AppData\Local\Temp\ccKEYg1q.s 			page 9


 375 00c6 9BB2     		uxth	r3, r3
 376 00c8 013B     		sub	r3, r3, #1
 377 00ca 9BB2     		uxth	r3, r3
 378 00cc 9AB2     		uxth	r2, r3
 379 00ce 0B4B     		ldr	r3, .L15+8
 380 00d0 1A80     		strh	r2, [r3]
 381              	.L12:
  58:.\main.c      ****    {
 382              		.loc 1 58 0 is_stmt 0 discriminator 1
 383 00d2 0A4B     		ldr	r3, .L15+8
 384 00d4 1B88     		ldrh	r3, [r3]
 385 00d6 1BB2     		sxth	r3, r3
 386 00d8 002B     		cmp	r3, #0
 387 00da E0DA     		bge	.L13
  61:.\main.c      ****    }
  62:.\main.c      ****       
  63:.\main.c      ****    return floor_and_convert(y_mavg);
 388              		.loc 1 63 0 is_stmt 1
 389 00dc 064B     		ldr	r3, .L15+4
 390 00de 5C68     		ldr	r4, [r3, #4]
 391 00e0 1B68     		ldr	r3, [r3]
 392 00e2 181C     		mov	r0, r3
 393 00e4 211C     		mov	r1, r4
 394 00e6 FFF7FEFF 		bl	floor_and_convert
 395 00ea 031C     		mov	r3, r0
  64:.\main.c      **** }
 396              		.loc 1 64 0
 397 00ec 181C     		mov	r0, r3
 398 00ee BD46     		mov	sp, r7
 399 00f0 03B0     		add	sp, sp, #12
 400              		@ sp needed
 401 00f2 90BD     		pop	{r4, r7, pc}
 402              	.L16:
 403              		.align	2
 404              	.L15:
 405 00f4 00000000 		.word	x_mavg
 406 00f8 00000000 		.word	y_mavg
 407 00fc 00000000 		.word	i
 408 0100 00000000 		.word	b_mavg
 409              		.cfi_endproc
 410              	.LFE38:
 411              		.size	mavg_filter, .-mavg_filter
 412              		.section	.text.mavg_filter2,"ax",%progbits
 413              		.align	2
 414              		.global	mavg_filter2
 415              		.code	16
 416              		.thumb_func
 417              		.type	mavg_filter2, %function
 418              	mavg_filter2:
 419              	.LFB39:
  65:.\main.c      **** 
  66:.\main.c      **** 
  67:.\main.c      **** /***********************************Moving average filter 2***********************************/
  68:.\main.c      **** signed int mavg_filter2(signed int data)
  69:.\main.c      **** {
 420              		.loc 1 69 0
 421              		.cfi_startproc
ARM GAS  C:\Users\LINETT~1\AppData\Local\Temp\ccKEYg1q.s 			page 10


 422 0000 90B5     		push	{r4, r7, lr}
 423              		.cfi_def_cfa_offset 12
 424              		.cfi_offset 4, -12
 425              		.cfi_offset 7, -8
 426              		.cfi_offset 14, -4
 427 0002 83B0     		sub	sp, sp, #12
 428              		.cfi_def_cfa_offset 24
 429 0004 00AF     		add	r7, sp, #0
 430              		.cfi_def_cfa_register 7
 431 0006 7860     		str	r0, [r7, #4]
  70:.\main.c      ****    x2_mavg[0] =  (double) data;      // Read received sample and perform type casts
 432              		.loc 1 70 0
 433 0008 7868     		ldr	r0, [r7, #4]
 434 000a FFF7FEFF 		bl	__aeabi_i2d
 435 000e 031C     		mov	r3, r0
 436 0010 0C1C     		mov	r4, r1
 437 0012 384A     		ldr	r2, .L23
 438 0014 1360     		str	r3, [r2]
 439 0016 5460     		str	r4, [r2, #4]
  71:.\main.c      ****    
  72:.\main.c      ****    y2_mavg = 0;
 440              		.loc 1 72 0
 441 0018 374A     		ldr	r2, .L23+4
 442 001a 0023     		mov	r3, #0
 443 001c 0024     		mov	r4, #0
 444 001e 1360     		str	r3, [r2]
 445 0020 5460     		str	r4, [r2, #4]
  73:.\main.c      ****    for(i = 0;i <= FILTER_LENGTH_mavg2;i++)           // Run FIR filter for each received sample
 446              		.loc 1 73 0
 447 0022 364B     		ldr	r3, .L23+8
 448 0024 0022     		mov	r2, #0
 449 0026 1A80     		strh	r2, [r3]
 450 0028 30E0     		b	.L18
 451              	.L19:
  74:.\main.c      ****    {
  75:.\main.c      ****       y2_mavg += b2_mavg[i]*x2_mavg[i];
 452              		.loc 1 75 0 discriminator 3
 453 002a 344B     		ldr	r3, .L23+8
 454 002c 1B88     		ldrh	r3, [r3]
 455 002e 1BB2     		sxth	r3, r3
 456 0030 334A     		ldr	r2, .L23+12
 457 0032 DB00     		lsl	r3, r3, #3
 458 0034 D318     		add	r3, r2, r3
 459 0036 1968     		ldr	r1, [r3]
 460 0038 5A68     		ldr	r2, [r3, #4]
 461 003a 304B     		ldr	r3, .L23+8
 462 003c 1B88     		ldrh	r3, [r3]
 463 003e 1BB2     		sxth	r3, r3
 464 0040 2C48     		ldr	r0, .L23
 465 0042 DB00     		lsl	r3, r3, #3
 466 0044 C318     		add	r3, r0, r3
 467 0046 5C68     		ldr	r4, [r3, #4]
 468 0048 1B68     		ldr	r3, [r3]
 469 004a 081C     		mov	r0, r1
 470 004c 111C     		mov	r1, r2
 471 004e 1A1C     		mov	r2, r3
 472 0050 231C     		mov	r3, r4
ARM GAS  C:\Users\LINETT~1\AppData\Local\Temp\ccKEYg1q.s 			page 11


 473 0052 FFF7FEFF 		bl	__aeabi_dmul
 474 0056 031C     		mov	r3, r0
 475 0058 0C1C     		mov	r4, r1
 476 005a 191C     		mov	r1, r3
 477 005c 221C     		mov	r2, r4
 478 005e 264B     		ldr	r3, .L23+4
 479 0060 5C68     		ldr	r4, [r3, #4]
 480 0062 1B68     		ldr	r3, [r3]
 481 0064 081C     		mov	r0, r1
 482 0066 111C     		mov	r1, r2
 483 0068 1A1C     		mov	r2, r3
 484 006a 231C     		mov	r3, r4
 485 006c FFF7FEFF 		bl	__aeabi_dadd
 486 0070 031C     		mov	r3, r0
 487 0072 0C1C     		mov	r4, r1
 488 0074 204A     		ldr	r2, .L23+4
 489 0076 1360     		str	r3, [r2]
 490 0078 5460     		str	r4, [r2, #4]
  73:.\main.c      ****    for(i = 0;i <= FILTER_LENGTH_mavg2;i++)           // Run FIR filter for each received sample
 491              		.loc 1 73 0 discriminator 3
 492 007a 204B     		ldr	r3, .L23+8
 493 007c 1B88     		ldrh	r3, [r3]
 494 007e 9BB2     		uxth	r3, r3
 495 0080 9BB2     		uxth	r3, r3
 496 0082 0133     		add	r3, r3, #1
 497 0084 9BB2     		uxth	r3, r3
 498 0086 9AB2     		uxth	r2, r3
 499 0088 1C4B     		ldr	r3, .L23+8
 500 008a 1A80     		strh	r2, [r3]
 501              	.L18:
  73:.\main.c      ****    for(i = 0;i <= FILTER_LENGTH_mavg2;i++)           // Run FIR filter for each received sample
 502              		.loc 1 73 0 is_stmt 0 discriminator 1
 503 008c 1B4B     		ldr	r3, .L23+8
 504 008e 1B88     		ldrh	r3, [r3]
 505 0090 1BB2     		sxth	r3, r3
 506 0092 092B     		cmp	r3, #9
 507 0094 C9DD     		ble	.L19
  76:.\main.c      ****    } 
  77:.\main.c      ****    
  78:.\main.c      ****    for(i = FILTER_LENGTH_mavg2-1;i >= 0;i--)         // Roll x array in order to hold old sample in
 508              		.loc 1 78 0 is_stmt 1
 509 0096 194B     		ldr	r3, .L23+8
 510 0098 0822     		mov	r2, #8
 511 009a 1A80     		strh	r2, [r3]
 512 009c 19E0     		b	.L20
 513              	.L21:
  79:.\main.c      ****    {
  80:.\main.c      ****       x2_mavg[i+1] = x2_mavg[i];
 514              		.loc 1 80 0 discriminator 3
 515 009e 174B     		ldr	r3, .L23+8
 516 00a0 1B88     		ldrh	r3, [r3]
 517 00a2 1BB2     		sxth	r3, r3
 518 00a4 5A1C     		add	r2, r3, #1
 519 00a6 154B     		ldr	r3, .L23+8
 520 00a8 1B88     		ldrh	r3, [r3]
 521 00aa 1BB2     		sxth	r3, r3
 522 00ac 1149     		ldr	r1, .L23
ARM GAS  C:\Users\LINETT~1\AppData\Local\Temp\ccKEYg1q.s 			page 12


 523 00ae DB00     		lsl	r3, r3, #3
 524 00b0 CB18     		add	r3, r1, r3
 525 00b2 5C68     		ldr	r4, [r3, #4]
 526 00b4 1B68     		ldr	r3, [r3]
 527 00b6 0F49     		ldr	r1, .L23
 528 00b8 D200     		lsl	r2, r2, #3
 529 00ba 8A18     		add	r2, r1, r2
 530 00bc 1360     		str	r3, [r2]
 531 00be 5460     		str	r4, [r2, #4]
  78:.\main.c      ****    {
 532              		.loc 1 78 0 discriminator 3
 533 00c0 0E4B     		ldr	r3, .L23+8
 534 00c2 1B88     		ldrh	r3, [r3]
 535 00c4 9BB2     		uxth	r3, r3
 536 00c6 9BB2     		uxth	r3, r3
 537 00c8 013B     		sub	r3, r3, #1
 538 00ca 9BB2     		uxth	r3, r3
 539 00cc 9AB2     		uxth	r2, r3
 540 00ce 0B4B     		ldr	r3, .L23+8
 541 00d0 1A80     		strh	r2, [r3]
 542              	.L20:
  78:.\main.c      ****    {
 543              		.loc 1 78 0 is_stmt 0 discriminator 1
 544 00d2 0A4B     		ldr	r3, .L23+8
 545 00d4 1B88     		ldrh	r3, [r3]
 546 00d6 1BB2     		sxth	r3, r3
 547 00d8 002B     		cmp	r3, #0
 548 00da E0DA     		bge	.L21
  81:.\main.c      ****    }
  82:.\main.c      ****       
  83:.\main.c      ****    return floor_and_convert(y2_mavg);
 549              		.loc 1 83 0 is_stmt 1
 550 00dc 064B     		ldr	r3, .L23+4
 551 00de 5C68     		ldr	r4, [r3, #4]
 552 00e0 1B68     		ldr	r3, [r3]
 553 00e2 181C     		mov	r0, r3
 554 00e4 211C     		mov	r1, r4
 555 00e6 FFF7FEFF 		bl	floor_and_convert
 556 00ea 031C     		mov	r3, r0
  84:.\main.c      **** }
 557              		.loc 1 84 0
 558 00ec 181C     		mov	r0, r3
 559 00ee BD46     		mov	sp, r7
 560 00f0 03B0     		add	sp, sp, #12
 561              		@ sp needed
 562 00f2 90BD     		pop	{r4, r7, pc}
 563              	.L24:
 564              		.align	2
 565              	.L23:
 566 00f4 00000000 		.word	x2_mavg
 567 00f8 00000000 		.word	y2_mavg
 568 00fc 00000000 		.word	i
 569 0100 00000000 		.word	b2_mavg
 570              		.cfi_endproc
 571              	.LFE39:
 572              		.size	mavg_filter2, .-mavg_filter2
 573              		.section	.text.low_pass_filter,"ax",%progbits
ARM GAS  C:\Users\LINETT~1\AppData\Local\Temp\ccKEYg1q.s 			page 13


 574              		.align	2
 575              		.global	low_pass_filter
 576              		.code	16
 577              		.thumb_func
 578              		.type	low_pass_filter, %function
 579              	low_pass_filter:
 580              	.LFB40:
  85:.\main.c      **** 
  86:.\main.c      **** /***********************************Lavpas filter***********************************/
  87:.\main.c      **** 
  88:.\main.c      **** int low_pass_filter(int data)
  89:.\main.c      **** {
 581              		.loc 1 89 0
 582              		.cfi_startproc
 583 0000 B0B5     		push	{r4, r5, r7, lr}
 584              		.cfi_def_cfa_offset 16
 585              		.cfi_offset 4, -16
 586              		.cfi_offset 5, -12
 587              		.cfi_offset 7, -8
 588              		.cfi_offset 14, -4
 589 0002 84B0     		sub	sp, sp, #16
 590              		.cfi_def_cfa_offset 32
 591 0004 00AF     		add	r7, sp, #0
 592              		.cfi_def_cfa_register 7
 593 0006 7860     		str	r0, [r7, #4]
  90:.\main.c      ****    int i;
  91:.\main.c      ****    x_low[0] =  (double) data;
 594              		.loc 1 91 0
 595 0008 7868     		ldr	r0, [r7, #4]
 596 000a FFF7FEFF 		bl	__aeabi_i2d
 597 000e 031C     		mov	r3, r0
 598 0010 0C1C     		mov	r4, r1
 599 0012 404A     		ldr	r2, .L33
 600 0014 1360     		str	r3, [r2]
 601 0016 5460     		str	r4, [r2, #4]
  92:.\main.c      ****    
  93:.\main.c      ****    y_low[0] = 0;
 602              		.loc 1 93 0
 603 0018 3F4A     		ldr	r2, .L33+4
 604 001a 0023     		mov	r3, #0
 605 001c 0024     		mov	r4, #0
 606 001e 1360     		str	r3, [r2]
 607 0020 5460     		str	r4, [r2, #4]
  94:.\main.c      ****   
  95:.\main.c      ****    for(i = 0;i <= FILTER_LENGTH_low;i++)                 // Run IIR filter for each received sample
 608              		.loc 1 95 0
 609 0022 0023     		mov	r3, #0
 610 0024 FB60     		str	r3, [r7, #12]
 611 0026 1EE0     		b	.L26
 612              	.L27:
  96:.\main.c      ****    {
  97:.\main.c      ****       y_low[0] += b_low[i]*x_low[i];
 613              		.loc 1 97 0 discriminator 3
 614 0028 3B4B     		ldr	r3, .L33+4
 615 002a 1C68     		ldr	r4, [r3]
 616 002c 5D68     		ldr	r5, [r3, #4]
 617 002e 3B4A     		ldr	r2, .L33+8
ARM GAS  C:\Users\LINETT~1\AppData\Local\Temp\ccKEYg1q.s 			page 14


 618 0030 FB68     		ldr	r3, [r7, #12]
 619 0032 DB00     		lsl	r3, r3, #3
 620 0034 D318     		add	r3, r2, r3
 621 0036 1868     		ldr	r0, [r3]
 622 0038 5968     		ldr	r1, [r3, #4]
 623 003a 364A     		ldr	r2, .L33
 624 003c FB68     		ldr	r3, [r7, #12]
 625 003e DB00     		lsl	r3, r3, #3
 626 0040 D318     		add	r3, r2, r3
 627 0042 1A68     		ldr	r2, [r3]
 628 0044 5B68     		ldr	r3, [r3, #4]
 629 0046 FFF7FEFF 		bl	__aeabi_dmul
 630 004a 021C     		mov	r2, r0
 631 004c 0B1C     		mov	r3, r1
 632 004e 201C     		mov	r0, r4
 633 0050 291C     		mov	r1, r5
 634 0052 FFF7FEFF 		bl	__aeabi_dadd
 635 0056 031C     		mov	r3, r0
 636 0058 0C1C     		mov	r4, r1
 637 005a 2F4A     		ldr	r2, .L33+4
 638 005c 1360     		str	r3, [r2]
 639 005e 5460     		str	r4, [r2, #4]
  95:.\main.c      ****    {
 640              		.loc 1 95 0 discriminator 3
 641 0060 FB68     		ldr	r3, [r7, #12]
 642 0062 0133     		add	r3, r3, #1
 643 0064 FB60     		str	r3, [r7, #12]
 644              	.L26:
  95:.\main.c      ****    {
 645              		.loc 1 95 0 is_stmt 0 discriminator 1
 646 0066 FB68     		ldr	r3, [r7, #12]
 647 0068 022B     		cmp	r3, #2
 648 006a DDDD     		ble	.L27
  98:.\main.c      ****    } 
  99:.\main.c      ****    
 100:.\main.c      ****    for(i =1;i <= FILTER_LENGTH_low;i++)               // Roll x array in order to hold old sample i
 649              		.loc 1 100 0 is_stmt 1
 650 006c 0123     		mov	r3, #1
 651 006e FB60     		str	r3, [r7, #12]
 652 0070 1EE0     		b	.L28
 653              	.L29:
 101:.\main.c      ****    {
 102:.\main.c      ****       y_low[0] -= a_low[i]*y_low[i];
 654              		.loc 1 102 0 discriminator 3
 655 0072 294B     		ldr	r3, .L33+4
 656 0074 1C68     		ldr	r4, [r3]
 657 0076 5D68     		ldr	r5, [r3, #4]
 658 0078 294A     		ldr	r2, .L33+12
 659 007a FB68     		ldr	r3, [r7, #12]
 660 007c DB00     		lsl	r3, r3, #3
 661 007e D318     		add	r3, r2, r3
 662 0080 1868     		ldr	r0, [r3]
 663 0082 5968     		ldr	r1, [r3, #4]
 664 0084 244A     		ldr	r2, .L33+4
 665 0086 FB68     		ldr	r3, [r7, #12]
 666 0088 DB00     		lsl	r3, r3, #3
 667 008a D318     		add	r3, r2, r3
ARM GAS  C:\Users\LINETT~1\AppData\Local\Temp\ccKEYg1q.s 			page 15


 668 008c 1A68     		ldr	r2, [r3]
 669 008e 5B68     		ldr	r3, [r3, #4]
 670 0090 FFF7FEFF 		bl	__aeabi_dmul
 671 0094 021C     		mov	r2, r0
 672 0096 0B1C     		mov	r3, r1
 673 0098 201C     		mov	r0, r4
 674 009a 291C     		mov	r1, r5
 675 009c FFF7FEFF 		bl	__aeabi_dsub
 676 00a0 031C     		mov	r3, r0
 677 00a2 0C1C     		mov	r4, r1
 678 00a4 1C4A     		ldr	r2, .L33+4
 679 00a6 1360     		str	r3, [r2]
 680 00a8 5460     		str	r4, [r2, #4]
 100:.\main.c      ****    {
 681              		.loc 1 100 0 discriminator 3
 682 00aa FB68     		ldr	r3, [r7, #12]
 683 00ac 0133     		add	r3, r3, #1
 684 00ae FB60     		str	r3, [r7, #12]
 685              	.L28:
 100:.\main.c      ****    {
 686              		.loc 1 100 0 is_stmt 0 discriminator 1
 687 00b0 FB68     		ldr	r3, [r7, #12]
 688 00b2 022B     		cmp	r3, #2
 689 00b4 DDDD     		ble	.L29
 103:.\main.c      ****    }
 104:.\main.c      **** 
 105:.\main.c      ****    for(i = FILTER_LENGTH_low-1;i >= 0;i--)
 690              		.loc 1 105 0 is_stmt 1
 691 00b6 0123     		mov	r3, #1
 692 00b8 FB60     		str	r3, [r7, #12]
 693 00ba 1CE0     		b	.L30
 694              	.L31:
 106:.\main.c      ****     {
 107:.\main.c      ****        x_low[i+1]=x_low[i];
 695              		.loc 1 107 0 discriminator 3
 696 00bc FB68     		ldr	r3, [r7, #12]
 697 00be 5A1C     		add	r2, r3, #1
 698 00c0 1449     		ldr	r1, .L33
 699 00c2 FB68     		ldr	r3, [r7, #12]
 700 00c4 DB00     		lsl	r3, r3, #3
 701 00c6 CB18     		add	r3, r1, r3
 702 00c8 5C68     		ldr	r4, [r3, #4]
 703 00ca 1B68     		ldr	r3, [r3]
 704 00cc 1149     		ldr	r1, .L33
 705 00ce D200     		lsl	r2, r2, #3
 706 00d0 8A18     		add	r2, r1, r2
 707 00d2 1360     		str	r3, [r2]
 708 00d4 5460     		str	r4, [r2, #4]
 108:.\main.c      ****        y_low[i+1]=y_low[i];
 709              		.loc 1 108 0 discriminator 3
 710 00d6 FB68     		ldr	r3, [r7, #12]
 711 00d8 5A1C     		add	r2, r3, #1
 712 00da 0F49     		ldr	r1, .L33+4
 713 00dc FB68     		ldr	r3, [r7, #12]
 714 00de DB00     		lsl	r3, r3, #3
 715 00e0 CB18     		add	r3, r1, r3
 716 00e2 5C68     		ldr	r4, [r3, #4]
ARM GAS  C:\Users\LINETT~1\AppData\Local\Temp\ccKEYg1q.s 			page 16


 717 00e4 1B68     		ldr	r3, [r3]
 718 00e6 0C49     		ldr	r1, .L33+4
 719 00e8 D200     		lsl	r2, r2, #3
 720 00ea 8A18     		add	r2, r1, r2
 721 00ec 1360     		str	r3, [r2]
 722 00ee 5460     		str	r4, [r2, #4]
 105:.\main.c      ****     {
 723              		.loc 1 105 0 discriminator 3
 724 00f0 FB68     		ldr	r3, [r7, #12]
 725 00f2 013B     		sub	r3, r3, #1
 726 00f4 FB60     		str	r3, [r7, #12]
 727              	.L30:
 105:.\main.c      ****     {
 728              		.loc 1 105 0 is_stmt 0 discriminator 1
 729 00f6 FB68     		ldr	r3, [r7, #12]
 730 00f8 002B     		cmp	r3, #0
 731 00fa DFDA     		bge	.L31
 109:.\main.c      ****     }
 110:.\main.c      **** 
 111:.\main.c      ****     return floor_and_convert(y_low[0]);
 732              		.loc 1 111 0 is_stmt 1
 733 00fc 064B     		ldr	r3, .L33+4
 734 00fe 5C68     		ldr	r4, [r3, #4]
 735 0100 1B68     		ldr	r3, [r3]
 736 0102 181C     		mov	r0, r3
 737 0104 211C     		mov	r1, r4
 738 0106 FFF7FEFF 		bl	floor_and_convert
 739 010a 031C     		mov	r3, r0
 112:.\main.c      **** }
 740              		.loc 1 112 0
 741 010c 181C     		mov	r0, r3
 742 010e BD46     		mov	sp, r7
 743 0110 04B0     		add	sp, sp, #16
 744              		@ sp needed
 745 0112 B0BD     		pop	{r4, r5, r7, pc}
 746              	.L34:
 747              		.align	2
 748              	.L33:
 749 0114 00000000 		.word	x_low
 750 0118 00000000 		.word	y_low
 751 011c 00000000 		.word	b_low
 752 0120 00000000 		.word	a_low
 753              		.cfi_endproc
 754              	.LFE40:
 755              		.size	low_pass_filter, .-low_pass_filter
 756              		.section	.text.ADC_interrupt,"ax",%progbits
 757              		.align	2
 758              		.global	ADC_interrupt
 759              		.code	16
 760              		.thumb_func
 761              		.type	ADC_interrupt, %function
 762              	ADC_interrupt:
 763              	.LFB41:
 113:.\main.c      **** 
 114:.\main.c      **** /***********************************Main***********************************/
 115:.\main.c      **** 
 116:.\main.c      **** CY_ISR(ADC_interrupt)
ARM GAS  C:\Users\LINETT~1\AppData\Local\Temp\ccKEYg1q.s 			page 17


 117:.\main.c      **** {
 764              		.loc 1 117 0
 765              		.cfi_startproc
 766 0000 80B5     		push	{r7, lr}
 767              		.cfi_def_cfa_offset 8
 768              		.cfi_offset 7, -8
 769              		.cfi_offset 14, -4
 770 0002 82B0     		sub	sp, sp, #8
 771              		.cfi_def_cfa_offset 16
 772 0004 00AF     		add	r7, sp, #0
 773              		.cfi_def_cfa_register 7
 118:.\main.c      ****     int i;
 119:.\main.c      ****     for(i=0; i<num_of_channels;i++)
 774              		.loc 1 119 0
 775 0006 0023     		mov	r3, #0
 776 0008 7B60     		str	r3, [r7, #4]
 777 000a 11E0     		b	.L36
 778              	.L37:
 120:.\main.c      ****     {
 121:.\main.c      ****         result[i] = ADC_GetResult16(i)-1024;
 779              		.loc 1 121 0 discriminator 3
 780 000c 7B68     		ldr	r3, [r7, #4]
 781 000e 181C     		mov	r0, r3
 782 0010 FFF7FEFF 		bl	ADC_GetResult16
 783 0014 031C     		mov	r3, r0
 784 0016 9BB2     		uxth	r3, r3
 785 0018 0A4A     		ldr	r2, .L38
 786 001a 9446     		mov	ip, r2
 787 001c 6344     		add	r3, r3, ip
 788 001e 9BB2     		uxth	r3, r3
 789 0020 99B2     		uxth	r1, r3
 790 0022 094B     		ldr	r3, .L38+4
 791 0024 7A68     		ldr	r2, [r7, #4]
 792 0026 5200     		lsl	r2, r2, #1
 793 0028 D152     		strh	r1, [r2, r3]
 119:.\main.c      ****     {
 794              		.loc 1 119 0 discriminator 3
 795 002a 7B68     		ldr	r3, [r7, #4]
 796 002c 0133     		add	r3, r3, #1
 797 002e 7B60     		str	r3, [r7, #4]
 798              	.L36:
 119:.\main.c      ****     {
 799              		.loc 1 119 0 is_stmt 0 discriminator 1
 800 0030 7B68     		ldr	r3, [r7, #4]
 801 0032 002B     		cmp	r3, #0
 802 0034 EADD     		ble	.L37
 122:.\main.c      ****     }
 123:.\main.c      ****     data_ready = TRUE;
 803              		.loc 1 123 0 is_stmt 1
 804 0036 054B     		ldr	r3, .L38+8
 805 0038 0122     		mov	r2, #1
 806 003a 1A70     		strb	r2, [r3]
 124:.\main.c      **** }
 807              		.loc 1 124 0
 808 003c BD46     		mov	sp, r7
 809 003e 02B0     		add	sp, sp, #8
 810              		@ sp needed
ARM GAS  C:\Users\LINETT~1\AppData\Local\Temp\ccKEYg1q.s 			page 18


 811 0040 80BD     		pop	{r7, pc}
 812              	.L39:
 813 0042 C046     		.align	2
 814              	.L38:
 815 0044 00FCFFFF 		.word	-1024
 816 0048 00000000 		.word	result
 817 004c 00000000 		.word	data_ready
 818              		.cfi_endproc
 819              	.LFE41:
 820              		.size	ADC_interrupt, .-ADC_interrupt
 821              		.section	.text.main,"ax",%progbits
 822              		.align	2
 823              		.global	main
 824              		.code	16
 825              		.thumb_func
 826              		.type	main, %function
 827              	main:
 828              	.LFB42:
 125:.\main.c      **** 
 126:.\main.c      **** int main()
 127:.\main.c      **** {
 829              		.loc 1 127 0
 830              		.cfi_startproc
 831 0000 80B5     		push	{r7, lr}
 832              		.cfi_def_cfa_offset 8
 833              		.cfi_offset 7, -8
 834              		.cfi_offset 14, -4
 835 0002 82B0     		sub	sp, sp, #8
 836              		.cfi_def_cfa_offset 16
 837 0004 00AF     		add	r7, sp, #0
 838              		.cfi_def_cfa_register 7
 128:.\main.c      ****     uint16 i;
 129:.\main.c      ****    
 130:.\main.c      ****    
 131:.\main.c      ****     ADC_ISR_StartEx(ADC_interrupt);
 839              		.loc 1 131 0
 840 0006 3F4B     		ldr	r3, .L48
 841 0008 181C     		mov	r0, r3
 842 000a FFF7FEFF 		bl	ADC_ISR_StartEx
 132:.\main.c      ****     UART_Start();                       /* Start SCB (UART mode) operation */
 843              		.loc 1 132 0
 844 000e FFF7FEFF 		bl	UART_Start
 133:.\main.c      ****     CyGlobalIntEnable;
 845              		.loc 1 133 0
 846              	@ 133 ".\main.c" 1
 847 0012 62B6     		CPSIE   i
 848              	@ 0 "" 2
 134:.\main.c      ****     ADC_Start();                        /* Initialize ADC */
 849              		.loc 1 134 0
 850              		.code	16
 851 0014 FFF7FEFF 		bl	ADC_Start
 135:.\main.c      ****     ADC_StartConvert();                 /* Start ADC conversions */
 852              		.loc 1 135 0
 853 0018 FFF7FEFF 		bl	ADC_StartConvert
 136:.\main.c      ****     ADC_IRQ_Enable();                   /* Enable ADC interrupts */    
 854              		.loc 1 136 0
 855 001c FFF7FEFF 		bl	ADC_IRQ_Enable
ARM GAS  C:\Users\LINETT~1\AppData\Local\Temp\ccKEYg1q.s 			page 19


 856              	.L47:
 137:.\main.c      ****     
 138:.\main.c      ****     for (;;)
 139:.\main.c      ****     {      
 140:.\main.c      ****         if(data_ready)
 857              		.loc 1 140 0
 858 0020 394B     		ldr	r3, .L48+4
 859 0022 1B78     		ldrb	r3, [r3]
 860 0024 002B     		cmp	r3, #0
 861 0026 00D1     		bne	.LCB603
 862 0028 6AE0     		b	.L41	@long jump
 863              	.LCB603:
 141:.\main.c      ****         {
 142:.\main.c      ****             for(i=0;i<num_of_channels;i++)
 864              		.loc 1 142 0
 865 002a BB1D     		add	r3, r7, #6
 866 002c 0022     		mov	r2, #0
 867 002e 1A80     		strh	r2, [r3]
 868 0030 5FE0     		b	.L42
 869              	.L46:
 143:.\main.c      ****             {
 144:.\main.c      ****                 if (i==0)
 870              		.loc 1 144 0
 871 0032 BB1D     		add	r3, r7, #6
 872 0034 1B88     		ldrh	r3, [r3]
 873 0036 002B     		cmp	r3, #0
 874 0038 14D1     		bne	.L43
 145:.\main.c      ****                 {
 146:.\main.c      **** //                    UART_UartPutChar((mavg_filter(result[i])));
 147:.\main.c      **** //                    UART_UartPutChar((mavg_filter(result[i]>>8)));
 148:.\main.c      ****                     UART_UartPutChar(result[i]);
 875              		.loc 1 148 0
 876 003a BB1D     		add	r3, r7, #6
 877 003c 1A88     		ldrh	r2, [r3]
 878 003e 334B     		ldr	r3, .L48+8
 879 0040 5200     		lsl	r2, r2, #1
 880 0042 D35A     		ldrh	r3, [r2, r3]
 881 0044 1BB2     		sxth	r3, r3
 882 0046 181C     		mov	r0, r3
 883 0048 FFF7FEFF 		bl	UART_SpiUartWriteTxData
 149:.\main.c      ****                     UART_UartPutChar(result[i]>>8);
 884              		.loc 1 149 0
 885 004c BB1D     		add	r3, r7, #6
 886 004e 1A88     		ldrh	r2, [r3]
 887 0050 2E4B     		ldr	r3, .L48+8
 888 0052 5200     		lsl	r2, r2, #1
 889 0054 D35A     		ldrh	r3, [r2, r3]
 890 0056 1BB2     		sxth	r3, r3
 891 0058 1B12     		asr	r3, r3, #8
 892 005a 9BB2     		uxth	r3, r3
 893 005c 1BB2     		sxth	r3, r3
 894 005e 181C     		mov	r0, r3
 895 0060 FFF7FEFF 		bl	UART_SpiUartWriteTxData
 896              	.L43:
 150:.\main.c      ****                 }
 151:.\main.c      ****                 
 152:.\main.c      ****                 if (i==1)
ARM GAS  C:\Users\LINETT~1\AppData\Local\Temp\ccKEYg1q.s 			page 20


 897              		.loc 1 152 0
 898 0064 BB1D     		add	r3, r7, #6
 899 0066 1B88     		ldrh	r3, [r3]
 900 0068 012B     		cmp	r3, #1
 901 006a 1CD1     		bne	.L44
 153:.\main.c      ****                 {
 154:.\main.c      ****                     UART_UartPutChar((mavg_filter2(result[i])));
 902              		.loc 1 154 0
 903 006c BB1D     		add	r3, r7, #6
 904 006e 1A88     		ldrh	r2, [r3]
 905 0070 264B     		ldr	r3, .L48+8
 906 0072 5200     		lsl	r2, r2, #1
 907 0074 D35A     		ldrh	r3, [r2, r3]
 908 0076 1BB2     		sxth	r3, r3
 909 0078 181C     		mov	r0, r3
 910 007a FFF7FEFF 		bl	mavg_filter2
 911 007e 031C     		mov	r3, r0
 912 0080 181C     		mov	r0, r3
 913 0082 FFF7FEFF 		bl	UART_SpiUartWriteTxData
 155:.\main.c      ****                     UART_UartPutChar((mavg_filter2(result[i]>>8)));
 914              		.loc 1 155 0
 915 0086 BB1D     		add	r3, r7, #6
 916 0088 1A88     		ldrh	r2, [r3]
 917 008a 204B     		ldr	r3, .L48+8
 918 008c 5200     		lsl	r2, r2, #1
 919 008e D35A     		ldrh	r3, [r2, r3]
 920 0090 1BB2     		sxth	r3, r3
 921 0092 1B12     		asr	r3, r3, #8
 922 0094 9BB2     		uxth	r3, r3
 923 0096 1BB2     		sxth	r3, r3
 924 0098 181C     		mov	r0, r3
 925 009a FFF7FEFF 		bl	mavg_filter2
 926 009e 031C     		mov	r3, r0
 927 00a0 181C     		mov	r0, r3
 928 00a2 FFF7FEFF 		bl	UART_SpiUartWriteTxData
 929              	.L44:
 156:.\main.c      ****                     //UART_UartPutChar(result[i]);
 157:.\main.c      ****                     //UART_UartPutChar(result[i]>>8);
 158:.\main.c      ****                 }
 159:.\main.c      ****                 
 160:.\main.c      ****                 if (i==2)
 930              		.loc 1 160 0
 931 00a6 BB1D     		add	r3, r7, #6
 932 00a8 1B88     		ldrh	r3, [r3]
 933 00aa 022B     		cmp	r3, #2
 934 00ac 1CD1     		bne	.L45
 161:.\main.c      ****                 {
 162:.\main.c      ****                     UART_UartPutChar(low_pass_filter(result[i]));
 935              		.loc 1 162 0
 936 00ae BB1D     		add	r3, r7, #6
 937 00b0 1A88     		ldrh	r2, [r3]
 938 00b2 164B     		ldr	r3, .L48+8
 939 00b4 5200     		lsl	r2, r2, #1
 940 00b6 D35A     		ldrh	r3, [r2, r3]
 941 00b8 1BB2     		sxth	r3, r3
 942 00ba 181C     		mov	r0, r3
 943 00bc FFF7FEFF 		bl	low_pass_filter
ARM GAS  C:\Users\LINETT~1\AppData\Local\Temp\ccKEYg1q.s 			page 21


 944 00c0 031C     		mov	r3, r0
 945 00c2 181C     		mov	r0, r3
 946 00c4 FFF7FEFF 		bl	UART_SpiUartWriteTxData
 163:.\main.c      ****                     UART_UartPutChar(low_pass_filter(result[i]>>8));
 947              		.loc 1 163 0
 948 00c8 BB1D     		add	r3, r7, #6
 949 00ca 1A88     		ldrh	r2, [r3]
 950 00cc 0F4B     		ldr	r3, .L48+8
 951 00ce 5200     		lsl	r2, r2, #1
 952 00d0 D35A     		ldrh	r3, [r2, r3]
 953 00d2 1BB2     		sxth	r3, r3
 954 00d4 1B12     		asr	r3, r3, #8
 955 00d6 9BB2     		uxth	r3, r3
 956 00d8 1BB2     		sxth	r3, r3
 957 00da 181C     		mov	r0, r3
 958 00dc FFF7FEFF 		bl	low_pass_filter
 959 00e0 031C     		mov	r3, r0
 960 00e2 181C     		mov	r0, r3
 961 00e4 FFF7FEFF 		bl	UART_SpiUartWriteTxData
 962              	.L45:
 142:.\main.c      ****             {
 963              		.loc 1 142 0 discriminator 2
 964 00e8 BB1D     		add	r3, r7, #6
 965 00ea 1A88     		ldrh	r2, [r3]
 966 00ec BB1D     		add	r3, r7, #6
 967 00ee 0132     		add	r2, r2, #1
 968 00f0 1A80     		strh	r2, [r3]
 969              	.L42:
 142:.\main.c      ****             {
 970              		.loc 1 142 0 is_stmt 0 discriminator 1
 971 00f2 BB1D     		add	r3, r7, #6
 972 00f4 1B88     		ldrh	r3, [r3]
 973 00f6 002B     		cmp	r3, #0
 974 00f8 9BD0     		beq	.L46
 164:.\main.c      ****                 }
 165:.\main.c      ****             }
 166:.\main.c      ****             data_ready = FALSE;
 975              		.loc 1 166 0 is_stmt 1
 976 00fa 034B     		ldr	r3, .L48+4
 977 00fc 0022     		mov	r2, #0
 978 00fe 1A70     		strb	r2, [r3]
 979              	.L41:
 167:.\main.c      ****         }
 168:.\main.c      **** 
 169:.\main.c      ****     }
 980              		.loc 1 169 0
 981 0100 8EE7     		b	.L47
 982              	.L49:
 983 0102 C046     		.align	2
 984              	.L48:
 985 0104 00000000 		.word	ADC_interrupt
 986 0108 00000000 		.word	data_ready
 987 010c 00000000 		.word	result
 988              		.cfi_endproc
 989              	.LFE42:
 990              		.size	main, .-main
 991              		.text
ARM GAS  C:\Users\LINETT~1\AppData\Local\Temp\ccKEYg1q.s 			page 22


 992              	.Letext0:
 993              		.file 2 "Generated_Source\\PSoC4/cytypes.h"