ARM GAS  C:\Users\passw\AppData\Local\Temp\ccNN2XIz.s 			page 1


   1              		.cpu cortex-m0
   2              		.fpu softvfp
   3              		.eabi_attribute 20, 1
   4              		.eabi_attribute 21, 1
   5              		.eabi_attribute 23, 3
   6              		.eabi_attribute 24, 1
   7              		.eabi_attribute 25, 1
   8              		.eabi_attribute 26, 1
   9              		.eabi_attribute 30, 1
  10              		.eabi_attribute 34, 0
  11              		.eabi_attribute 18, 4
  12              		.code	16
  13              		.file	"main.c"
  14              		.text
  15              	.Ltext0:
  16              		.cfi_sections	.debug_frame
  17              		.section	.text.RX_interrupt,"ax",%progbits
  18              		.align	2
  19              		.global	RX_interrupt
  20              		.code	16
  21              		.thumb_func
  22              		.type	RX_interrupt, %function
  23              	RX_interrupt:
  24              	.LFB36:
  25              		.file 1 ".\\main.c"
   1:.\main.c      **** /* ========================================
   2:.\main.c      ****  *
   3:.\main.c      ****  * UART echo with interrupt
   4:.\main.c      ****  *
   5:.\main.c      ****  * ========================================
   6:.\main.c      **** */
   7:.\main.c      **** #include <project.h>
   8:.\main.c      **** 
   9:.\main.c      **** CY_ISR(RX_interrupt)
  10:.\main.c      **** {
  26              		.loc 1 10 0
  27              		.cfi_startproc
  28 0000 10B5     		push	{r4, lr}
  29              		.cfi_def_cfa_offset 8
  30              		.cfi_offset 4, -8
  31              		.cfi_offset 14, -4
  11:.\main.c      ****     uint8 ch = UART_UartGetChar();
  32              		.loc 1 11 0
  33 0002 FFF7FEFF 		bl	UART_UartGetChar
  34              	.LVL0:
  35 0006 041C     		mov	r4, r0
  36              	.LVL1:
  12:.\main.c      ****     UART_ClearRxInterruptSource(UART_GetRxInterruptSource());
  37              		.loc 1 12 0
  38 0008 094B     		ldr	r3, .L2
  39 000a 1A68     		ldr	r2, [r3]
  40 000c 1A60     		str	r2, [r3]
  13:.\main.c      ****     
  14:.\main.c      ****     /* her kan vi kode!!!!!!!!!!!!!!! */
  15:.\main.c      ****     Debug_Write(~Debug_Read());
  41              		.loc 1 15 0
  42 000e FFF7FEFF 		bl	Debug_Read
ARM GAS  C:\Users\passw\AppData\Local\Temp\ccNN2XIz.s 			page 2


  43              	.LVL2:
  44 0012 C343     		mvn	r3, r0
  45 0014 D8B2     		uxtb	r0, r3
  46 0016 FFF7FEFF 		bl	Debug_Write
  47              	.LVL3:
  16:.\main.c      ****     
  17:.\main.c      ****     UART_BLE_UartPutChar(ch);
  48              		.loc 1 17 0
  49 001a FF20     		mov	r0, #255
  50 001c 2040     		and	r0, r4
  51 001e FFF7FEFF 		bl	UART_BLE_SpiUartWriteTxData
  52              	.LVL4:
  18:.\main.c      ****     BLUE_LED_Write(~BLUE_LED_Read());
  53              		.loc 1 18 0
  54 0022 FFF7FEFF 		bl	BLUE_LED_Read
  55              	.LVL5:
  56 0026 C043     		mvn	r0, r0
  57 0028 C0B2     		uxtb	r0, r0
  58 002a FFF7FEFF 		bl	BLUE_LED_Write
  59              	.LVL6:
  19:.\main.c      **** }
  60              		.loc 1 19 0
  61              		@ sp needed
  62              	.LVL7:
  63 002e 10BD     		pop	{r4, pc}
  64              	.L3:
  65              		.align	2
  66              	.L2:
  67 0030 C00F2740 		.word	1076301760
  68              		.cfi_endproc
  69              	.LFE36:
  70              		.size	RX_interrupt, .-RX_interrupt
  71              		.section	.text.BLE_RX_interrupt,"ax",%progbits
  72              		.align	2
  73              		.global	BLE_RX_interrupt
  74              		.code	16
  75              		.thumb_func
  76              		.type	BLE_RX_interrupt, %function
  77              	BLE_RX_interrupt:
  78              	.LFB37:
  20:.\main.c      **** 
  21:.\main.c      **** CY_ISR(BLE_RX_interrupt)
  22:.\main.c      **** {
  79              		.loc 1 22 0
  80              		.cfi_startproc
  81 0000 08B5     		push	{r3, lr}
  82              		.cfi_def_cfa_offset 8
  83              		.cfi_offset 3, -8
  84              		.cfi_offset 14, -4
  23:.\main.c      ****     uint8 ch = UART_BLE_UartGetChar();
  85              		.loc 1 23 0
  86 0002 FFF7FEFF 		bl	UART_BLE_UartGetChar
  87              	.LVL8:
  24:.\main.c      ****     UART_BLE_ClearRxInterruptSource(UART_BLE_GetRxInterruptSource());
  88              		.loc 1 24 0
  89 0006 044B     		ldr	r3, .L5
  90 0008 1A68     		ldr	r2, [r3]
ARM GAS  C:\Users\passw\AppData\Local\Temp\ccNN2XIz.s 			page 3


  91 000a 1A60     		str	r2, [r3]
  25:.\main.c      ****     UART_UartPutChar(ch);
  92              		.loc 1 25 0
  93 000c FF23     		mov	r3, #255
  94 000e 1840     		and	r0, r3
  95              	.LVL9:
  96 0010 FFF7FEFF 		bl	UART_SpiUartWriteTxData
  97              	.LVL10:
  26:.\main.c      **** }
  98              		.loc 1 26 0
  99              		@ sp needed
 100 0014 08BD     		pop	{r3, pc}
 101              	.L6:
 102 0016 C046     		.align	2
 103              	.L5:
 104 0018 C00F2540 		.word	1076170688
 105              		.cfi_endproc
 106              	.LFE37:
 107              		.size	BLE_RX_interrupt, .-BLE_RX_interrupt
 108              		.section	.text.main,"ax",%progbits
 109              		.align	2
 110              		.global	main
 111              		.code	16
 112              		.thumb_func
 113              		.type	main, %function
 114              	main:
 115              	.LFB38:
  27:.\main.c      **** 
  28:.\main.c      **** int main()
  29:.\main.c      **** {
 116              		.loc 1 29 0
 117              		.cfi_startproc
 118 0000 08B5     		push	{r3, lr}
 119              		.cfi_def_cfa_offset 8
 120              		.cfi_offset 3, -8
 121              		.cfi_offset 14, -4
  30:.\main.c      ****     CyGlobalIntEnable;                  /* Enable global interrupts */
 122              		.loc 1 30 0
 123              	@ 30 ".\main.c" 1
 124 0002 62B6     		CPSIE   i
 125              	@ 0 "" 2
  31:.\main.c      ****     UART_RX_ISR_StartEx(RX_interrupt);  /* Set interrupt address */
 126              		.loc 1 31 0
 127              		.code	16
 128 0004 0648     		ldr	r0, .L8
 129 0006 FFF7FEFF 		bl	UART_RX_ISR_StartEx
 130              	.LVL11:
  32:.\main.c      ****     UART_BLE_RX_ISR_StartEx(BLE_RX_interrupt);  /* Set interrupt address */
 131              		.loc 1 32 0
 132 000a 0648     		ldr	r0, .L8+4
 133 000c FFF7FEFF 		bl	UART_BLE_RX_ISR_StartEx
 134              	.LVL12:
  33:.\main.c      ****     UART_Start();                       /* Start UART */
 135              		.loc 1 33 0
 136 0010 FFF7FEFF 		bl	UART_Start
 137              	.LVL13:
  34:.\main.c      ****     UART_BLE_Start();                       /* Start UART */
ARM GAS  C:\Users\passw\AppData\Local\Temp\ccNN2XIz.s 			page 4


 138              		.loc 1 34 0
 139 0014 FFF7FEFF 		bl	UART_BLE_Start
 140              	.LVL14:
  35:.\main.c      ****     CySysPmSleep();                     /* Enter Sleep mode */
 141              		.loc 1 35 0
 142 0018 FFF7FEFF 		bl	CySysPmSleep
 143              	.LVL15:
  36:.\main.c      ****     return 0;
  37:.\main.c      **** }
 144              		.loc 1 37 0
 145 001c 0020     		mov	r0, #0
 146              		@ sp needed
 147 001e 08BD     		pop	{r3, pc}
 148              	.L9:
 149              		.align	2
 150              	.L8:
 151 0020 00000000 		.word	RX_interrupt
 152 0024 00000000 		.word	BLE_RX_interrupt
 153              		.cfi_endproc
 154              	.LFE38:
 155              		.size	main, .-main
 156              		.text
 157              	.Letext0:
 158              		.file 2 "Generated_Source\\PSoC4/cytypes.h"
 159              		.file 3 "Generated_Source\\PSoC4/UART_SPI_UART.h"
 160              		.file 4 "Generated_Source\\PSoC4/Debug.h"
 161              		.file 5 "Generated_Source\\PSoC4/UART_BLE_SPI_UART.h"
 162              		.file 6 "Generated_Source\\PSoC4/BLUE_LED.h"
 163              		.file 7 "Generated_Source\\PSoC4/UART_RX_ISR.h"
 164              		.file 8 "Generated_Source\\PSoC4/UART_BLE_RX_ISR.h"
 165              		.file 9 "Generated_Source\\PSoC4/UART.h"
 166              		.file 10 "Generated_Source\\PSoC4/UART_BLE.h"
 167              		.file 11 "Generated_Source\\PSoC4/cyPm.h"