ARM GAS  C:\Users\LINETT~1\AppData\Local\Temp\ccjEb2EF.s 			page 1


   1              		.cpu cortex-m0
   2              		.fpu softvfp
   3              		.eabi_attribute 20, 1
   4              		.eabi_attribute 21, 1
   5              		.eabi_attribute 23, 3
   6              		.eabi_attribute 24, 1
   7              		.eabi_attribute 25, 1
   8              		.eabi_attribute 26, 1
   9              		.eabi_attribute 30, 1
  10              		.eabi_attribute 34, 0
  11              		.eabi_attribute 18, 4
  12              		.code	16
  13              		.file	"main.c"
  14              		.text
  15              	.Ltext0:
  16              		.cfi_sections	.debug_frame
  17              		.section	.text.BLE_RX_interrupt,"ax",%progbits
  18              		.align	2
  19              		.global	BLE_RX_interrupt
  20              		.code	16
  21              		.thumb_func
  22              		.type	BLE_RX_interrupt, %function
  23              	BLE_RX_interrupt:
  24              	.LFB40:
  25              		.file 1 ".\\main.c"
   1:.\main.c      **** /* ========================================
   2:.\main.c      ****  *
   3:.\main.c      ****  * UART echo with interrupt
   4:.\main.c      ****  *
   5:.\main.c      ****  * ========================================
   6:.\main.c      **** */
   7:.\main.c      **** #include <project.h>
   8:.\main.c      **** #include <stdlib.h>
   9:.\main.c      **** #define LOWBYTE 0                                   // Used to toggle between HIGH byte and LOW byt
  10:.\main.c      **** #define HIGHBYTE 1                                  // Used to toggle between HIGH byte and LOW byt
  11:.\main.c      **** #define FALSE 0
  12:.\main.c      **** #define TRUE 1
  13:.\main.c      **** #define LENGTH 5
  14:.\main.c      **** 
  15:.\main.c      **** #define ARRAY_SIZE 3
  16:.\main.c      **** #define FILTER_LENGTH_mavg 19
  17:.\main.c      **** #define FILTER_LENGTH_low 2
  18:.\main.c      **** 
  19:.\main.c      **** 
  20:.\main.c      **** #define StartMeasuring Measure_When_Low_Write(0);   // Used to start the Timer
  21:.\main.c      **** #define StopMeasuring Measure_When_Low_Write(1);    // Used to stop the Timer and capture the time 
  22:.\main.c      **** 
  23:.\main.c      **** int y[2] = {0,0};
  24:.\main.c      **** //double y = 0;
  25:.\main.c      **** 
  26:.\main.c      **** double x_mavg[FILTER_LENGTH_mavg+1] = {0,0,0,0,0,0,0,0,0,0,0,0,0,0,0,0,0,0,0,0};
  27:.\main.c      **** double y_mavg = 0;
  28:.\main.c      **** double b_mavg[FILTER_LENGTH_mavg+1] = {0.05,0.05,0.05,0.05,0.05,0.05,0.05,0.05,0.05,0.05,0.05,0.05,
  29:.\main.c      **** 
  30:.\main.c      **** double x_low[FILTER_LENGTH_low+1] = {0, 0, 0};
  31:.\main.c      **** double y_low[FILTER_LENGTH_low+1] = {0, 0, 0};
  32:.\main.c      **** double b_low[FILTER_LENGTH_low+1] = {0.0201, 0.0402, 0.0201};
ARM GAS  C:\Users\LINETT~1\AppData\Local\Temp\ccjEb2EF.s 			page 2


  33:.\main.c      **** double a_low[FILTER_LENGTH_low+1] = {1.0000, -1.5610, 0.6414};
  34:.\main.c      **** 
  35:.\main.c      **** 
  36:.\main.c      **** char current_byte = LOWBYTE;                        // Receive LOW byte first as default
  37:.\main.c      **** int16 value_in,value_out[2]={0,0},i=0,j=0,oldest,newest,diff,signed_data,old, low_pass_new, avg_new
  38:.\main.c      **** //int16 data_array[LENGTH] = {0};
  39:.\main.c      **** //uint16 counter = 0, pointer, squared,moving_sum,unsigned_data,avg_new; // Variable for captured t
  40:.\main.c      **** uint16 counter = 0, pointer, unsigned_data;  
  41:.\main.c      **** char FirstCall = TRUE;
  42:.\main.c      **** 
  43:.\main.c      **** signed int floor_and_convert(double y)
  44:.\main.c      **** {
  45:.\main.c      ****    if (y > 0)
  46:.\main.c      ****       return (signed int) (y+0.5);
  47:.\main.c      ****    else
  48:.\main.c      ****       return (signed int) (y-0.5);
  49:.\main.c      **** }
  50:.\main.c      **** 
  51:.\main.c      **** int low_pass_filter(int data)
  52:.\main.c      **** {
  53:.\main.c      ****    int i;
  54:.\main.c      ****    x_low[0] =  (double) data;
  55:.\main.c      ****    
  56:.\main.c      ****    y_low[0] = 0;
  57:.\main.c      ****   
  58:.\main.c      ****    for(i = 0;i <= FILTER_LENGTH_low;i++)                 // Run IIR filter for each received sample
  59:.\main.c      ****    {
  60:.\main.c      ****       y_low[0] += b_low[i]*x_low[i];
  61:.\main.c      ****    } 
  62:.\main.c      ****    
  63:.\main.c      ****    for(i =1;i <= FILTER_LENGTH_low;i++)               // Roll x array in order to hold old sample i
  64:.\main.c      ****    {
  65:.\main.c      ****       y_low[0] -= a_low[i]*y_low[i];
  66:.\main.c      ****    }
  67:.\main.c      **** 
  68:.\main.c      ****    for(i = FILTER_LENGTH_low-1;i >= 0;i--)
  69:.\main.c      ****     {
  70:.\main.c      ****        x_low[i+1]=x_low[i];
  71:.\main.c      ****        y_low[i+1]=y_low[i];
  72:.\main.c      ****     }
  73:.\main.c      **** 
  74:.\main.c      ****     return floor_and_convert(y_low[0]);
  75:.\main.c      **** }
  76:.\main.c      **** 
  77:.\main.c      **** signed int mavg_filter(signed int data)
  78:.\main.c      **** {
  79:.\main.c      ****    x_mavg[0] =  (double) data;      // Read received sample and perform type casts
  80:.\main.c      ****    
  81:.\main.c      ****    y_mavg = 0;
  82:.\main.c      ****    for(i = 0;i <= FILTER_LENGTH_mavg;i++)           // Run FIR filter for each received sample
  83:.\main.c      ****    {
  84:.\main.c      ****       y_mavg += b_mavg[i]*x_mavg[i];
  85:.\main.c      ****    } 
  86:.\main.c      ****    
  87:.\main.c      ****    for(i = FILTER_LENGTH_mavg-1;i >= 0;i--)         // Roll x array in order to hold old sample inp
  88:.\main.c      ****    {
  89:.\main.c      ****       x_mavg[i+1] = x_mavg[i];
ARM GAS  C:\Users\LINETT~1\AppData\Local\Temp\ccjEb2EF.s 			page 3


  90:.\main.c      ****    }
  91:.\main.c      ****       
  92:.\main.c      ****    return (unsigned int) y_mavg;                    // Perform type casts and return sample
  93:.\main.c      **** }
  94:.\main.c      **** 
  95:.\main.c      **** CY_ISR(RX_interrupt)
  96:.\main.c      **** {
  97:.\main.c      ****     char str[4];
  98:.\main.c      ****     uint8 ch = UART_UartGetChar();
  99:.\main.c      ****     UART_ClearRxInterruptSource(UART_GetRxInterruptSource());
 100:.\main.c      ****     
 101:.\main.c      ****     if(current_byte == LOWBYTE)                     // Receive LOW byte first
 102:.\main.c      ****     {
 103:.\main.c      ****         
 104:.\main.c      ****         
 105:.\main.c      ****         value_in = ch;                                 // Save UCA0RXBUF in the LOW byte of "value"
 106:.\main.c      ****         current_byte = HIGHBYTE;                    // Prepare to receive HIGH byte on next interru
 107:.\main.c      ****         return;                                     // Return from interrupt
 108:.\main.c      ****     }
 109:.\main.c      ****     
 110:.\main.c      ****     if(current_byte == HIGHBYTE)                    // Recieve HIGH byte
 111:.\main.c      ****     {
 112:.\main.c      ****         value_in += (ch<<8);                           // Save UCA0RXBUF in the HIGH byte of "value
 113:.\main.c      ****         current_byte = LOWBYTE;                     // Prepare to receive LOW byte on next interrup
 114:.\main.c      ****                 
 115:.\main.c      ****         StartMeasuring
 116:.\main.c      ****            avg_new = mavg_filter(value_in);               // Applay moving average function
 117:.\main.c      ****            //low_pass_new = low_pass_filter(value_in);
 118:.\main.c      ****            value_out[1] = value_out[0];
 119:.\main.c      ****            //value_out[0] = low_pass_new;                     // Value_in for at genskabe signalet
 120:.\main.c      ****            value_out[0] = avg_new; 
 121:.\main.c      ****         
 122:.\main.c      ****         StopMeasuring
 123:.\main.c      ****         
 124:.\main.c      ****         
 125:.\main.c      ****         if ((value_out[0] >= 225) && (value_out[1] < 225))      // Applay simple thresholding
 126:.\main.c      ****         {
 127:.\main.c      ****             j = j + 1;
 128:.\main.c      ****             UART_BLE_UartPutString(itoa(j,str,10));             // Notify BLE_Peripheral
 129:.\main.c      ****             UART_BLE_UartPutChar(10);    
 130:.\main.c      ****             UART_BLE_UartPutChar(13);  
 131:.\main.c      ****         }
 132:.\main.c      ****        
 133:.\main.c      ****        
 134:.\main.c      ****         UART_UartPutChar(avg_new);
 135:.\main.c      ****         UART_UartPutChar(avg_new>>8);  
 136:.\main.c      **** //        UART_UartPutChar(low_pass_new);
 137:.\main.c      **** //        UART_UartPutChar(low_pass_new>>8); 
 138:.\main.c      ****     }
 139:.\main.c      **** }
 140:.\main.c      **** 
 141:.\main.c      **** CY_ISR(BLE_RX_interrupt)
 142:.\main.c      **** {
  26              		.loc 1 142 0
  27              		.cfi_startproc
  28 0000 08B5     		push	{r3, lr}
  29              		.cfi_def_cfa_offset 8
ARM GAS  C:\Users\LINETT~1\AppData\Local\Temp\ccjEb2EF.s 			page 4


  30              		.cfi_offset 3, -8
  31              		.cfi_offset 14, -4
 143:.\main.c      ****     uint8 ch = UART_BLE_UartGetChar();
  32              		.loc 1 143 0
  33 0002 FFF7FEFF 		bl	UART_BLE_UartGetChar
  34              	.LVL0:
 144:.\main.c      ****     UART_BLE_ClearRxInterruptSource(UART_BLE_GetRxInterruptSource());
  35              		.loc 1 144 0
  36 0006 044B     		ldr	r3, .L2
  37 0008 1A68     		ldr	r2, [r3]
  38 000a 1A60     		str	r2, [r3]
 145:.\main.c      ****     UART_UartPutChar(ch);
  39              		.loc 1 145 0
  40 000c FF23     		mov	r3, #255
  41 000e 1840     		and	r0, r3
  42              	.LVL1:
  43 0010 FFF7FEFF 		bl	UART_SpiUartWriteTxData
  44              	.LVL2:
 146:.\main.c      **** }
  45              		.loc 1 146 0
  46              		@ sp needed
  47 0014 08BD     		pop	{r3, pc}
  48              	.L3:
  49 0016 C046     		.align	2
  50              	.L2:
  51 0018 C00F2540 		.word	1076170688
  52              		.cfi_endproc
  53              	.LFE40:
  54              		.size	BLE_RX_interrupt, .-BLE_RX_interrupt
  55              		.section	.text.Timer_interrupt,"ax",%progbits
  56              		.align	2
  57              		.global	Timer_interrupt
  58              		.code	16
  59              		.thumb_func
  60              		.type	Timer_interrupt, %function
  61              	Timer_interrupt:
  62              	.LFB41:
 147:.\main.c      **** 
 148:.\main.c      **** CY_ISR(Timer_interrupt)
 149:.\main.c      **** {
  63              		.loc 1 149 0
  64              		.cfi_startproc
  65 0000 08B5     		push	{r3, lr}
  66              		.cfi_def_cfa_offset 8
  67              		.cfi_offset 3, -8
  68              		.cfi_offset 14, -4
 150:.\main.c      ****     counter = Timer_ReadCapture();   
  69              		.loc 1 150 0
  70 0002 FFF7FEFF 		bl	Timer_ReadCapture
  71              	.LVL3:
  72 0006 014B     		ldr	r3, .L5
  73 0008 1880     		strh	r0, [r3]
 151:.\main.c      **** }
  74              		.loc 1 151 0
  75              		@ sp needed
  76 000a 08BD     		pop	{r3, pc}
  77              	.L6:
ARM GAS  C:\Users\LINETT~1\AppData\Local\Temp\ccjEb2EF.s 			page 5


  78              		.align	2
  79              	.L5:
  80 000c 00000000 		.word	.LANCHOR0
  81              		.cfi_endproc
  82              	.LFE41:
  83              		.size	Timer_interrupt, .-Timer_interrupt
  84              		.global	__aeabi_dcmpgt
  85              		.global	__aeabi_dadd
  86              		.global	__aeabi_d2iz
  87              		.global	__aeabi_dsub
  88              		.section	.text.floor_and_convert,"ax",%progbits
  89              		.align	2
  90              		.global	floor_and_convert
  91              		.code	16
  92              		.thumb_func
  93              		.type	floor_and_convert, %function
  94              	floor_and_convert:
  95              	.LFB36:
  44:.\main.c      ****    if (y > 0)
  96              		.loc 1 44 0
  97              		.cfi_startproc
  98              	.LVL4:
  99 0000 38B5     		push	{r3, r4, r5, lr}
 100              		.cfi_def_cfa_offset 16
 101              		.cfi_offset 3, -16
 102              		.cfi_offset 4, -12
 103              		.cfi_offset 5, -8
 104              		.cfi_offset 14, -4
 105 0002 041C     		mov	r4, r0
 106 0004 0D1C     		mov	r5, r1
  45:.\main.c      ****       return (signed int) (y+0.5);
 107              		.loc 1 45 0
 108 0006 0022     		mov	r2, #0
 109 0008 0023     		mov	r3, #0
 110 000a FFF7FEFF 		bl	__aeabi_dcmpgt
 111              	.LVL5:
 112 000e 0028     		cmp	r0, #0
 113 0010 08D0     		beq	.L12
  46:.\main.c      ****    else
 114              		.loc 1 46 0
 115 0012 201C     		mov	r0, r4
 116 0014 291C     		mov	r1, r5
 117 0016 0022     		mov	r2, #0
 118 0018 074B     		ldr	r3, .L13
 119 001a FFF7FEFF 		bl	__aeabi_dadd
 120              	.LVL6:
 121 001e FFF7FEFF 		bl	__aeabi_d2iz
 122              	.LVL7:
 123 0022 07E0     		b	.L10
 124              	.L12:
  48:.\main.c      **** }
 125              		.loc 1 48 0
 126 0024 201C     		mov	r0, r4
 127 0026 291C     		mov	r1, r5
 128 0028 0022     		mov	r2, #0
 129 002a 034B     		ldr	r3, .L13
 130 002c FFF7FEFF 		bl	__aeabi_dsub
ARM GAS  C:\Users\LINETT~1\AppData\Local\Temp\ccjEb2EF.s 			page 6


 131              	.LVL8:
 132 0030 FFF7FEFF 		bl	__aeabi_d2iz
 133              	.LVL9:
 134              	.L10:
  49:.\main.c      **** 
 135              		.loc 1 49 0
 136              		@ sp needed
 137 0034 38BD     		pop	{r3, r4, r5, pc}
 138              	.L14:
 139 0036 C046     		.align	2
 140              	.L13:
 141 0038 0000E03F 		.word	1071644672
 142              		.cfi_endproc
 143              	.LFE36:
 144              		.size	floor_and_convert, .-floor_and_convert
 145              		.global	__aeabi_i2d
 146              		.global	__aeabi_dmul
 147              		.section	.text.low_pass_filter,"ax",%progbits
 148              		.align	2
 149              		.global	low_pass_filter
 150              		.code	16
 151              		.thumb_func
 152              		.type	low_pass_filter, %function
 153              	low_pass_filter:
 154              	.LFB37:
  52:.\main.c      ****    int i;
 155              		.loc 1 52 0
 156              		.cfi_startproc
 157              	.LVL10:
 158 0000 38B5     		push	{r3, r4, r5, lr}
 159              		.cfi_def_cfa_offset 16
 160              		.cfi_offset 3, -16
 161              		.cfi_offset 4, -12
 162              		.cfi_offset 5, -8
 163              		.cfi_offset 14, -4
  54:.\main.c      ****    
 164              		.loc 1 54 0
 165 0002 FFF7FEFF 		bl	__aeabi_i2d
 166              	.LVL11:
 167 0006 284B     		ldr	r3, .L22
 168 0008 9860     		str	r0, [r3, #8]
 169 000a D960     		str	r1, [r3, #12]
  56:.\main.c      ****   
 170              		.loc 1 56 0
 171 000c 0020     		mov	r0, #0
 172 000e 0021     		mov	r1, #0
 173 0010 1862     		str	r0, [r3, #32]
 174 0012 5962     		str	r1, [r3, #36]
 175              	.LVL12:
  58:.\main.c      ****    {
 176              		.loc 1 58 0
 177 0014 0024     		mov	r4, #0
 178 0016 13E0     		b	.L16
 179              	.LVL13:
 180              	.L17:
  60:.\main.c      ****    } 
 181              		.loc 1 60 0 discriminator 3
ARM GAS  C:\Users\LINETT~1\AppData\Local\Temp\ccjEb2EF.s 			page 7


 182 0018 E300     		lsl	r3, r4, #3
 183 001a 244A     		ldr	r2, .L22+4
 184 001c D218     		add	r2, r2, r3
 185 001e 1068     		ldr	r0, [r2]
 186 0020 5168     		ldr	r1, [r2, #4]
 187 0022 214D     		ldr	r5, .L22
 188 0024 EB18     		add	r3, r5, r3
 189 0026 9A68     		ldr	r2, [r3, #8]
 190 0028 DB68     		ldr	r3, [r3, #12]
 191 002a FFF7FEFF 		bl	__aeabi_dmul
 192              	.LVL14:
 193 002e 021C     		mov	r2, r0
 194 0030 0B1C     		mov	r3, r1
 195 0032 286A     		ldr	r0, [r5, #32]
 196 0034 696A     		ldr	r1, [r5, #36]
 197 0036 FFF7FEFF 		bl	__aeabi_dadd
 198              	.LVL15:
 199 003a 2862     		str	r0, [r5, #32]
 200 003c 6962     		str	r1, [r5, #36]
  58:.\main.c      ****    {
 201              		.loc 1 58 0 discriminator 3
 202 003e 0134     		add	r4, r4, #1
 203              	.LVL16:
 204              	.L16:
  58:.\main.c      ****    {
 205              		.loc 1 58 0 is_stmt 0 discriminator 1
 206 0040 022C     		cmp	r4, #2
 207 0042 E9DD     		ble	.L17
 208 0044 0124     		mov	r4, #1
 209              	.LVL17:
 210 0046 13E0     		b	.L18
 211              	.LVL18:
 212              	.L19:
  65:.\main.c      ****    }
 213              		.loc 1 65 0 is_stmt 1 discriminator 3
 214 0048 E300     		lsl	r3, r4, #3
 215 004a 184A     		ldr	r2, .L22+4
 216 004c D218     		add	r2, r2, r3
 217 004e 9069     		ldr	r0, [r2, #24]
 218 0050 D169     		ldr	r1, [r2, #28]
 219 0052 154D     		ldr	r5, .L22
 220 0054 EB18     		add	r3, r5, r3
 221 0056 1A6A     		ldr	r2, [r3, #32]
 222 0058 5B6A     		ldr	r3, [r3, #36]
 223 005a FFF7FEFF 		bl	__aeabi_dmul
 224              	.LVL19:
 225 005e 021C     		mov	r2, r0
 226 0060 0B1C     		mov	r3, r1
 227 0062 286A     		ldr	r0, [r5, #32]
 228 0064 696A     		ldr	r1, [r5, #36]
 229 0066 FFF7FEFF 		bl	__aeabi_dsub
 230              	.LVL20:
 231 006a 2862     		str	r0, [r5, #32]
 232 006c 6962     		str	r1, [r5, #36]
  63:.\main.c      ****    {
 233              		.loc 1 63 0 discriminator 3
 234 006e 0134     		add	r4, r4, #1
ARM GAS  C:\Users\LINETT~1\AppData\Local\Temp\ccjEb2EF.s 			page 8


 235              	.LVL21:
 236              	.L18:
  63:.\main.c      ****    {
 237              		.loc 1 63 0 is_stmt 0 discriminator 1
 238 0070 022C     		cmp	r4, #2
 239 0072 E9DD     		ble	.L19
 240 0074 0122     		mov	r2, #1
 241 0076 0EE0     		b	.L20
 242              	.LVL22:
 243              	.L21:
  70:.\main.c      ****        y_low[i+1]=y_low[i];
 244              		.loc 1 70 0 is_stmt 1 discriminator 3
 245 0078 531C     		add	r3, r2, #1
 246 007a 0B48     		ldr	r0, .L22
 247 007c D100     		lsl	r1, r2, #3
 248 007e 4118     		add	r1, r0, r1
 249 0080 DB00     		lsl	r3, r3, #3
 250 0082 C318     		add	r3, r0, r3
 251 0084 8C68     		ldr	r4, [r1, #8]
 252 0086 CD68     		ldr	r5, [r1, #12]
 253 0088 9C60     		str	r4, [r3, #8]
 254 008a DD60     		str	r5, [r3, #12]
  71:.\main.c      ****     }
 255              		.loc 1 71 0 discriminator 3
 256 008c 086A     		ldr	r0, [r1, #32]
 257 008e 496A     		ldr	r1, [r1, #36]
 258 0090 1862     		str	r0, [r3, #32]
 259 0092 5962     		str	r1, [r3, #36]
  68:.\main.c      ****     {
 260              		.loc 1 68 0 discriminator 3
 261 0094 013A     		sub	r2, r2, #1
 262              	.LVL23:
 263              	.L20:
  68:.\main.c      ****     {
 264              		.loc 1 68 0 is_stmt 0 discriminator 1
 265 0096 002A     		cmp	r2, #0
 266 0098 EEDA     		bge	.L21
  74:.\main.c      **** }
 267              		.loc 1 74 0 is_stmt 1
 268 009a 034B     		ldr	r3, .L22
 269 009c 186A     		ldr	r0, [r3, #32]
 270 009e 596A     		ldr	r1, [r3, #36]
 271 00a0 FFF7FEFF 		bl	floor_and_convert
 272              	.LVL24:
  75:.\main.c      **** 
 273              		.loc 1 75 0
 274              		@ sp needed
 275 00a4 38BD     		pop	{r3, r4, r5, pc}
 276              	.L23:
 277 00a6 C046     		.align	2
 278              	.L22:
 279 00a8 00000000 		.word	.LANCHOR0
 280 00ac 00000000 		.word	.LANCHOR1
 281              		.cfi_endproc
 282              	.LFE37:
 283              		.size	low_pass_filter, .-low_pass_filter
 284              		.global	__aeabi_d2uiz
ARM GAS  C:\Users\LINETT~1\AppData\Local\Temp\ccjEb2EF.s 			page 9


 285              		.section	.text.mavg_filter,"ax",%progbits
 286              		.align	2
 287              		.global	mavg_filter
 288              		.code	16
 289              		.thumb_func
 290              		.type	mavg_filter, %function
 291              	mavg_filter:
 292              	.LFB38:
  78:.\main.c      ****    x_mavg[0] =  (double) data;      // Read received sample and perform type casts
 293              		.loc 1 78 0
 294              		.cfi_startproc
 295              	.LVL25:
 296 0000 38B5     		push	{r3, r4, r5, lr}
 297              		.cfi_def_cfa_offset 16
 298              		.cfi_offset 3, -16
 299              		.cfi_offset 4, -12
 300              		.cfi_offset 5, -8
 301              		.cfi_offset 14, -4
  79:.\main.c      ****    
 302              		.loc 1 79 0
 303 0002 FFF7FEFF 		bl	__aeabi_i2d
 304              	.LVL26:
 305 0006 234B     		ldr	r3, .L29
 306 0008 9863     		str	r0, [r3, #56]
 307 000a D963     		str	r1, [r3, #60]
  81:.\main.c      ****    for(i = 0;i <= FILTER_LENGTH_mavg;i++)           // Run FIR filter for each received sample
 308              		.loc 1 81 0
 309 000c 224B     		ldr	r3, .L29+4
 310 000e 0020     		mov	r0, #0
 311 0010 0021     		mov	r1, #0
 312 0012 9865     		str	r0, [r3, #88]
 313 0014 D965     		str	r1, [r3, #92]
  82:.\main.c      ****    {
 314              		.loc 1 82 0
 315 0016 0021     		mov	r1, #0
 316 0018 6022     		mov	r2, #96
 317 001a 9952     		strh	r1, [r3, r2]
 318 001c 15E0     		b	.L25
 319              	.L26:
  84:.\main.c      ****    } 
 320              		.loc 1 84 0 discriminator 3
 321 001e 23B2     		sxth	r3, r4
 322 0020 DB00     		lsl	r3, r3, #3
 323 0022 1E4A     		ldr	r2, .L29+8
 324 0024 D218     		add	r2, r2, r3
 325 0026 106B     		ldr	r0, [r2, #48]
 326 0028 516B     		ldr	r1, [r2, #52]
 327 002a 1A4A     		ldr	r2, .L29
 328 002c D318     		add	r3, r2, r3
 329 002e 9A6B     		ldr	r2, [r3, #56]
 330 0030 DB6B     		ldr	r3, [r3, #60]
 331 0032 FFF7FEFF 		bl	__aeabi_dmul
 332              	.LVL27:
 333 0036 184D     		ldr	r5, .L29+4
 334 0038 AA6D     		ldr	r2, [r5, #88]
 335 003a EB6D     		ldr	r3, [r5, #92]
 336 003c FFF7FEFF 		bl	__aeabi_dadd
ARM GAS  C:\Users\LINETT~1\AppData\Local\Temp\ccjEb2EF.s 			page 10


 337              	.LVL28:
 338 0040 A865     		str	r0, [r5, #88]
 339 0042 E965     		str	r1, [r5, #92]
  82:.\main.c      ****    {
 340              		.loc 1 82 0 discriminator 3
 341 0044 0134     		add	r4, r4, #1
 342 0046 6023     		mov	r3, #96
 343 0048 EC52     		strh	r4, [r5, r3]
 344              	.L25:
  82:.\main.c      ****    {
 345              		.loc 1 82 0 is_stmt 0 discriminator 1
 346 004a 6023     		mov	r3, #96
 347 004c 124A     		ldr	r2, .L29+4
 348 004e D45A     		ldrh	r4, [r2, r3]
 349 0050 23B2     		sxth	r3, r4
 350 0052 132B     		cmp	r3, #19
 351 0054 E3DD     		ble	.L26
  87:.\main.c      ****    {
 352              		.loc 1 87 0 is_stmt 1
 353 0056 1221     		mov	r1, #18
 354 0058 6023     		mov	r3, #96
 355 005a D152     		strh	r1, [r2, r3]
 356 005c 0EE0     		b	.L27
 357              	.L28:
  89:.\main.c      ****    }
 358              		.loc 1 89 0 discriminator 3
 359 005e 13B2     		sxth	r3, r2
 360 0060 5C1C     		add	r4, r3, #1
 361 0062 0C4D     		ldr	r5, .L29
 362 0064 DB00     		lsl	r3, r3, #3
 363 0066 EB18     		add	r3, r5, r3
 364 0068 986B     		ldr	r0, [r3, #56]
 365 006a D96B     		ldr	r1, [r3, #60]
 366 006c E300     		lsl	r3, r4, #3
 367 006e EB18     		add	r3, r5, r3
 368 0070 9863     		str	r0, [r3, #56]
 369 0072 D963     		str	r1, [r3, #60]
  87:.\main.c      ****    {
 370              		.loc 1 87 0 discriminator 3
 371 0074 013A     		sub	r2, r2, #1
 372 0076 6023     		mov	r3, #96
 373 0078 0749     		ldr	r1, .L29+4
 374 007a CA52     		strh	r2, [r1, r3]
 375              	.L27:
  87:.\main.c      ****    {
 376              		.loc 1 87 0 is_stmt 0 discriminator 1
 377 007c 6023     		mov	r3, #96
 378 007e 064A     		ldr	r2, .L29+4
 379 0080 D25A     		ldrh	r2, [r2, r3]
 380 0082 13B2     		sxth	r3, r2
 381 0084 002B     		cmp	r3, #0
 382 0086 EADA     		bge	.L28
  92:.\main.c      **** }
 383              		.loc 1 92 0 is_stmt 1
 384 0088 034B     		ldr	r3, .L29+4
 385 008a 986D     		ldr	r0, [r3, #88]
 386 008c D96D     		ldr	r1, [r3, #92]
ARM GAS  C:\Users\LINETT~1\AppData\Local\Temp\ccjEb2EF.s 			page 11


 387 008e FFF7FEFF 		bl	__aeabi_d2uiz
 388              	.LVL29:
  93:.\main.c      **** 
 389              		.loc 1 93 0
 390              		@ sp needed
 391 0092 38BD     		pop	{r3, r4, r5, pc}
 392              	.L30:
 393              		.align	2
 394              	.L29:
 395 0094 00000000 		.word	.LANCHOR0
 396 0098 80000000 		.word	.LANCHOR2
 397 009c 00000000 		.word	.LANCHOR1
 398              		.cfi_endproc
 399              	.LFE38:
 400              		.size	mavg_filter, .-mavg_filter
 401              		.section	.text.RX_interrupt,"ax",%progbits
 402              		.align	2
 403              		.global	RX_interrupt
 404              		.code	16
 405              		.thumb_func
 406              		.type	RX_interrupt, %function
 407              	RX_interrupt:
 408              	.LFB39:
  96:.\main.c      ****     char str[4];
 409              		.loc 1 96 0
 410              		.cfi_startproc
 411 0000 30B5     		push	{r4, r5, lr}
 412              		.cfi_def_cfa_offset 12
 413              		.cfi_offset 4, -12
 414              		.cfi_offset 5, -8
 415              		.cfi_offset 14, -4
 416 0002 83B0     		sub	sp, sp, #12
 417              		.cfi_def_cfa_offset 24
  98:.\main.c      ****     UART_ClearRxInterruptSource(UART_GetRxInterruptSource());
 418              		.loc 1 98 0
 419 0004 FFF7FEFF 		bl	UART_UartGetChar
 420              	.LVL30:
 421 0008 C0B2     		uxtb	r0, r0
 422              	.LVL31:
  99:.\main.c      ****     
 423              		.loc 1 99 0
 424 000a 294B     		ldr	r3, .L36
 425 000c 1A68     		ldr	r2, [r3]
 426 000e 1A60     		str	r2, [r3]
 101:.\main.c      ****     {
 427              		.loc 1 101 0
 428 0010 6223     		mov	r3, #98
 429 0012 284A     		ldr	r2, .L36+4
 430 0014 D35C     		ldrb	r3, [r2, r3]
 431 0016 002B     		cmp	r3, #0
 432 0018 05D1     		bne	.L32
 105:.\main.c      ****         current_byte = HIGHBYTE;                    // Prepare to receive HIGH byte on next interru
 433              		.loc 1 105 0
 434 001a 274B     		ldr	r3, .L36+8
 435 001c 1880     		strh	r0, [r3]
 106:.\main.c      ****         return;                                     // Return from interrupt
 436              		.loc 1 106 0
ARM GAS  C:\Users\LINETT~1\AppData\Local\Temp\ccjEb2EF.s 			page 12


 437 001e 0121     		mov	r1, #1
 438 0020 6223     		mov	r3, #98
 439 0022 D154     		strb	r1, [r2, r3]
 440 0024 42E0     		b	.L31
 441              	.L32:
 110:.\main.c      ****     {
 442              		.loc 1 110 0
 443 0026 012B     		cmp	r3, #1
 444 0028 40D1     		bne	.L31
 112:.\main.c      ****         current_byte = LOWBYTE;                     // Prepare to receive LOW byte on next interrup
 445              		.loc 1 112 0
 446 002a 234D     		ldr	r5, .L36+8
 447 002c 0002     		lsl	r0, r0, #8
 448              	.LVL32:
 449 002e 2B88     		ldrh	r3, [r5]
 450 0030 C018     		add	r0, r0, r3
 451 0032 2880     		strh	r0, [r5]
 113:.\main.c      ****                 
 452              		.loc 1 113 0
 453 0034 1F4C     		ldr	r4, .L36+4
 454 0036 0022     		mov	r2, #0
 455 0038 6223     		mov	r3, #98
 456 003a E254     		strb	r2, [r4, r3]
 115:.\main.c      ****            avg_new = mavg_filter(value_in);               // Applay moving average function
 457              		.loc 1 115 0
 458 003c 0020     		mov	r0, #0
 459 003e FFF7FEFF 		bl	Measure_When_Low_Write
 460              	.LVL33:
 116:.\main.c      ****            //low_pass_new = low_pass_filter(value_in);
 461              		.loc 1 116 0
 462 0042 0023     		mov	r3, #0
 463 0044 E85E     		ldrsh	r0, [r5, r3]
 464 0046 FFF7FEFF 		bl	mavg_filter
 465              	.LVL34:
 466 004a 80B2     		uxth	r0, r0
 467 004c 1B4B     		ldr	r3, .L36+12
 468 004e 1880     		strh	r0, [r3]
 118:.\main.c      ****            //value_out[0] = low_pass_new;                     // Value_in for at genskabe signalet
 469              		.loc 1 118 0
 470 0050 6425     		mov	r5, #100
 471 0052 625B     		ldrh	r2, [r4, r5]
 472 0054 231C     		mov	r3, r4
 473 0056 6433     		add	r3, r3, #100
 474 0058 5A80     		strh	r2, [r3, #2]
 120:.\main.c      ****         
 475              		.loc 1 120 0
 476 005a 6053     		strh	r0, [r4, r5]
 122:.\main.c      ****         
 477              		.loc 1 122 0
 478 005c 0120     		mov	r0, #1
 479 005e FFF7FEFF 		bl	Measure_When_Low_Write
 480              	.LVL35:
 125:.\main.c      ****         {
 481              		.loc 1 125 0
 482 0062 635F     		ldrsh	r3, [r4, r5]
 483 0064 E02B     		cmp	r3, #224
 484 0066 18DD     		ble	.L35
ARM GAS  C:\Users\LINETT~1\AppData\Local\Temp\ccjEb2EF.s 			page 13


 125:.\main.c      ****         {
 485              		.loc 1 125 0 is_stmt 0 discriminator 1
 486 0068 124B     		ldr	r3, .L36+4
 487 006a 6433     		add	r3, r3, #100
 488 006c 0222     		mov	r2, #2
 489 006e 9B5E     		ldrsh	r3, [r3, r2]
 490 0070 E02B     		cmp	r3, #224
 491 0072 12DC     		bgt	.L35
 127:.\main.c      ****             UART_BLE_UartPutString(itoa(j,str,10));             // Notify BLE_Peripheral
 492              		.loc 1 127 0 is_stmt 1
 493 0074 0F4A     		ldr	r2, .L36+4
 494 0076 6823     		mov	r3, #104
 495 0078 D05A     		ldrh	r0, [r2, r3]
 496 007a 0130     		add	r0, r0, #1
 497 007c 80B2     		uxth	r0, r0
 498 007e D052     		strh	r0, [r2, r3]
 128:.\main.c      ****             UART_BLE_UartPutChar(10);    
 499              		.loc 1 128 0
 500 0080 00B2     		sxth	r0, r0
 501 0082 01A9     		add	r1, sp, #4
 502 0084 0A22     		mov	r2, #10
 503 0086 FFF7FEFF 		bl	itoa
 504              	.LVL36:
 505 008a FFF7FEFF 		bl	UART_BLE_UartPutString
 506              	.LVL37:
 129:.\main.c      ****             UART_BLE_UartPutChar(13);  
 507              		.loc 1 129 0
 508 008e 0A20     		mov	r0, #10
 509 0090 FFF7FEFF 		bl	UART_BLE_SpiUartWriteTxData
 510              	.LVL38:
 130:.\main.c      ****         }
 511              		.loc 1 130 0
 512 0094 0D20     		mov	r0, #13
 513 0096 FFF7FEFF 		bl	UART_BLE_SpiUartWriteTxData
 514              	.LVL39:
 515              	.L35:
 134:.\main.c      ****         UART_UartPutChar(avg_new>>8);  
 516              		.loc 1 134 0
 517 009a 084C     		ldr	r4, .L36+12
 518 009c 0023     		mov	r3, #0
 519 009e E05E     		ldrsh	r0, [r4, r3]
 520 00a0 FFF7FEFF 		bl	UART_SpiUartWriteTxData
 521              	.LVL40:
 135:.\main.c      **** //        UART_UartPutChar(low_pass_new);
 522              		.loc 1 135 0
 523 00a4 0120     		mov	r0, #1
 524 00a6 2056     		ldrsb	r0, [r4, r0]
 525 00a8 FFF7FEFF 		bl	UART_SpiUartWriteTxData
 526              	.LVL41:
 527              	.L31:
 139:.\main.c      **** 
 528              		.loc 1 139 0
 529 00ac 03B0     		add	sp, sp, #12
 530              		@ sp needed
 531 00ae 30BD     		pop	{r4, r5, pc}
 532              	.L37:
 533              		.align	2
ARM GAS  C:\Users\LINETT~1\AppData\Local\Temp\ccjEb2EF.s 			page 14


 534              	.L36:
 535 00b0 C00F2740 		.word	1076301760
 536 00b4 80000000 		.word	.LANCHOR2
 537 00b8 00000000 		.word	value_in
 538 00bc 00000000 		.word	avg_new
 539              		.cfi_endproc
 540              	.LFE39:
 541              		.size	RX_interrupt, .-RX_interrupt
 542              		.section	.text.main,"ax",%progbits
 543              		.align	2
 544              		.global	main
 545              		.code	16
 546              		.thumb_func
 547              		.type	main, %function
 548              	main:
 549              	.LFB42:
 152:.\main.c      **** 
 153:.\main.c      **** 
 154:.\main.c      **** int main()
 155:.\main.c      **** {
 550              		.loc 1 155 0
 551              		.cfi_startproc
 552 0000 08B5     		push	{r3, lr}
 553              		.cfi_def_cfa_offset 8
 554              		.cfi_offset 3, -8
 555              		.cfi_offset 14, -4
 156:.\main.c      ****  
 157:.\main.c      ****     CyGlobalIntEnable;                          /* Enable global interrupts */
 556              		.loc 1 157 0
 557              	@ 157 ".\main.c" 1
 558 0002 62B6     		CPSIE   i
 559              	@ 0 "" 2
 158:.\main.c      ****     Timer_ISR_StartEx(Timer_interrupt);         /* Set interrupt address */
 560              		.loc 1 158 0
 561              		.code	16
 562 0004 0A48     		ldr	r0, .L39
 563 0006 FFF7FEFF 		bl	Timer_ISR_StartEx
 564              	.LVL42:
 159:.\main.c      ****     UART_RX_ISR_StartEx(RX_interrupt);          /* Set interrupt address */
 565              		.loc 1 159 0
 566 000a 0A48     		ldr	r0, .L39+4
 567 000c FFF7FEFF 		bl	UART_RX_ISR_StartEx
 568              	.LVL43:
 160:.\main.c      ****     UART_BLE_RX_ISR_StartEx(BLE_RX_interrupt);  /* Set interrupt address */
 569              		.loc 1 160 0
 570 0010 0948     		ldr	r0, .L39+8
 571 0012 FFF7FEFF 		bl	UART_BLE_RX_ISR_StartEx
 572              	.LVL44:
 161:.\main.c      ****     UART_Start();                               /* Start UART */
 573              		.loc 1 161 0
 574 0016 FFF7FEFF 		bl	UART_Start
 575              	.LVL45:
 162:.\main.c      ****     UART_BLE_Start();                           /* Start UART_BLE */
 576              		.loc 1 162 0
 577 001a FFF7FEFF 		bl	UART_BLE_Start
 578              	.LVL46:
 163:.\main.c      ****     Timer_Start();                              /* Start Timer */
ARM GAS  C:\Users\LINETT~1\AppData\Local\Temp\ccjEb2EF.s 			page 15


 579              		.loc 1 163 0
 580 001e FFF7FEFF 		bl	Timer_Start
 581              	.LVL47:
 164:.\main.c      ****     Timer_ISR_Enable();                         /* Enable Timer interrupt service routine*/
 582              		.loc 1 164 0
 583 0022 FFF7FEFF 		bl	Timer_ISR_Enable
 584              	.LVL48:
 165:.\main.c      ****     CySysPmSleep();                             /* Enter Sleep mode */
 585              		.loc 1 165 0
 586 0026 FFF7FEFF 		bl	CySysPmSleep
 587              	.LVL49:
 166:.\main.c      ****     return 0;
 167:.\main.c      **** }
 588              		.loc 1 167 0
 589 002a 0020     		mov	r0, #0
 590              		@ sp needed
 591 002c 08BD     		pop	{r3, pc}
 592              	.L40:
 593 002e C046     		.align	2
 594              	.L39:
 595 0030 00000000 		.word	Timer_interrupt
 596 0034 00000000 		.word	RX_interrupt
 597 0038 00000000 		.word	BLE_RX_interrupt
 598              		.cfi_endproc
 599              	.LFE42:
 600              		.size	main, .-main
 601              		.global	FirstCall
 602              		.comm	unsigned_data,2,2
 603              		.comm	pointer,2,2
 604              		.global	counter
 605              		.comm	avg_new,2,2
 606              		.comm	low_pass_new,2,2
 607              		.comm	old,2,2
 608              		.comm	signed_data,2,2
 609              		.comm	diff,2,2
 610              		.comm	newest,2,2
 611              		.comm	oldest,2,2
 612              		.global	j
 613              		.global	i
 614              		.global	value_out
 615              		.comm	value_in,2,2
 616              		.global	current_byte
 617              		.global	a_low
 618              		.global	b_low
 619              		.global	y_low
 620              		.global	x_low
 621              		.global	b_mavg
 622              		.global	y_mavg
 623              		.global	x_mavg
 624              		.global	y
 625              		.data
 626              		.align	3
 627              		.set	.LANCHOR1,. + 0
 628              		.type	b_low, %object
 629              		.size	b_low, 24
 630              	b_low:
 631 0000 BE30992A 		.word	714682558
ARM GAS  C:\Users\LINETT~1\AppData\Local\Temp\ccjEb2EF.s 			page 16


 632 0004 1895943F 		.word	1066702104
 633 0008 BE30992A 		.word	714682558
 634 000c 1895A43F 		.word	1067750680
 635 0010 BE30992A 		.word	714682558
 636 0014 1895943F 		.word	1066702104
 637              		.type	a_low, %object
 638              		.size	a_low, 24
 639              	a_low:
 640 0018 00000000 		.word	0
 641 001c 0000F03F 		.word	1072693248
 642 0020 60E5D022 		.word	584115552
 643 0024 DBF9F8BF 		.word	-1074202149
 644 0028 D8F0F44A 		.word	1257566424
 645 002c 5986E43F 		.word	1071941209
 646              		.type	b_mavg, %object
 647              		.size	b_mavg, 160
 648              	b_mavg:
 649 0030 9A999999 		.word	-1717986918
 650 0034 9999A93F 		.word	1068079513
 651 0038 9A999999 		.word	-1717986918
 652 003c 9999A93F 		.word	1068079513
 653 0040 9A999999 		.word	-1717986918
 654 0044 9999A93F 		.word	1068079513
 655 0048 9A999999 		.word	-1717986918
 656 004c 9999A93F 		.word	1068079513
 657 0050 9A999999 		.word	-1717986918
 658 0054 9999A93F 		.word	1068079513
 659 0058 9A999999 		.word	-1717986918
 660 005c 9999A93F 		.word	1068079513
 661 0060 9A999999 		.word	-1717986918
 662 0064 9999A93F 		.word	1068079513
 663 0068 9A999999 		.word	-1717986918
 664 006c 9999A93F 		.word	1068079513
 665 0070 9A999999 		.word	-1717986918
 666 0074 9999A93F 		.word	1068079513
 667 0078 9A999999 		.word	-1717986918
 668 007c 9999A93F 		.word	1068079513
 669 0080 9A999999 		.word	-1717986918
 670 0084 9999A93F 		.word	1068079513
 671 0088 9A999999 		.word	-1717986918
 672 008c 9999A93F 		.word	1068079513
 673 0090 9A999999 		.word	-1717986918
 674 0094 9999A93F 		.word	1068079513
 675 0098 9A999999 		.word	-1717986918
 676 009c 9999A93F 		.word	1068079513
 677 00a0 9A999999 		.word	-1717986918
 678 00a4 9999A93F 		.word	1068079513
 679 00a8 9A999999 		.word	-1717986918
 680 00ac 9999A93F 		.word	1068079513
 681 00b0 9A999999 		.word	-1717986918
 682 00b4 9999A93F 		.word	1068079513
 683 00b8 9A999999 		.word	-1717986918
 684 00bc 9999A93F 		.word	1068079513
 685 00c0 9A999999 		.word	-1717986918
 686 00c4 9999A93F 		.word	1068079513
 687 00c8 9A999999 		.word	-1717986918
 688 00cc 9999A93F 		.word	1068079513
ARM GAS  C:\Users\LINETT~1\AppData\Local\Temp\ccjEb2EF.s 			page 17


 689              		.type	FirstCall, %object
 690              		.size	FirstCall, 1
 691              	FirstCall:
 692 00d0 01       		.byte	1
 693 00d1 00000000 		.bss
 693      000000
 694              		.align	3
 695              		.set	.LANCHOR0,. + 0
 696              		.set	.LANCHOR2,. + 128
 697              		.type	counter, %object
 698              		.size	counter, 2
 699              	counter:
 700 0000 0000     		.space	2
 701 0002 00000000 		.space	6
 701      0000
 702              		.type	x_low, %object
 703              		.size	x_low, 24
 704              	x_low:
 705 0008 00000000 		.space	24
 705      00000000 
 705      00000000 
 705      00000000 
 705      00000000 
 706              		.type	y_low, %object
 707              		.size	y_low, 24
 708              	y_low:
 709 0020 00000000 		.space	24
 709      00000000 
 709      00000000 
 709      00000000 
 709      00000000 
 710              		.type	x_mavg, %object
 711              		.size	x_mavg, 160
 712              	x_mavg:
 713 0038 00000000 		.space	160
 713      00000000 
 713      00000000 
 713      00000000 
 713      00000000 
 714              		.type	y_mavg, %object
 715              		.size	y_mavg, 8
 716              	y_mavg:
 717 00d8 00000000 		.space	8
 717      00000000 
 718              		.type	i, %object
 719              		.size	i, 2
 720              	i:
 721 00e0 0000     		.space	2
 722              		.type	current_byte, %object
 723              		.size	current_byte, 1
 724              	current_byte:
 725 00e2 00       		.space	1
 726 00e3 00       		.space	1
 727              		.type	value_out, %object
 728              		.size	value_out, 4
 729              	value_out:
 730 00e4 00000000 		.space	4
ARM GAS  C:\Users\LINETT~1\AppData\Local\Temp\ccjEb2EF.s 			page 18


 731              		.type	j, %object
 732              		.size	j, 2
 733              	j:
 734 00e8 0000     		.space	2
 735 00ea 0000     		.space	2
 736              		.type	y, %object
 737              		.size	y, 8
 738              	y:
 739 00ec 00000000 		.space	8
 739      00000000 
 740 00f4 00000000 		.text
 741              	.Letext0:
 742              		.file 2 "Generated_Source\\PSoC4/cytypes.h"
 743              		.file 3 "Generated_Source\\PSoC4/UART_BLE_SPI_UART.h"
 744              		.file 4 "Generated_Source\\PSoC4/Timer.h"
 745              		.file 5 "Generated_Source\\PSoC4/UART_SPI_UART.h"
 746              		.file 6 "Generated_Source\\PSoC4/Measure_When_Low.h"
 747              		.file 7 "Generated_Source\\PSoC4/Timer_ISR.h"
 748              		.file 8 "Generated_Source\\PSoC4/UART_RX_ISR.h"
 749              		.file 9 "Generated_Source\\PSoC4/UART_BLE_RX_ISR.h"
 750              		.file 10 "Generated_Source\\PSoC4/UART.h"
 751              		.file 11 "Generated_Source\\PSoC4/UART_BLE.h"
 752              		.file 12 "Generated_Source\\PSoC4/cyPm.h"
 753              		.file 13 "c:\\program files (x86)\\cypress\\psoc creator\\3.3\\psoc creator\\import\\gnu\\arm\\4.9