ARM GAS  C:\Users\LINETT~1\AppData\Local\Temp\ccHV4T25.s 			page 1


   1              		.cpu cortex-m0
   2              		.fpu softvfp
   3              		.eabi_attribute 20, 1
   4              		.eabi_attribute 21, 1
   5              		.eabi_attribute 23, 3
   6              		.eabi_attribute 24, 1
   7              		.eabi_attribute 25, 1
   8              		.eabi_attribute 26, 1
   9              		.eabi_attribute 30, 1
  10              		.eabi_attribute 34, 0
  11              		.eabi_attribute 18, 4
  12              		.code	16
  13              		.file	"main.c"
  14              		.text
  15              	.Ltext0:
  16              		.cfi_sections	.debug_frame
  17              		.section	.text.RX_interrupt,"ax",%progbits
  18              		.align	2
  19              		.global	RX_interrupt
  20              		.code	16
  21              		.thumb_func
  22              		.type	RX_interrupt, %function
  23              	RX_interrupt:
  24              	.LFB41:
  25              		.file 1 ".\\main.c"
   1:.\main.c      **** /* ========================================
   2:.\main.c      ****  *
   3:.\main.c      ****  * UART echo with interrupt
   4:.\main.c      ****  *
   5:.\main.c      ****  * ========================================
   6:.\main.c      **** */
   7:.\main.c      **** #include <project.h>
   8:.\main.c      **** #include <stdlib.h>
   9:.\main.c      **** #define LOWBYTE 0                                   // Used to toggle between HIGH byte and LOW byt
  10:.\main.c      **** #define HIGHBYTE 1                                  // Used to toggle between HIGH byte and LOW byt
  11:.\main.c      **** #define FALSE 0
  12:.\main.c      **** #define TRUE 1
  13:.\main.c      **** #define LENGTH 5
  14:.\main.c      **** 
  15:.\main.c      **** #define ARRAY_SIZE 3
  16:.\main.c      **** #define FILTER_LENGTH 32
  17:.\main.c      **** #define FILTER_LENGTH2 30
  18:.\main.c      **** 
  19:.\main.c      **** #define StartMeasuring Measure_When_Low_Write(0);   // Used to start the Timer
  20:.\main.c      **** #define StopMeasuring Measure_When_Low_Write(1);    // Used to stop the Timer and capture the time 
  21:.\main.c      **** //#define TRANSMIT_TIME
  22:.\main.c      **** //#define ALGO2
  23:.\main.c      **** 
  24:.\main.c      **** int x[FILTER_LENGTH+1] = {0,0,0,0,0,0,0,0,0,0,0,0,0,0,0,0,0,0,0,0,0,0,0,0,0,0,0,0,0,0,0,0,0};
  25:.\main.c      **** int y[2] = {0,0};
  26:.\main.c      **** 
  27:.\main.c      **** //double b[FILTER_LENGTH+1] = {0.991824212000533,  -3.967296848002132,   5.950945272003199, -3.9672
  28:.\main.c      **** //double a[FILTER_LENGTH+1] = {1.000000000000000,  -3.983581258658521,   5.950878429266698, -3.9510
  29:.\main.c      **** 
  30:.\main.c      **** int b[FILTER_LENGTH+1] = {-1, 0, 0, 0, 0, 0, 0, 0, 0, 0, 0, 0, 0, 0, 0, 32, -32, 0, 0, 0, 0, 0, 0, 
  31:.\main.c      **** int a[2] = {1 -1};
  32:.\main.c      **** 
ARM GAS  C:\Users\LINETT~1\AppData\Local\Temp\ccHV4T25.s 			page 2


  33:.\main.c      **** double x3[FILTER_LENGTH2+1] = {0,0,0,0,0,0,0,0,0,0,0,0,0,0,0,0,0,0,0,0,0,0,0,0,0,0,0,0,0,0};
  34:.\main.c      **** double y3 = 0;
  35:.\main.c      **** double b3[FILTER_LENGTH2+1] = {0.03,0.03,0.03,0.03,0.03,0.03,0.03,0.03,0.03,0.03,0.03,0.03,0.03,0.0
  36:.\main.c      **** 
  37:.\main.c      **** char current_byte = LOWBYTE;                        // Receive LOW byte first as default
  38:.\main.c      **** int16 value_in,value_out[2]={0,0},i=0,j=0,oldest,newest,diff,signed_data,old;
  39:.\main.c      **** int16 data_array[LENGTH] = {0};
  40:.\main.c      **** uint16 counter = 0, pointer, squared,moving_sum,unsigned_data,avg_new;                             
  41:.\main.c      **** char FirstCall = TRUE;
  42:.\main.c      **** 
  43:.\main.c      **** signed int floor_and_convert(double y)
  44:.\main.c      **** {
  45:.\main.c      ****    if (y > 0)
  46:.\main.c      ****       return (signed int) (y+0.5);
  47:.\main.c      ****    else
  48:.\main.c      ****       return (signed int) (y-0.5);
  49:.\main.c      **** }
  50:.\main.c      **** 
  51:.\main.c      **** 
  52:.\main.c      **** signed int high_pass_filter(int data)
  53:.\main.c      **** {
  54:.\main.c      ****    x[0] = data;          // Read received sample and perform type casts
  55:.\main.c      ****    
  56:.\main.c      ****    y[0] = b[0]*x[0];
  57:.\main.c      ****    
  58:.\main.c      ****    for(i = 1;i <= FILTER_LENGTH;i++)                 // Run IIR filter for each received sample
  59:.\main.c      ****    {
  60:.\main.c      ****       y[0] += b[i]*x[i];
  61:.\main.c      ****    } 
  62:.\main.c      ****    y[0] -= a[1]*y[1];
  63:.\main.c      ****    
  64:.\main.c      ****    
  65:.\main.c      ****    for(i = FILTER_LENGTH-1;i >= 0;i--)               // Roll x array in order to hold old sample in
  66:.\main.c      ****    {
  67:.\main.c      ****       x[i+1] = x[i];
  68:.\main.c      ****    }
  69:.\main.c      ****    y[0] = (y[0]>>5);
  70:.\main.c      **** 
  71:.\main.c      ****    y[1] = y[0];
  72:.\main.c      ****    
  73:.\main.c      ****    return (y[0]);                   // Perform type casts and return sample
  74:.\main.c      **** }
  75:.\main.c      **** 
  76:.\main.c      **** signed int differentiator(signed int new)
  77:.\main.c      **** {
  78:.\main.c      ****    diff = (new - old);
  79:.\main.c      ****    old = new;
  80:.\main.c      ****    return diff;
  81:.\main.c      **** }
  82:.\main.c      **** 
  83:.\main.c      **** 
  84:.\main.c      **** unsigned int square(signed int data)
  85:.\main.c      **** {
  86:.\main.c      ****    return data*data;
  87:.\main.c      **** }
  88:.\main.c      **** 
  89:.\main.c      **** unsigned int mavg_filter(unsigned int data)
ARM GAS  C:\Users\LINETT~1\AppData\Local\Temp\ccHV4T25.s 			page 3


  90:.\main.c      **** {
  91:.\main.c      ****    x3[0] =  (double) data;      // Read received sample and perform type casts
  92:.\main.c      ****    
  93:.\main.c      ****    y3 = 0;
  94:.\main.c      ****    for(i = 0;i <= FILTER_LENGTH2;i++)           // Run FIR filter for each received sample
  95:.\main.c      ****    {
  96:.\main.c      ****       y3 += b3[i]*x3[i];
  97:.\main.c      ****    } 
  98:.\main.c      ****    
  99:.\main.c      ****    for(i = FILTER_LENGTH2-1;i >= 0;i--)         // Roll x array in order to hold old sample inputs
 100:.\main.c      ****    {
 101:.\main.c      ****       x3[i+1] = x3[i];
 102:.\main.c      ****    }
 103:.\main.c      ****       
 104:.\main.c      ****    return (unsigned int) y3;                    // Perform type casts and return sample
 105:.\main.c      **** }
 106:.\main.c      **** 
 107:.\main.c      **** CY_ISR(RX_interrupt)
 108:.\main.c      **** {
  26              		.loc 1 108 0
  27              		.cfi_startproc
  28 0000 30B5     		push	{r4, r5, lr}
  29              		.cfi_def_cfa_offset 12
  30              		.cfi_offset 4, -12
  31              		.cfi_offset 5, -8
  32              		.cfi_offset 14, -4
  33 0002 83B0     		sub	sp, sp, #12
  34              		.cfi_def_cfa_offset 24
 109:.\main.c      ****     char str[4];
 110:.\main.c      ****     uint8 ch = UART_UartGetChar();
  35              		.loc 1 110 0
  36 0004 FFF7FEFF 		bl	UART_UartGetChar
  37              	.LVL0:
  38 0008 C0B2     		uxtb	r0, r0
  39              	.LVL1:
 111:.\main.c      ****     UART_ClearRxInterruptSource(UART_GetRxInterruptSource());
  40              		.loc 1 111 0
  41 000a 234B     		ldr	r3, .L6
  42 000c 1A68     		ldr	r2, [r3]
  43 000e 1A60     		str	r2, [r3]
 112:.\main.c      ****     
 113:.\main.c      ****     if(current_byte == LOWBYTE)                     // Receive LOW byte first
  44              		.loc 1 113 0
  45 0010 224B     		ldr	r3, .L6+4
  46 0012 1B78     		ldrb	r3, [r3]
  47 0014 002B     		cmp	r3, #0
  48 0016 05D1     		bne	.L2
 114:.\main.c      ****     {
 115:.\main.c      ****         
 116:.\main.c      ****         
 117:.\main.c      ****         value_in = ch;                                 // Save UCA0RXBUF in the LOW byte of "value"
  49              		.loc 1 117 0
  50 0018 214B     		ldr	r3, .L6+8
  51 001a 1880     		strh	r0, [r3]
 118:.\main.c      ****         current_byte = HIGHBYTE;                    // Prepare to receive HIGH byte on next interru
  52              		.loc 1 118 0
  53 001c 0122     		mov	r2, #1
ARM GAS  C:\Users\LINETT~1\AppData\Local\Temp\ccHV4T25.s 			page 4


  54 001e 1F4B     		ldr	r3, .L6+4
  55 0020 1A70     		strb	r2, [r3]
  56 0022 37E0     		b	.L1
  57              	.L2:
 119:.\main.c      ****         return;                                     // Return from interrupt
 120:.\main.c      ****     }
 121:.\main.c      ****     if(current_byte == HIGHBYTE)                    // Recieve HIGH byte
  58              		.loc 1 121 0
  59 0024 012B     		cmp	r3, #1
  60 0026 35D1     		bne	.L1
 122:.\main.c      ****     {
 123:.\main.c      ****         
 124:.\main.c      ****         value_in += (ch<<8);                           // Save UCA0RXBUF in the HIGH byte of "value
  61              		.loc 1 124 0
  62 0028 1D4D     		ldr	r5, .L6+8
  63 002a 0002     		lsl	r0, r0, #8
  64              	.LVL2:
  65 002c 2B88     		ldrh	r3, [r5]
  66 002e C018     		add	r0, r0, r3
  67 0030 2880     		strh	r0, [r5]
 125:.\main.c      ****         current_byte = LOWBYTE;                     // Prepare to receive LOW byte on next interrup
  68              		.loc 1 125 0
  69 0032 1A4C     		ldr	r4, .L6+4
  70 0034 0023     		mov	r3, #0
  71 0036 2370     		strb	r3, [r4]
 126:.\main.c      ****                 
 127:.\main.c      ****         StartMeasuring
  72              		.loc 1 127 0
  73 0038 0020     		mov	r0, #0
  74 003a FFF7FEFF 		bl	Measure_When_Low_Write
  75              	.LVL3:
 128:.\main.c      ****         #ifdef ALGO2
 129:.\main.c      ****         data_array[pointer] = value_in;
 130:.\main.c      ****         pointer += 1;
 131:.\main.c      ****         if (pointer == LENGTH)
 132:.\main.c      ****         {
 133:.\main.c      ****             pointer = 0;
 134:.\main.c      ****             oldest = 0;
 135:.\main.c      ****             newest = LENGTH-1;
 136:.\main.c      ****             FirstCall = FALSE;
 137:.\main.c      ****         }
 138:.\main.c      ****         else
 139:.\main.c      ****         {
 140:.\main.c      ****             oldest = pointer;
 141:.\main.c      ****             newest = pointer - 1;
 142:.\main.c      ****         }
 143:.\main.c      ****         if (FirstCall)
 144:.\main.c      ****         {
 145:.\main.c      ****             diff = 0;
 146:.\main.c      ****         }
 147:.\main.c      ****         else      
 148:.\main.c      ****         {
 149:.\main.c      ****             diff = (signed int) (data_array[newest] - data_array[oldest])>>3;
 150:.\main.c      ****         }
 151:.\main.c      ****         squared = diff*diff;
 152:.\main.c      ****         
 153:.\main.c      ****         moving_sum = moving_sum + (squared>>4) - (moving_sum>>3);
ARM GAS  C:\Users\LINETT~1\AppData\Local\Temp\ccHV4T25.s 			page 5


 154:.\main.c      ****         
 155:.\main.c      ****         value_out[1] = value_out[0];
 156:.\main.c      ****         value_out[0] = moving_sum;
 157:.\main.c      ****         #else
 158:.\main.c      ****            // signed_data = high_pass_filter(value_in);           // Applay High Pass filter on raw
 159:.\main.c      ****             //signed_data = differentiator(signed_data);          // Applay differentiator
 160:.\main.c      ****             //unsigned_data = square(signed_data/2);              // Applay square function
 161:.\main.c      ****             //avg_new = mavg_filter(unsigned_data);               // Applay moving average function
 162:.\main.c      ****             
 163:.\main.c      ****             value_out[1] = value_out[0];
  76              		.loc 1 163 0
  77 003e A388     		ldrh	r3, [r4, #4]
  78 0040 E380     		strh	r3, [r4, #6]
 164:.\main.c      ****             value_out[0] = value_in;
  79              		.loc 1 164 0
  80 0042 2B88     		ldrh	r3, [r5]
  81 0044 A380     		strh	r3, [r4, #4]
 165:.\main.c      ****         #endif
 166:.\main.c      ****         StopMeasuring
  82              		.loc 1 166 0
  83 0046 0120     		mov	r0, #1
  84 0048 FFF7FEFF 		bl	Measure_When_Low_Write
  85              	.LVL4:
 167:.\main.c      ****         
 168:.\main.c      ****         
 169:.\main.c      ****         if ((value_out[0] >= 225) && (value_out[1] < 225))      // Applay simple thresholding
  86              		.loc 1 169 0
  87 004c 0422     		mov	r2, #4
  88 004e A35E     		ldrsh	r3, [r4, r2]
  89 0050 E02B     		cmp	r3, #224
  90 0052 16DD     		ble	.L5
  91              		.loc 1 169 0 is_stmt 0 discriminator 1
  92 0054 114B     		ldr	r3, .L6+4
  93 0056 0622     		mov	r2, #6
  94 0058 9B5E     		ldrsh	r3, [r3, r2]
  95 005a E02B     		cmp	r3, #224
  96 005c 11DC     		bgt	.L5
 170:.\main.c      ****         {
 171:.\main.c      ****             j = j + 1;
  97              		.loc 1 171 0 is_stmt 1
  98 005e 0F4B     		ldr	r3, .L6+4
  99 0060 1889     		ldrh	r0, [r3, #8]
 100 0062 0130     		add	r0, r0, #1
 101 0064 80B2     		uxth	r0, r0
 102 0066 1881     		strh	r0, [r3, #8]
 172:.\main.c      ****             UART_BLE_UartPutString(itoa(j,str,10));             // Notify BLE_Peripheral
 103              		.loc 1 172 0
 104 0068 00B2     		sxth	r0, r0
 105 006a 01A9     		add	r1, sp, #4
 106 006c 0A22     		mov	r2, #10
 107 006e FFF7FEFF 		bl	itoa
 108              	.LVL5:
 109 0072 FFF7FEFF 		bl	UART_BLE_UartPutString
 110              	.LVL6:
 173:.\main.c      ****             UART_BLE_UartPutChar(10);    
 111              		.loc 1 173 0
 112 0076 0A20     		mov	r0, #10
ARM GAS  C:\Users\LINETT~1\AppData\Local\Temp\ccHV4T25.s 			page 6


 113 0078 FFF7FEFF 		bl	UART_BLE_SpiUartWriteTxData
 114              	.LVL7:
 174:.\main.c      ****             UART_BLE_UartPutChar(13);  
 115              		.loc 1 174 0
 116 007c 0D20     		mov	r0, #13
 117 007e FFF7FEFF 		bl	UART_BLE_SpiUartWriteTxData
 118              	.LVL8:
 119              	.L5:
 175:.\main.c      ****         }
 176:.\main.c      ****         
 177:.\main.c      ****         #ifdef TRANSMIT_TIME
 178:.\main.c      ****         UART_UartPutChar(counter);                    // Send back lowbyte of value
 179:.\main.c      ****         UART_UartPutChar((counter>>8));               // Send back highbyte of value
 180:.\main.c      ****         #else
 181:.\main.c      ****         UART_UartPutChar(value_out[0]);
 120              		.loc 1 181 0
 121 0082 064C     		ldr	r4, .L6+4
 122 0084 0423     		mov	r3, #4
 123 0086 E05E     		ldrsh	r0, [r4, r3]
 124 0088 FFF7FEFF 		bl	UART_SpiUartWriteTxData
 125              	.LVL9:
 182:.\main.c      ****         UART_UartPutChar(value_out[0]>>8);
 126              		.loc 1 182 0
 127 008c 0520     		mov	r0, #5
 128 008e 2056     		ldrsb	r0, [r4, r0]
 129 0090 FFF7FEFF 		bl	UART_SpiUartWriteTxData
 130              	.LVL10:
 131              	.L1:
 183:.\main.c      ****         #endif
 184:.\main.c      ****         
 185:.\main.c      ****     
 186:.\main.c      ****     }
 187:.\main.c      **** }
 132              		.loc 1 187 0
 133 0094 03B0     		add	sp, sp, #12
 134              		@ sp needed
 135 0096 30BD     		pop	{r4, r5, pc}
 136              	.L7:
 137              		.align	2
 138              	.L6:
 139 0098 C00F2740 		.word	1076301760
 140 009c 00000000 		.word	.LANCHOR0
 141 00a0 00000000 		.word	value_in
 142              		.cfi_endproc
 143              	.LFE41:
 144              		.size	RX_interrupt, .-RX_interrupt
 145              		.section	.text.BLE_RX_interrupt,"ax",%progbits
 146              		.align	2
 147              		.global	BLE_RX_interrupt
 148              		.code	16
 149              		.thumb_func
 150              		.type	BLE_RX_interrupt, %function
 151              	BLE_RX_interrupt:
 152              	.LFB42:
 188:.\main.c      **** 
 189:.\main.c      **** CY_ISR(BLE_RX_interrupt)
 190:.\main.c      **** {
ARM GAS  C:\Users\LINETT~1\AppData\Local\Temp\ccHV4T25.s 			page 7


 153              		.loc 1 190 0
 154              		.cfi_startproc
 155 0000 08B5     		push	{r3, lr}
 156              		.cfi_def_cfa_offset 8
 157              		.cfi_offset 3, -8
 158              		.cfi_offset 14, -4
 191:.\main.c      ****     uint8 ch = UART_BLE_UartGetChar();
 159              		.loc 1 191 0
 160 0002 FFF7FEFF 		bl	UART_BLE_UartGetChar
 161              	.LVL11:
 192:.\main.c      ****     UART_BLE_ClearRxInterruptSource(UART_BLE_GetRxInterruptSource());
 162              		.loc 1 192 0
 163 0006 044B     		ldr	r3, .L9
 164 0008 1A68     		ldr	r2, [r3]
 165 000a 1A60     		str	r2, [r3]
 193:.\main.c      ****     UART_UartPutChar(ch);
 166              		.loc 1 193 0
 167 000c FF23     		mov	r3, #255
 168 000e 1840     		and	r0, r3
 169              	.LVL12:
 170 0010 FFF7FEFF 		bl	UART_SpiUartWriteTxData
 171              	.LVL13:
 194:.\main.c      **** }
 172              		.loc 1 194 0
 173              		@ sp needed
 174 0014 08BD     		pop	{r3, pc}
 175              	.L10:
 176 0016 C046     		.align	2
 177              	.L9:
 178 0018 C00F2540 		.word	1076170688
 179              		.cfi_endproc
 180              	.LFE42:
 181              		.size	BLE_RX_interrupt, .-BLE_RX_interrupt
 182              		.section	.text.Timer_interrupt,"ax",%progbits
 183              		.align	2
 184              		.global	Timer_interrupt
 185              		.code	16
 186              		.thumb_func
 187              		.type	Timer_interrupt, %function
 188              	Timer_interrupt:
 189              	.LFB43:
 195:.\main.c      **** 
 196:.\main.c      **** CY_ISR(Timer_interrupt)
 197:.\main.c      **** {
 190              		.loc 1 197 0
 191              		.cfi_startproc
 192 0000 08B5     		push	{r3, lr}
 193              		.cfi_def_cfa_offset 8
 194              		.cfi_offset 3, -8
 195              		.cfi_offset 14, -4
 198:.\main.c      ****     counter = Timer_ReadCapture();   
 196              		.loc 1 198 0
 197 0002 FFF7FEFF 		bl	Timer_ReadCapture
 198              	.LVL14:
 199 0006 014B     		ldr	r3, .L12
 200 0008 5881     		strh	r0, [r3, #10]
 199:.\main.c      **** }
ARM GAS  C:\Users\LINETT~1\AppData\Local\Temp\ccHV4T25.s 			page 8


 201              		.loc 1 199 0
 202              		@ sp needed
 203 000a 08BD     		pop	{r3, pc}
 204              	.L13:
 205              		.align	2
 206              	.L12:
 207 000c 00000000 		.word	.LANCHOR0
 208              		.cfi_endproc
 209              	.LFE43:
 210              		.size	Timer_interrupt, .-Timer_interrupt
 211              		.global	__aeabi_dcmpgt
 212              		.global	__aeabi_dadd
 213              		.global	__aeabi_d2iz
 214              		.global	__aeabi_dsub
 215              		.section	.text.floor_and_convert,"ax",%progbits
 216              		.align	2
 217              		.global	floor_and_convert
 218              		.code	16
 219              		.thumb_func
 220              		.type	floor_and_convert, %function
 221              	floor_and_convert:
 222              	.LFB36:
  44:.\main.c      ****    if (y > 0)
 223              		.loc 1 44 0
 224              		.cfi_startproc
 225              	.LVL15:
 226 0000 38B5     		push	{r3, r4, r5, lr}
 227              		.cfi_def_cfa_offset 16
 228              		.cfi_offset 3, -16
 229              		.cfi_offset 4, -12
 230              		.cfi_offset 5, -8
 231              		.cfi_offset 14, -4
 232 0002 041C     		mov	r4, r0
 233 0004 0D1C     		mov	r5, r1
  45:.\main.c      ****       return (signed int) (y+0.5);
 234              		.loc 1 45 0
 235 0006 0022     		mov	r2, #0
 236 0008 0023     		mov	r3, #0
 237 000a FFF7FEFF 		bl	__aeabi_dcmpgt
 238              	.LVL16:
 239 000e 0028     		cmp	r0, #0
 240 0010 08D0     		beq	.L19
  46:.\main.c      ****    else
 241              		.loc 1 46 0
 242 0012 201C     		mov	r0, r4
 243 0014 291C     		mov	r1, r5
 244 0016 0022     		mov	r2, #0
 245 0018 074B     		ldr	r3, .L20
 246 001a FFF7FEFF 		bl	__aeabi_dadd
 247              	.LVL17:
 248 001e FFF7FEFF 		bl	__aeabi_d2iz
 249              	.LVL18:
 250 0022 07E0     		b	.L17
 251              	.L19:
  48:.\main.c      **** }
 252              		.loc 1 48 0
 253 0024 201C     		mov	r0, r4
ARM GAS  C:\Users\LINETT~1\AppData\Local\Temp\ccHV4T25.s 			page 9


 254 0026 291C     		mov	r1, r5
 255 0028 0022     		mov	r2, #0
 256 002a 034B     		ldr	r3, .L20
 257 002c FFF7FEFF 		bl	__aeabi_dsub
 258              	.LVL19:
 259 0030 FFF7FEFF 		bl	__aeabi_d2iz
 260              	.LVL20:
 261              	.L17:
  49:.\main.c      **** 
 262              		.loc 1 49 0
 263              		@ sp needed
 264 0034 38BD     		pop	{r3, r4, r5, pc}
 265              	.L21:
 266 0036 C046     		.align	2
 267              	.L20:
 268 0038 0000E03F 		.word	1071644672
 269              		.cfi_endproc
 270              	.LFE36:
 271              		.size	floor_and_convert, .-floor_and_convert
 272              		.section	.text.high_pass_filter,"ax",%progbits
 273              		.align	2
 274              		.global	high_pass_filter
 275              		.code	16
 276              		.thumb_func
 277              		.type	high_pass_filter, %function
 278              	high_pass_filter:
 279              	.LFB37:
  53:.\main.c      ****    x[0] = data;          // Read received sample and perform type casts
 280              		.loc 1 53 0
 281              		.cfi_startproc
 282              	.LVL21:
 283 0000 30B5     		push	{r4, r5, lr}
 284              		.cfi_def_cfa_offset 12
 285              		.cfi_offset 4, -12
 286              		.cfi_offset 5, -8
 287              		.cfi_offset 14, -4
  54:.\main.c      ****    
 288              		.loc 1 54 0
 289 0002 1F4B     		ldr	r3, .L27
 290 0004 D860     		str	r0, [r3, #12]
  56:.\main.c      ****    
 291              		.loc 1 56 0
 292 0006 1F4B     		ldr	r3, .L27+4
 293 0008 1B68     		ldr	r3, [r3]
 294 000a 5843     		mul	r0, r3
 295              	.LVL22:
 296 000c 1E4B     		ldr	r3, .L27+8
 297 000e 1861     		str	r0, [r3, #16]
  58:.\main.c      ****    {
 298              		.loc 1 58 0
 299 0010 0122     		mov	r2, #1
 300 0012 1A83     		strh	r2, [r3, #24]
 301 0014 0EE0     		b	.L23
 302              	.L24:
  60:.\main.c      ****    } 
 303              		.loc 1 60 0 discriminator 3
 304 0016 13B2     		sxth	r3, r2
ARM GAS  C:\Users\LINETT~1\AppData\Local\Temp\ccHV4T25.s 			page 10


 305 0018 9B00     		lsl	r3, r3, #2
 306 001a 1A49     		ldr	r1, .L27+4
 307 001c 5958     		ldr	r1, [r3, r1]
 308 001e 1848     		ldr	r0, .L27
 309 0020 C318     		add	r3, r0, r3
 310 0022 DB68     		ldr	r3, [r3, #12]
 311 0024 4B43     		mul	r3, r1
 312 0026 1849     		ldr	r1, .L27+8
 313 0028 0869     		ldr	r0, [r1, #16]
 314 002a 8446     		mov	ip, r0
 315 002c 6344     		add	r3, r3, ip
 316 002e 0B61     		str	r3, [r1, #16]
  58:.\main.c      ****    {
 317              		.loc 1 58 0 discriminator 3
 318 0030 0132     		add	r2, r2, #1
 319 0032 0A83     		strh	r2, [r1, #24]
 320              	.L23:
  58:.\main.c      ****    {
 321              		.loc 1 58 0 is_stmt 0 discriminator 1
 322 0034 144B     		ldr	r3, .L27+8
 323 0036 1A8B     		ldrh	r2, [r3, #24]
 324 0038 13B2     		sxth	r3, r2
 325 003a 202B     		cmp	r3, #32
 326 003c EBDD     		ble	.L24
  62:.\main.c      ****    
 327              		.loc 1 62 0 is_stmt 1
 328 003e 124B     		ldr	r3, .L27+8
 329 0040 5869     		ldr	r0, [r3, #20]
 330 0042 1A6A     		ldr	r2, [r3, #32]
 331 0044 5043     		mul	r0, r2
 332 0046 1A69     		ldr	r2, [r3, #16]
 333 0048 101A     		sub	r0, r2, r0
 334 004a 1861     		str	r0, [r3, #16]
  65:.\main.c      ****    {
 335              		.loc 1 65 0
 336 004c 1F22     		mov	r2, #31
 337 004e 1A83     		strh	r2, [r3, #24]
 338 0050 0BE0     		b	.L25
 339              	.LVL23:
 340              	.L26:
  67:.\main.c      ****    }
 341              		.loc 1 67 0 discriminator 3
 342 0052 13B2     		sxth	r3, r2
 343 0054 591C     		add	r1, r3, #1
 344 0056 0A4C     		ldr	r4, .L27
 345 0058 9B00     		lsl	r3, r3, #2
 346 005a E318     		add	r3, r4, r3
 347 005c DD68     		ldr	r5, [r3, #12]
 348 005e 8B00     		lsl	r3, r1, #2
 349 0060 E318     		add	r3, r4, r3
 350 0062 DD60     		str	r5, [r3, #12]
  65:.\main.c      ****    {
 351              		.loc 1 65 0 discriminator 3
 352 0064 013A     		sub	r2, r2, #1
 353 0066 084B     		ldr	r3, .L27+8
 354 0068 1A83     		strh	r2, [r3, #24]
 355              	.L25:
ARM GAS  C:\Users\LINETT~1\AppData\Local\Temp\ccHV4T25.s 			page 11


  65:.\main.c      ****    {
 356              		.loc 1 65 0 is_stmt 0 discriminator 1
 357 006a 074B     		ldr	r3, .L27+8
 358 006c 1A8B     		ldrh	r2, [r3, #24]
 359 006e 13B2     		sxth	r3, r2
 360 0070 002B     		cmp	r3, #0
 361 0072 EEDA     		bge	.L26
  69:.\main.c      **** 
 362              		.loc 1 69 0 is_stmt 1
 363 0074 4011     		asr	r0, r0, #5
 364 0076 044B     		ldr	r3, .L27+8
 365 0078 1861     		str	r0, [r3, #16]
  71:.\main.c      ****    
 366              		.loc 1 71 0
 367 007a 5861     		str	r0, [r3, #20]
  74:.\main.c      **** 
 368              		.loc 1 74 0
 369              		@ sp needed
 370 007c 30BD     		pop	{r4, r5, pc}
 371              	.L28:
 372 007e C046     		.align	2
 373              	.L27:
 374 0080 00000000 		.word	.LANCHOR0
 375 0084 00000000 		.word	.LANCHOR1
 376 0088 80000000 		.word	.LANCHOR2
 377              		.cfi_endproc
 378              	.LFE37:
 379              		.size	high_pass_filter, .-high_pass_filter
 380              		.section	.text.differentiator,"ax",%progbits
 381              		.align	2
 382              		.global	differentiator
 383              		.code	16
 384              		.thumb_func
 385              		.type	differentiator, %function
 386              	differentiator:
 387              	.LFB38:
  77:.\main.c      ****    diff = (new - old);
 388              		.loc 1 77 0
 389              		.cfi_startproc
 390              	.LVL24:
  78:.\main.c      ****    old = new;
 391              		.loc 1 78 0
 392 0000 044A     		ldr	r2, .L30
 393 0002 1388     		ldrh	r3, [r2]
 394 0004 C31A     		sub	r3, r0, r3
 395 0006 9BB2     		uxth	r3, r3
 396 0008 0349     		ldr	r1, .L30+4
 397 000a 0B80     		strh	r3, [r1]
  79:.\main.c      ****    return diff;
 398              		.loc 1 79 0
 399 000c 1080     		strh	r0, [r2]
  80:.\main.c      **** }
 400              		.loc 1 80 0
 401 000e 18B2     		sxth	r0, r3
 402              	.LVL25:
  81:.\main.c      **** 
 403              		.loc 1 81 0
ARM GAS  C:\Users\LINETT~1\AppData\Local\Temp\ccHV4T25.s 			page 12


 404              		@ sp needed
 405 0010 7047     		bx	lr
 406              	.L31:
 407 0012 C046     		.align	2
 408              	.L30:
 409 0014 00000000 		.word	old
 410 0018 00000000 		.word	diff
 411              		.cfi_endproc
 412              	.LFE38:
 413              		.size	differentiator, .-differentiator
 414              		.section	.text.square,"ax",%progbits
 415              		.align	2
 416              		.global	square
 417              		.code	16
 418              		.thumb_func
 419              		.type	square, %function
 420              	square:
 421              	.LFB39:
  85:.\main.c      ****    return data*data;
 422              		.loc 1 85 0
 423              		.cfi_startproc
 424              	.LVL26:
  86:.\main.c      **** }
 425              		.loc 1 86 0
 426 0000 4043     		mul	r0, r0
 427              	.LVL27:
  87:.\main.c      **** 
 428              		.loc 1 87 0
 429              		@ sp needed
 430 0002 7047     		bx	lr
 431              		.cfi_endproc
 432              	.LFE39:
 433              		.size	square, .-square
 434              		.global	__aeabi_ui2d
 435              		.global	__aeabi_dmul
 436              		.global	__aeabi_d2uiz
 437              		.section	.text.mavg_filter,"ax",%progbits
 438              		.align	2
 439              		.global	mavg_filter
 440              		.code	16
 441              		.thumb_func
 442              		.type	mavg_filter, %function
 443              	mavg_filter:
 444              	.LFB40:
  90:.\main.c      ****    x3[0] =  (double) data;      // Read received sample and perform type casts
 445              		.loc 1 90 0
 446              		.cfi_startproc
 447              	.LVL28:
 448 0000 70B5     		push	{r4, r5, r6, lr}
 449              		.cfi_def_cfa_offset 16
 450              		.cfi_offset 4, -16
 451              		.cfi_offset 5, -12
 452              		.cfi_offset 6, -8
 453              		.cfi_offset 14, -4
  91:.\main.c      ****    
 454              		.loc 1 91 0
 455 0002 FFF7FEFF 		bl	__aeabi_ui2d
ARM GAS  C:\Users\LINETT~1\AppData\Local\Temp\ccHV4T25.s 			page 13


 456              	.LVL29:
 457 0006 204B     		ldr	r3, .L38
 458 0008 9862     		str	r0, [r3, #40]
 459 000a D962     		str	r1, [r3, #44]
  93:.\main.c      ****    for(i = 0;i <= FILTER_LENGTH2;i++)           // Run FIR filter for each received sample
 460              		.loc 1 93 0
 461 000c 0020     		mov	r0, #0
 462 000e 0021     		mov	r1, #0
 463 0010 1E4A     		ldr	r2, .L38+4
 464 0012 1062     		str	r0, [r2, #32]
 465 0014 5162     		str	r1, [r2, #36]
  94:.\main.c      ****    {
 466              		.loc 1 94 0
 467 0016 0022     		mov	r2, #0
 468 0018 1A83     		strh	r2, [r3, #24]
 469 001a 14E0     		b	.L34
 470              	.L35:
  96:.\main.c      ****    } 
 471              		.loc 1 96 0 discriminator 3
 472 001c 23B2     		sxth	r3, r4
 473 001e DB00     		lsl	r3, r3, #3
 474 0020 1B4A     		ldr	r2, .L38+8
 475 0022 D218     		add	r2, r2, r3
 476 0024 9068     		ldr	r0, [r2, #8]
 477 0026 D168     		ldr	r1, [r2, #12]
 478 0028 174D     		ldr	r5, .L38
 479 002a EB18     		add	r3, r5, r3
 480 002c 9A6A     		ldr	r2, [r3, #40]
 481 002e DB6A     		ldr	r3, [r3, #44]
 482 0030 FFF7FEFF 		bl	__aeabi_dmul
 483              	.LVL30:
 484 0034 154E     		ldr	r6, .L38+4
 485 0036 326A     		ldr	r2, [r6, #32]
 486 0038 736A     		ldr	r3, [r6, #36]
 487 003a FFF7FEFF 		bl	__aeabi_dadd
 488              	.LVL31:
 489 003e 3062     		str	r0, [r6, #32]
 490 0040 7162     		str	r1, [r6, #36]
  94:.\main.c      ****    {
 491              		.loc 1 94 0 discriminator 3
 492 0042 0134     		add	r4, r4, #1
 493 0044 2C83     		strh	r4, [r5, #24]
 494              	.L34:
  94:.\main.c      ****    {
 495              		.loc 1 94 0 is_stmt 0 discriminator 1
 496 0046 104B     		ldr	r3, .L38
 497 0048 1C8B     		ldrh	r4, [r3, #24]
 498 004a 23B2     		sxth	r3, r4
 499 004c 1E2B     		cmp	r3, #30
 500 004e E5DD     		ble	.L35
  99:.\main.c      ****    {
 501              		.loc 1 99 0 is_stmt 1
 502 0050 1D22     		mov	r2, #29
 503 0052 0D4B     		ldr	r3, .L38
 504 0054 1A83     		strh	r2, [r3, #24]
 505 0056 0CE0     		b	.L36
 506              	.L37:
ARM GAS  C:\Users\LINETT~1\AppData\Local\Temp\ccHV4T25.s 			page 14


 101:.\main.c      ****    }
 507              		.loc 1 101 0 discriminator 3
 508 0058 13B2     		sxth	r3, r2
 509 005a 5C1C     		add	r4, r3, #1
 510 005c 0A4D     		ldr	r5, .L38
 511 005e DB00     		lsl	r3, r3, #3
 512 0060 EB18     		add	r3, r5, r3
 513 0062 986A     		ldr	r0, [r3, #40]
 514 0064 D96A     		ldr	r1, [r3, #44]
 515 0066 E300     		lsl	r3, r4, #3
 516 0068 EB18     		add	r3, r5, r3
 517 006a 9862     		str	r0, [r3, #40]
 518 006c D962     		str	r1, [r3, #44]
  99:.\main.c      ****    {
 519              		.loc 1 99 0 discriminator 3
 520 006e 013A     		sub	r2, r2, #1
 521 0070 2A83     		strh	r2, [r5, #24]
 522              	.L36:
  99:.\main.c      ****    {
 523              		.loc 1 99 0 is_stmt 0 discriminator 1
 524 0072 054B     		ldr	r3, .L38
 525 0074 1A8B     		ldrh	r2, [r3, #24]
 526 0076 13B2     		sxth	r3, r2
 527 0078 002B     		cmp	r3, #0
 528 007a EDDA     		bge	.L37
 104:.\main.c      **** }
 529              		.loc 1 104 0 is_stmt 1
 530 007c 034B     		ldr	r3, .L38+4
 531 007e 186A     		ldr	r0, [r3, #32]
 532 0080 596A     		ldr	r1, [r3, #36]
 533 0082 FFF7FEFF 		bl	__aeabi_d2uiz
 534              	.LVL32:
 105:.\main.c      **** 
 535              		.loc 1 105 0
 536              		@ sp needed
 537 0086 70BD     		pop	{r4, r5, r6, pc}
 538              	.L39:
 539              		.align	2
 540              	.L38:
 541 0088 80000000 		.word	.LANCHOR2
 542 008c 80010000 		.word	.LANCHOR3
 543 0090 80000000 		.word	.LANCHOR4
 544              		.cfi_endproc
 545              	.LFE40:
 546              		.size	mavg_filter, .-mavg_filter
 547              		.section	.text.main,"ax",%progbits
 548              		.align	2
 549              		.global	main
 550              		.code	16
 551              		.thumb_func
 552              		.type	main, %function
 553              	main:
 554              	.LFB44:
 200:.\main.c      **** 
 201:.\main.c      **** 
 202:.\main.c      **** int main()
 203:.\main.c      **** {
ARM GAS  C:\Users\LINETT~1\AppData\Local\Temp\ccHV4T25.s 			page 15


 555              		.loc 1 203 0
 556              		.cfi_startproc
 557 0000 08B5     		push	{r3, lr}
 558              		.cfi_def_cfa_offset 8
 559              		.cfi_offset 3, -8
 560              		.cfi_offset 14, -4
 204:.\main.c      ****  
 205:.\main.c      ****     CyGlobalIntEnable;                          /* Enable global interrupts */
 561              		.loc 1 205 0
 562              	@ 205 ".\main.c" 1
 563 0002 62B6     		CPSIE   i
 564              	@ 0 "" 2
 206:.\main.c      ****     Timer_ISR_StartEx(Timer_interrupt);         /* Set interrupt address */
 565              		.loc 1 206 0
 566              		.code	16
 567 0004 0A48     		ldr	r0, .L41
 568 0006 FFF7FEFF 		bl	Timer_ISR_StartEx
 569              	.LVL33:
 207:.\main.c      ****     UART_RX_ISR_StartEx(RX_interrupt);          /* Set interrupt address */
 570              		.loc 1 207 0
 571 000a 0A48     		ldr	r0, .L41+4
 572 000c FFF7FEFF 		bl	UART_RX_ISR_StartEx
 573              	.LVL34:
 208:.\main.c      ****     UART_BLE_RX_ISR_StartEx(BLE_RX_interrupt);  /* Set interrupt address */
 574              		.loc 1 208 0
 575 0010 0948     		ldr	r0, .L41+8
 576 0012 FFF7FEFF 		bl	UART_BLE_RX_ISR_StartEx
 577              	.LVL35:
 209:.\main.c      ****     UART_Start();                               /* Start UART */
 578              		.loc 1 209 0
 579 0016 FFF7FEFF 		bl	UART_Start
 580              	.LVL36:
 210:.\main.c      ****     UART_BLE_Start();                           /* Start UART_BLE */
 581              		.loc 1 210 0
 582 001a FFF7FEFF 		bl	UART_BLE_Start
 583              	.LVL37:
 211:.\main.c      ****     Timer_Start();                              /* Start Timer */
 584              		.loc 1 211 0
 585 001e FFF7FEFF 		bl	Timer_Start
 586              	.LVL38:
 212:.\main.c      ****     Timer_ISR_Enable();                         /* Enable Timer interrupt service routine*/
 587              		.loc 1 212 0
 588 0022 FFF7FEFF 		bl	Timer_ISR_Enable
 589              	.LVL39:
 213:.\main.c      ****     CySysPmSleep();                             /* Enter Sleep mode */
 590              		.loc 1 213 0
 591 0026 FFF7FEFF 		bl	CySysPmSleep
 592              	.LVL40:
 214:.\main.c      ****     return 0;
 215:.\main.c      **** }
 593              		.loc 1 215 0
 594 002a 0020     		mov	r0, #0
 595              		@ sp needed
 596 002c 08BD     		pop	{r3, pc}
 597              	.L42:
 598 002e C046     		.align	2
 599              	.L41:
ARM GAS  C:\Users\LINETT~1\AppData\Local\Temp\ccHV4T25.s 			page 16


 600 0030 00000000 		.word	Timer_interrupt
 601 0034 00000000 		.word	RX_interrupt
 602 0038 00000000 		.word	BLE_RX_interrupt
 603              		.cfi_endproc
 604              	.LFE44:
 605              		.size	main, .-main
 606              		.global	FirstCall
 607              		.comm	avg_new,2,2
 608              		.comm	unsigned_data,2,2
 609              		.comm	moving_sum,2,2
 610              		.comm	squared,2,2
 611              		.comm	pointer,2,2
 612              		.global	counter
 613              		.global	data_array
 614              		.comm	old,2,2
 615              		.comm	signed_data,2,2
 616              		.comm	diff,2,2
 617              		.comm	newest,2,2
 618              		.comm	oldest,2,2
 619              		.global	j
 620              		.global	i
 621              		.global	value_out
 622              		.comm	value_in,2,2
 623              		.global	current_byte
 624              		.global	b3
 625              		.global	y3
 626              		.global	x3
 627              		.global	a
 628              		.global	b
 629              		.global	y
 630              		.global	x
 631              		.data
 632              		.align	3
 633              		.set	.LANCHOR1,. + 0
 634              		.set	.LANCHOR4,. + 128
 635              		.type	b, %object
 636              		.size	b, 132
 637              	b:
 638 0000 FFFFFFFF 		.word	-1
 639 0004 00000000 		.word	0
 640 0008 00000000 		.word	0
 641 000c 00000000 		.word	0
 642 0010 00000000 		.word	0
 643 0014 00000000 		.word	0
 644 0018 00000000 		.word	0
 645 001c 00000000 		.word	0
 646 0020 00000000 		.word	0
 647 0024 00000000 		.word	0
 648 0028 00000000 		.word	0
 649 002c 00000000 		.word	0
 650 0030 00000000 		.word	0
 651 0034 00000000 		.word	0
 652 0038 00000000 		.word	0
 653 003c 20000000 		.word	32
 654 0040 E0FFFFFF 		.word	-32
 655 0044 00000000 		.word	0
 656 0048 00000000 		.word	0
ARM GAS  C:\Users\LINETT~1\AppData\Local\Temp\ccHV4T25.s 			page 17


 657 004c 00000000 		.word	0
 658 0050 00000000 		.word	0
 659 0054 00000000 		.word	0
 660 0058 00000000 		.word	0
 661 005c 00000000 		.word	0
 662 0060 00000000 		.word	0
 663 0064 00000000 		.word	0
 664 0068 00000000 		.word	0
 665 006c 00000000 		.word	0
 666 0070 00000000 		.word	0
 667 0074 00000000 		.word	0
 668 0078 00000000 		.word	0
 669 007c 00000000 		.word	0
 670 0080 01000000 		.word	1
 671 0084 00000000 		.space	4
 672              		.type	b3, %object
 673              		.size	b3, 248
 674              	b3:
 675 0088 B81E85EB 		.word	-343597384
 676 008c 51B89E3F 		.word	1067366481
 677 0090 B81E85EB 		.word	-343597384
 678 0094 51B89E3F 		.word	1067366481
 679 0098 B81E85EB 		.word	-343597384
 680 009c 51B89E3F 		.word	1067366481
 681 00a0 B81E85EB 		.word	-343597384
 682 00a4 51B89E3F 		.word	1067366481
 683 00a8 B81E85EB 		.word	-343597384
 684 00ac 51B89E3F 		.word	1067366481
 685 00b0 B81E85EB 		.word	-343597384
 686 00b4 51B89E3F 		.word	1067366481
 687 00b8 B81E85EB 		.word	-343597384
 688 00bc 51B89E3F 		.word	1067366481
 689 00c0 B81E85EB 		.word	-343597384
 690 00c4 51B89E3F 		.word	1067366481
 691 00c8 B81E85EB 		.word	-343597384
 692 00cc 51B89E3F 		.word	1067366481
 693 00d0 B81E85EB 		.word	-343597384
 694 00d4 51B89E3F 		.word	1067366481
 695 00d8 B81E85EB 		.word	-343597384
 696 00dc 51B89E3F 		.word	1067366481
 697 00e0 B81E85EB 		.word	-343597384
 698 00e4 51B89E3F 		.word	1067366481
 699 00e8 B81E85EB 		.word	-343597384
 700 00ec 51B89E3F 		.word	1067366481
 701 00f0 B81E85EB 		.word	-343597384
 702 00f4 51B89E3F 		.word	1067366481
 703 00f8 B81E85EB 		.word	-343597384
 704 00fc 51B89E3F 		.word	1067366481
 705 0100 B81E85EB 		.word	-343597384
 706 0104 51B89E3F 		.word	1067366481
 707 0108 B81E85EB 		.word	-343597384
 708 010c 51B89E3F 		.word	1067366481
 709 0110 B81E85EB 		.word	-343597384
 710 0114 51B89E3F 		.word	1067366481
 711 0118 B81E85EB 		.word	-343597384
 712 011c 51B89E3F 		.word	1067366481
 713 0120 B81E85EB 		.word	-343597384
ARM GAS  C:\Users\LINETT~1\AppData\Local\Temp\ccHV4T25.s 			page 18


 714 0124 51B89E3F 		.word	1067366481
 715 0128 B81E85EB 		.word	-343597384
 716 012c 51B89E3F 		.word	1067366481
 717 0130 B81E85EB 		.word	-343597384
 718 0134 51B89E3F 		.word	1067366481
 719 0138 B81E85EB 		.word	-343597384
 720 013c 51B89E3F 		.word	1067366481
 721 0140 B81E85EB 		.word	-343597384
 722 0144 51B89E3F 		.word	1067366481
 723 0148 B81E85EB 		.word	-343597384
 724 014c 51B89E3F 		.word	1067366481
 725 0150 B81E85EB 		.word	-343597384
 726 0154 51B89E3F 		.word	1067366481
 727 0158 B81E85EB 		.word	-343597384
 728 015c 51B89E3F 		.word	1067366481
 729 0160 B81E85EB 		.word	-343597384
 730 0164 51B89E3F 		.word	1067366481
 731 0168 B81E85EB 		.word	-343597384
 732 016c 51B89E3F 		.word	1067366481
 733 0170 B81E85EB 		.word	-343597384
 734 0174 51B89E3F 		.word	1067366481
 735 0178 B81E85EB 		.word	-343597384
 736 017c 51B89E3F 		.word	1067366481
 737              		.type	FirstCall, %object
 738              		.size	FirstCall, 1
 739              	FirstCall:
 740 0180 01       		.byte	1
 741 0181 00000000 		.bss
 741      000000
 742              		.align	3
 743              		.set	.LANCHOR0,. + 0
 744              		.set	.LANCHOR2,. + 128
 745              		.set	.LANCHOR3,. + 384
 746              		.type	current_byte, %object
 747              		.size	current_byte, 1
 748              	current_byte:
 749 0000 00       		.space	1
 750 0001 000000   		.space	3
 751              		.type	value_out, %object
 752              		.size	value_out, 4
 753              	value_out:
 754 0004 00000000 		.space	4
 755              		.type	j, %object
 756              		.size	j, 2
 757              	j:
 758 0008 0000     		.space	2
 759              		.type	counter, %object
 760              		.size	counter, 2
 761              	counter:
 762 000a 0000     		.space	2
 763              		.type	x, %object
 764              		.size	x, 132
 765              	x:
 766 000c 00000000 		.space	132
 766      00000000 
 766      00000000 
 766      00000000 
ARM GAS  C:\Users\LINETT~1\AppData\Local\Temp\ccHV4T25.s 			page 19


 766      00000000 
 767              		.type	y, %object
 768              		.size	y, 8
 769              	y:
 770 0090 00000000 		.space	8
 770      00000000 
 771              		.type	i, %object
 772              		.size	i, 2
 773              	i:
 774 0098 0000     		.space	2
 775 009a 0000     		.space	2
 776              		.type	a, %object
 777              		.size	a, 8
 778              	a:
 779 009c 00000000 		.space	8
 779      00000000 
 780 00a4 00000000 		.space	4
 781              		.type	x3, %object
 782              		.size	x3, 248
 783              	x3:
 784 00a8 00000000 		.space	248
 784      00000000 
 784      00000000 
 784      00000000 
 784      00000000 
 785              		.type	y3, %object
 786              		.size	y3, 8
 787              	y3:
 788 01a0 00000000 		.space	8
 788      00000000 
 789              		.type	data_array, %object
 790              		.size	data_array, 10
 791              	data_array:
 792 01a8 00000000 		.space	10
 792      00000000 
 792      0000
 793 01b2 00000000 		.text
 793      0000
 794              	.Letext0:
 795              		.file 2 "Generated_Source\\PSoC4/cytypes.h"
 796              		.file 3 "Generated_Source\\PSoC4/Measure_When_Low.h"
 797              		.file 4 "Generated_Source\\PSoC4/UART_BLE_SPI_UART.h"
 798              		.file 5 "Generated_Source\\PSoC4/UART_SPI_UART.h"
 799              		.file 6 "Generated_Source\\PSoC4/Timer.h"
 800              		.file 7 "Generated_Source\\PSoC4/Timer_ISR.h"
 801              		.file 8 "Generated_Source\\PSoC4/UART_RX_ISR.h"
 802              		.file 9 "Generated_Source\\PSoC4/UART_BLE_RX_ISR.h"
 803              		.file 10 "Generated_Source\\PSoC4/UART.h"
 804              		.file 11 "Generated_Source\\PSoC4/UART_BLE.h"
 805              		.file 12 "Generated_Source\\PSoC4/cyPm.h"
 806              		.file 13 "c:\\program files (x86)\\cypress\\psoc creator\\3.3\\psoc creator\\import\\gnu\\arm\\4.9